0:abort
1:enlargeMemory
2:getTotalMemory
3:abortOnCannotGrowMemory
4:invoke_dii
5:invoke_i
6:invoke_ii
7:invoke_iii
8:invoke_iiii
9:invoke_iiiii
10:invoke_iiiiii
11:invoke_iiiiiii
12:invoke_iiiiiiii
13:invoke_iiiiiiiiii
14:invoke_iiiiiiiiiii
15:invoke_v
16:invoke_vi
17:invoke_vii
18:invoke_viifi
19:invoke_viii
20:invoke_viiii
21:invoke_viiiii
22:invoke_viiiiii
23:invoke_viiiiiii
24:invoke_viiiiiiii
25:invoke_viiiiiiiiii
26:_JS_Cursor_SetImage
27:_JS_Cursor_SetShow
28:_JS_Eval_ClearInterval
29:_JS_Eval_SetInterval
30:_JS_FileSystem_Initialize
31:_JS_FileSystem_Sync
32:_JS_Log_Dump
33:_JS_Log_StackTrace
34:_JS_Sound_Create_Channel
35:_JS_Sound_GetLength
36:_JS_Sound_GetLoadState
37:_JS_Sound_Init
38:_JS_Sound_Load
39:_JS_Sound_Load_PCM
40:_JS_Sound_Play
41:_JS_Sound_ReleaseInstance
42:_JS_Sound_ResumeIfNeeded
43:_JS_Sound_Set3D
44:_JS_Sound_SetListenerOrientation
45:_JS_Sound_SetListenerPosition
46:_JS_Sound_SetLoop
47:_JS_Sound_SetLoopPoints
48:_JS_Sound_SetPitch
49:_JS_Sound_SetPosition
50:_JS_Sound_SetVolume
51:_JS_Sound_Stop
52:_JS_SystemInfo_GetCanvasClientSize
53:_JS_SystemInfo_GetDocumentURL
54:_JS_SystemInfo_GetGPUInfo
55:_JS_SystemInfo_GetMemory
56:_JS_SystemInfo_GetOS
57:_JS_SystemInfo_GetPreferredDevicePixelRatio
58:_JS_SystemInfo_GetScreenSize
59:_JS_SystemInfo_HasCursorLock
60:_JS_SystemInfo_HasFullscreen
61:_JS_SystemInfo_HasWebGL
62:___buildEnvironment
63:___cxa_allocate_exception
64:___cxa_begin_catch
65:___cxa_end_catch
66:___cxa_find_matching_catch_2
67:___cxa_find_matching_catch_3
68:___cxa_find_matching_catch_4
69:___cxa_free_exception
70:___cxa_pure_virtual
71:___cxa_rethrow
72:___cxa_throw
73:___lock
74:___map_file
75:___resumeException
76:___setErrNo
77:___syscall10
78:___syscall122
79:___syscall140
80:___syscall142
81:___syscall145
82:___syscall146
83:___syscall15
84:___syscall183
85:___syscall192
86:___syscall193
87:___syscall195
88:___syscall196
89:___syscall197
90:___syscall199
91:___syscall220
92:___syscall221
93:___syscall268
94:___syscall3
95:___syscall33
96:___syscall38
97:___syscall39
98:___syscall4
99:___syscall40
100:___syscall5
101:___syscall54
102:___syscall6
103:___syscall77
104:___syscall85
105:___syscall91
106:___unlock
107:_abort
108:_atexit
109:_clock
110:_clock_getres
111:_clock_gettime
112:_difftime
113:_dlclose
114:_dlopen
115:_dlsym
116:_emscripten_asm_const_i
117:_emscripten_asm_const_ii
118:_emscripten_asm_const_sync_on_main_thread_i
119:_emscripten_cancel_main_loop
120:_emscripten_exit_fullscreen
121:_emscripten_exit_pointerlock
122:_emscripten_get_canvas_element_size
123:_emscripten_get_fullscreen_status
124:_emscripten_get_gamepad_status
125:_emscripten_get_main_loop_timing
126:_emscripten_get_now
127:_emscripten_get_num_gamepads
128:_emscripten_has_threading_support
129:_emscripten_html5_remove_all_event_listeners
130:_emscripten_is_webgl_context_lost
131:_emscripten_log
132:_emscripten_memcpy_big
133:_emscripten_num_logical_cores
134:_emscripten_request_fullscreen
135:_emscripten_request_pointerlock
136:_emscripten_set_blur_callback_on_thread
137:_emscripten_set_canvas_element_size
138:_emscripten_set_dblclick_callback_on_thread
139:_emscripten_set_devicemotion_callback_on_thread
140:_emscripten_set_deviceorientation_callback_on_thread
141:_emscripten_set_focus_callback_on_thread
142:_emscripten_set_fullscreenchange_callback_on_thread
143:_emscripten_set_gamepadconnected_callback_on_thread
144:_emscripten_set_gamepaddisconnected_callback_on_thread
145:_emscripten_set_keydown_callback_on_thread
146:_emscripten_set_keypress_callback_on_thread
147:_emscripten_set_keyup_callback_on_thread
148:_emscripten_set_main_loop
149:_emscripten_set_main_loop_timing
150:_emscripten_set_mousedown_callback_on_thread
151:_emscripten_set_mousemove_callback_on_thread
152:_emscripten_set_mouseup_callback_on_thread
153:_emscripten_set_touchcancel_callback_on_thread
154:_emscripten_set_touchend_callback_on_thread
155:_emscripten_set_touchmove_callback_on_thread
156:_emscripten_set_touchstart_callback_on_thread
157:_emscripten_set_wheel_callback_on_thread
158:_emscripten_webgl_create_context
159:_emscripten_webgl_destroy_context
160:_emscripten_webgl_enable_extension
161:_emscripten_webgl_get_current_context
162:_emscripten_webgl_init_context_attributes
163:_emscripten_webgl_make_context_current
164:_exit
165:_flock
166:_getenv
167:_getpagesize
168:_getpwuid
169:_gettimeofday
170:_glActiveTexture
171:_glAttachShader
172:_glBeginQuery
173:_glBeginTransformFeedback
174:_glBindAttribLocation
175:_glBindBuffer
176:_glBindBufferBase
177:_glBindBufferRange
178:_glBindFramebuffer
179:_glBindRenderbuffer
180:_glBindSampler
181:_glBindTexture
182:_glBindTransformFeedback
183:_glBindVertexArray
184:_glBlendEquation
185:_glBlendEquationSeparate
186:_glBlendFuncSeparate
187:_glBlitFramebuffer
188:_glBufferData
189:_glBufferSubData
190:_glCheckFramebufferStatus
191:_glClear
192:_glClearColor
193:_glClearDepthf
194:_glClearStencil
195:_glColorMask
196:_glCompileShader
197:_glCompressedTexImage2D
198:_glCompressedTexSubImage2D
199:_glCompressedTexSubImage3D
200:_glCopyBufferSubData
201:_glCopyTexImage2D
202:_glCopyTexSubImage2D
203:_glCreateProgram
204:_glCreateShader
205:_glCullFace
206:_glDeleteBuffers
207:_glDeleteFramebuffers
208:_glDeleteProgram
209:_glDeleteQueries
210:_glDeleteRenderbuffers
211:_glDeleteSamplers
212:_glDeleteShader
213:_glDeleteSync
214:_glDeleteTextures
215:_glDeleteTransformFeedbacks
216:_glDeleteVertexArrays
217:_glDepthFunc
218:_glDepthMask
219:_glDetachShader
220:_glDisable
221:_glDisableVertexAttribArray
222:_glDrawArrays
223:_glDrawArraysInstanced
224:_glDrawBuffers
225:_glDrawElements
226:_glDrawElementsInstanced
227:_glEnable
228:_glEnableVertexAttribArray
229:_glEndQuery
230:_glEndTransformFeedback
231:_glFenceSync
232:_glFinish
233:_glFlush
234:_glFlushMappedBufferRange
235:_glFramebufferRenderbuffer
236:_glFramebufferTexture2D
237:_glFramebufferTextureLayer
238:_glFrontFace
239:_glGenBuffers
240:_glGenFramebuffers
241:_glGenQueries
242:_glGenRenderbuffers
243:_glGenSamplers
244:_glGenTextures
245:_glGenTransformFeedbacks
246:_glGenVertexArrays
247:_glGenerateMipmap
248:_glGetActiveAttrib
249:_glGetActiveUniform
250:_glGetActiveUniformBlockName
251:_glGetActiveUniformBlockiv
252:_glGetActiveUniformsiv
253:_glGetAttribLocation
254:_glGetError
255:_glGetFramebufferAttachmentParameteriv
256:_glGetIntegeri_v
257:_glGetIntegerv
258:_glGetInternalformativ
259:_glGetProgramBinary
260:_glGetProgramInfoLog
261:_glGetProgramiv
262:_glGetRenderbufferParameteriv
263:_glGetShaderInfoLog
264:_glGetShaderPrecisionFormat
265:_glGetShaderSource
266:_glGetShaderiv
267:_glGetString
268:_glGetStringi
269:_glGetTexParameteriv
270:_glGetUniformBlockIndex
271:_glGetUniformIndices
272:_glGetUniformLocation
273:_glGetUniformiv
274:_glGetVertexAttribiv
275:_glInvalidateFramebuffer
276:_glIsEnabled
277:_glIsVertexArray
278:_glLinkProgram
279:_glMapBufferRange
280:_glPixelStorei
281:_glPolygonOffset
282:_glProgramBinary
283:_glProgramParameteri
284:_glReadBuffer
285:_glReadPixels
286:_glRenderbufferStorage
287:_glRenderbufferStorageMultisample
288:_glSamplerParameteri
289:_glScissor
290:_glShaderSource
291:_glStencilFuncSeparate
292:_glStencilMask
293:_glStencilOpSeparate
294:_glTexImage2D
295:_glTexImage3D
296:_glTexParameterf
297:_glTexParameteri
298:_glTexParameteriv
299:_glTexStorage2D
300:_glTexStorage3D
301:_glTexSubImage2D
302:_glTexSubImage3D
303:_glTransformFeedbackVaryings
304:_glUniform1fv
305:_glUniform1i
306:_glUniform1iv
307:_glUniform1uiv
308:_glUniform2fv
309:_glUniform2iv
310:_glUniform2uiv
311:_glUniform3fv
312:_glUniform3iv
313:_glUniform3uiv
314:_glUniform4fv
315:_glUniform4iv
316:_glUniform4uiv
317:_glUniformBlockBinding
318:_glUniformMatrix3fv
319:_glUniformMatrix4fv
320:_glUnmapBuffer
321:_glUseProgram
322:_glValidateProgram
323:_glVertexAttrib4f
324:_glVertexAttrib4fv
325:_glVertexAttribIPointer
326:_glVertexAttribPointer
327:_glViewport
328:_gmtime
329:_llvm_eh_typeid_for
330:_llvm_exp2_f32
331:_llvm_log10_f32
332:_llvm_log2_f32
333:_llvm_trap
334:_localtime
335:_mktime
336:_pthread_getspecific
337:_pthread_key_create
338:_pthread_once
339:_pthread_setspecific
340:_setenv
341:_sigaction
342:_sigemptyset
343:_strftime
344:_sysconf
345:_time
346:_unsetenv
347:_utime
348:f64-rem
349:legalimport$invoke_iiiijii
350:legalimport$invoke_iiijiii
351:legalimport$invoke_iij
352:legalimport$invoke_j
353:legalimport$invoke_ji
354:legalimport$invoke_jii
355:legalimport$invoke_jiii
356:legalimport$invoke_jiiiii
357:legalimport$invoke_jiiiiiiiiii
358:legalimport$invoke_jiiji
359:legalimport$invoke_jiji
360:legalimport$invoke_jijiii
361:legalimport$invoke_jijj
362:legalimport$invoke_viiiji
363:legalimport$invoke_viij
364:legalimport$invoke_viiji
365:legalimport$___atomic_fetch_add_8
366:legalimport$_glClientWaitSync
367:__growWasmMemory
368:stackAlloc
369:stackSave
370:stackRestore
371:establishStackSpace
372:setThrew
373:setTempRet0
374:getTempRet0
375:__GLOBAL__sub_I_AccessibilityScriptingClasses_cpp
376:__ZN9Scripting11UnityEngine13AccessibilityL54__ManagedRegistrationHelperFunction_VisionUtilityProxyEPv
377:__ZN9Scripting11UnityEngine13Accessibility18VisionUtilityProxy9InitProxyEv
378:__ZN9Scripting11UnityEngine13Accessibility18VisionUtilityProxy12CleanupProxyEv
379:__ZN13dynamic_arrayIPK10ModuleSpecLm0EE4growEv
380:__ZN4core20StringStorageDefaultIcE10deallocateEv
381:__GLOBAL__sub_I_AIScriptingClasses_cpp
382:___cxx_global_var_init
383:__ZN9Scripting11UnityEngine2AIL48__ManagedRegistrationHelperFunction_NavMeshProxyEPv
384:__ZN9Scripting11UnityEngine2AIL59__ManagedRegistrationHelperFunction_NavMeshBuildSourceProxyEPv
385:__ZN9Scripting11UnityEngine2AIL61__ManagedRegistrationHelperFunction_NavMeshTriangulationProxyEPv
386:__ZN9Scripting11UnityEngine2AI25NavMeshTriangulationProxy9InitProxyEv
387:__ZN9Scripting11UnityEngine2AI25NavMeshTriangulationProxy12CleanupProxyEv
388:__ZN9Scripting11UnityEngine2AI23NavMeshBuildSourceProxy9InitProxyEv
389:__ZN9Scripting11UnityEngine2AI23NavMeshBuildSourceProxy12CleanupProxyEv
390:__ZN9Scripting11UnityEngine2AI12NavMeshProxy9InitProxyEv
391:__ZN9Scripting11UnityEngine2AI12NavMeshProxy12CleanupProxyEv
392:__ZN6Object21AwakeFromLoadThreadedEv
393:__ZN6Object17IsAScriptedObjectEv
394:__ZNK16LevelGameManager7GetNameEv
395:__ZN6Object7SetNameEPKc
396:__ZN6Object12SetHideFlagsENS_9HideFlagsE
397:__ZNK11GameManager19ShouldWriteForBuildEv
398:__Z12TransferPPtrI14SafeBinaryReadEvRiRT_
399:__Z12TransferPPtrI18StreamedBinaryReadEvRiRT_
400:__Z12TransferPPtrI19StreamedBinaryWriteEvRiRT_
401:__ZNK9Behaviour10GetEnabledEv
402:__ZNSt3__213__tree_removeIPNS_16__tree_node_baseIPvEEEEvT_S5_
403:__ZN13dynamic_arrayIyLm0EE21resize_buffer_nocheckEm12ResizePolicy
404:__ZN13dynamic_arrayIiLm0EE21resize_buffer_nocheckEm12ResizePolicy
405:__ZN13dynamic_arrayIiLm0EED2Ev
406:__Z17CalculateGlobalRS23TransformAccessReadOnly
407:__Z23CalculateGlobalPosition23TransformAccessReadOnly
408:__ZN15EditorExtensionD2Ev
409:__ZN15EditorExtensionD0Ev
410:__ZNK15EditorExtension22GetTypeVirtualInternalEv
411:__ZNK6Object7GetNameEv
412:__ZN8Vector3f8TransferI14SafeBinaryReadEEvRT_
413:__ZNK4PPtrI9TransformEcvPS0_Ev
414:__ZNK4PPtrI9TransformEptEv
415:__ZNK11NamedObject7GetNameEv
416:__ZN4AABB8TransferI14SafeBinaryReadEEvRT_
417:__ZN11Quaternionf8TransferI14SafeBinaryReadEEvRT_
418:__ZN14SafeBinaryRead21TransferSTLStyleArrayI13dynamic_arrayI8Vector3fLm0EEEEvRT_17TransferMetaFlags
419:__ZN14SafeBinaryRead21TransferSTLStyleArrayI13dynamic_arrayIiLm0EEEEvRT_17TransferMetaFlags
420:__ZN13dynamic_arrayI8Vector3fLm0EE21resize_buffer_nocheckEm12ResizePolicy
421:__ZN14SafeBinaryRead21TransferSTLStyleArrayI13dynamic_arrayIhLm0EEEEvRT_17TransferMetaFlags
422:__ZN7Hash1288TransferI14SafeBinaryReadEEvRT_
423:__ZN13dynamic_arrayIhLm0EE21resize_buffer_nocheckEm12ResizePolicy
424:__ZN7Hash1288TransferI24GenerateTypeTreeTransferEEvRT_
425:__ZN11Quaternionf8TransferI24GenerateTypeTreeTransferEEvRT_
426:__ZN18StreamedBinaryRead8TransferI13dynamic_arrayIhLm0EEEEvRT_PKc17TransferMetaFlags
427:__ZN7Hash1288TransferI18StreamedBinaryReadEEvRT_
428:__ZN4AABB8TransferI18StreamedBinaryReadEEvRT_
429:__ZN18StreamedBinaryRead8TransferI11QuaternionfEEvRT_PKc17TransferMetaFlags
430:__ZN18StreamedBinaryRead8TransferI13dynamic_arrayIiLm0EEEEvRT_PKc17TransferMetaFlags
431:__ZN4AABB8TransferI19StreamedBinaryWriteEEvRT_
432:__ZN7Hash1288TransferI19StreamedBinaryWriteEEvRT_
433:__ZN4core20StringStorageDefaultIcE6assignERKS1_
434:__ZN4core20StringStorageDefaultIcE8allocateEm
435:__ZN14SafeBinaryRead21TransferSTLStyleArrayINSt3__26vectorIN4core12basic_stringIcNS3_20StringStorageDefaultIcEEEENS1_9allocatorIS7_EEEEEEvRT_17TransferMetaFlags
436:__ZNSt3__26vectorIN4core12basic_stringIcNS1_20StringStorageDefaultIcEEEENS_9allocatorIS5_EEE8__appendEm
437:__Z14resize_trimmedINSt3__26vectorIN4core12basic_stringIcNS2_20StringStorageDefaultIcEEEENS0_9allocatorIS6_EEEEEvRT_j
438:__ZN14SafeBinaryRead21TransferSTLStyleArrayIN4core12basic_stringIcNS1_20StringStorageDefaultIcEEEEEEvRT_17TransferMetaFlags
439:__ZN4core20StringStorageDefaultIcE10reallocateEm
440:__ZNSt3__26vectorIN4core12basic_stringIcNS1_20StringStorageDefaultIcEEEENS_9allocatorIS5_EEE7reserveEm
441:__ZNSt3__26vectorIN4core12basic_stringIcNS1_20StringStorageDefaultIcEEEENS_9allocatorIS5_EEE6assignINS_11__wrap_iterIPS5_EEEENS_9enable_ifIXaasr21__is_forward_iteratorIT_EE5valuesr16is_constructibleIS5_NS_15iterator_traitsISE_E9referenceEEE5valueEvE4typeESE_SE_
442:__ZN18StreamedBinaryRead21TransferSTLStyleArrayIN4core12basic_stringIcNS1_20StringStorageDefaultIcEEEEEEvRT_17TransferMetaFlags
443:__ZN19StreamedBinaryWrite21TransferSTLStyleArrayIN4core12basic_stringIcNS1_20StringStorageDefaultIcEEEEEEvRT_17TransferMetaFlags
444:__ZNK4PPtrI6ObjectEcvPS0_Ev
445:__ZN13dynamic_arrayItLm0EE21resize_buffer_nocheckEm12ResizePolicy
446:__ZN13dynamic_arrayI8Vector3fLm0EE4growEv
447:__ZN13dynamic_arrayItLm0EE4growEv
448:__ZN13dynamic_arrayI8Vector2fLm0EE21resize_buffer_nocheckEm12ResizePolicy
449:__ZNSt3__227__tree_balance_after_insertIPNS_16__tree_node_baseIPvEEEEvT_S5_
450:__Z18TransformDirection23TransformAccessReadOnlyRKN4math7_float3E
451:__Z24InverseTransformRotationRK23TransformAccessReadOnlyRKN4math7_float4E
452:__Z9SetLocalR15TransformAccessRKN4math7_float4Ey
453:__Z24InverseTransformPosition23TransformAccessReadOnlyRKN4math7_float3E
454:__Z25InverseTransformDirection23TransformAccessReadOnlyRKN4math7_float3Eb
455:__ZN13dynamic_arrayI8Vector2fLm0EEC2Em10MemLabelId
456:__ZNSt3__26vectorIN4core12basic_stringIcNS1_20StringStorageDefaultIcEEEENS_9allocatorIS5_EEE21__push_back_slow_pathIS5_EEvOT_
457:__ZN13dynamic_arrayI8JobFenceLm0EE4growEv
458:__ZNSt3__26vectorIN4core12basic_stringIcNS1_20StringStorageDefaultIcEEEENS_9allocatorIS5_EEE21__push_back_slow_pathIRKS5_EEvOT_
459:__ZN11Marshalling39CreateNullExceptionForUnityEngineObjectE18ScriptingObjectPtr
460:__GLOBAL__sub_I_AndroidJNIScriptingClasses_cpp
461:__ZN9Scripting11UnityEngineL58__ManagedRegistrationHelperFunction__AndroidJNIHelperProxyEPv
462:__ZN9Scripting11UnityEngineL57__ManagedRegistrationHelperFunction_AndroidJNIHelperProxyEPv
463:__ZN9Scripting11UnityEngine21AndroidJNIHelperProxy9InitProxyEv
464:__ZN9Scripting11UnityEngine21AndroidJNIHelperProxy12CleanupProxyEv
465:__ZN9Scripting11UnityEngine22_AndroidJNIHelperProxy9InitProxyEv
466:__ZN9Scripting11UnityEngine22_AndroidJNIHelperProxy12CleanupProxyEv
467:__GLOBAL__sub_I_AnimationScriptingClasses_cpp
468:__GLOBAL__sub_I_Modules_Animation_1_cpp
469:__GLOBAL__sub_I_Modules_Animation_3_cpp
470:__GLOBAL__sub_I_Modules_Animation_6_cpp
471:__GLOBAL__sub_I_Avatar_cpp
472:__GLOBAL__sub_I_ConstraintManager_cpp
473:__GLOBAL__sub_I_AnimationClip_cpp
474:___cxx_global_var_init_364
475:__ZN13dynamic_arrayIN4core12basic_stringIcNS0_20StringStorageDefaultIcEEEELm0EED2Ev
476:__ZN13RuntimeStaticI17ConstraintManagerLb0EE16StaticInitializeEPv
477:__ZN13RuntimeStaticI17ConstraintManagerLb0EE13StaticDestroyEPv
478:__ZN24StaticInitializeInternal13ConstructTypeI17ConstraintManagerLb0EEEPvS2_10MemLabelId
479:__ZZN17ConstraintManager15InitializeClassEvEN47PreLateUpdateConstraintManagerUpdateRegistrator7ForwardEv
480:__ZN17ConstraintManagerD2Ev
481:__ZN17ConstraintManagerD0Ev
482:__ZN17ConstraintManager6UpdateEv
483:__ZN4core8hash_setINS_4pairIKPK10GameObjectiLb0EEENS_9hash_pairINS_4hashIS4_EES5_iEENS_10equal_pairINSt3__28equal_toIS4_EES5_iEEE4growEi
484:__ZN4core8hash_mapIPK10GameObjectiNS_4hashIS3_EENSt3__28equal_toIS3_EEEixERKS3_
485:__ZN4core8hash_setIPN5Unity9ComponentENS_4hashIS3_EENSt3__28equal_toIS3_EEE4growEi
486:__ZL23GetComponentsInChildrenRK10GameObjectPFbRKN5Unity9ComponentEERN4core8hash_setIPS3_NS8_4hashISA_EENSt3__28equal_toISA_EEEE
487:__ZNSt3__26__sortIR23DependencySortPredicatePN4core4pairIiP9BehaviourLb0EEEEEvT0_S9_T_
488:__ZL32GetComponentsInConstraintSourcesRK11IConstraintPFbRKN5Unity9ComponentEERN4core8hash_setIPS3_NS8_4hashISA_EENSt3__28equal_toISA_EEEE
489:__ZN13dynamic_arrayIN4core4pairIiS_IP9BehaviourLm0EELb1EEELm0EED2Ev
490:__ZN13dynamic_arrayIN4math4trsXELm0EE21resize_buffer_nocheckEm12ResizePolicy
491:__ZN13ConstraintJob18ComputeConstraintsEPNS_17ConstraintJobDataEj
492:__ZN13dynamic_arrayIN13ConstraintJob23ConstraintComponentDataELm0EE4growEv
493:__ZN13ConstraintJob23ConstraintComponentDataC2ERKS0_
494:__ZN13dynamic_arrayIN13ConstraintJob23ConstraintComponentDataELm0EED2Ev
495:__Z11SetLocalTRS15TransformAccessRKN4math7_float3ERKNS0_7_float4ES3_y
496:__ZN13ConstraintJob23ConstraintComponentDataC2ERK16LookAtConstraint
497:__ZL21InitConstraintSourcesRK13dynamic_arrayI16ConstraintSourceLm0EERS_I23TransformAccessReadOnlyLm0EERS_IfLm0EE
498:__ZN13ConstraintJob23ConstraintComponentDataC2ERK16ParentConstraint
499:__ZN13ConstraintJob23ConstraintComponentDataC2ERK13AimConstraint
500:__ZN13ConstraintJob23ConstraintComponentDataC2ERK15ScaleConstraint
501:__ZN13ConstraintJob23ConstraintComponentDataC2ERK18RotationConstraint
502:__ZN13ConstraintJob23ConstraintComponentDataC2ERK18PositionConstraint
503:__Z21InverseTransformScale23TransformAccessReadOnlyRKN4math7_float3E
504:__ZN13dynamic_arrayIN4math7affineXELm0EEC2Em10MemLabelId
505:__Z34CalculateGlobalPositionAndRotation23TransformAccessReadOnlyRKN4math7_float3ERKNS0_7_float4E
506:__ZL17quatArcRotateSafeRKN4math7_float3ES2_
507:__ZL22GetComponentsInParentsRK10GameObjectPFbRKN5Unity9ComponentEERN4core8hash_setIPS3_NS8_4hashISA_EENSt3__28equal_toISA_EEEE
508:__ZN4core8hash_setIPN5Unity9ComponentENS_4hashIS3_EENSt3__28equal_toIS3_EEE6insertERKS3_
509:__ZNSt3__27__sort4IR23DependencySortPredicatePN4core4pairIiP9BehaviourLb0EEEEEjT0_S9_S9_S9_T_
510:__ZNSt3__227__insertion_sort_incompleteIR23DependencySortPredicatePN4core4pairIiP9BehaviourLb0EEEEEbT0_S9_T_
511:__ZN13RuntimeStaticI15AnimationBinderLb0EE16StaticInitializeEPv
512:__ZN13RuntimeStaticI15AnimationBinderLb0EE13StaticDestroyEPv
513:__ZN13RuntimeStaticI15AnimationBinderLb0EE7DestroyEv
514:__ZNSt3__26__treeINS_12__value_typeIPKN5Unity4TypeEPK8TypeTreeEENS_19__map_value_compareIS5_S9_NS_4lessIS5_EELb1EEENS_9allocatorIS9_EEE7destroyEPNS_11__tree_nodeIS9_PvEE
515:__ZN24StaticInitializeInternal13ConstructTypeI15AnimationBinderLb0EEEPvS2_10MemLabelId
516:__ZN11UnityEngine9Animation38InitializeGenericAnimationBindingCacheEPv
517:__ZN11UnityEngine9Animation35CleanupGenericAnimationBindingCacheEPv
518:__ZN11UnityEngine9Animation28GenericAnimationBindingCacheD2Ev
519:__ZN11UnityEngine9Animation28GenericAnimationBindingCache15DidReloadDomainE19AssemblyLoadFailure
520:__ZN11UnityEngine9Animation28GenericAnimationBindingCacheC2Ev
521:__ZN9Scripting11UnityEngineL55__ManagedRegistrationHelperFunction_AnimationEventProxyEPv
522:__ZN9Scripting11UnityEngine10AnimationsL54__ManagedRegistrationHelperFunction_AimConstraintProxyEPv
523:__ZN9Scripting11UnityEngine10AnimationsL62__ManagedRegistrationHelperFunction_AnimationClipPlayableProxyEPv
524:__ZN9Scripting11UnityEngine10AnimationsL61__ManagedRegistrationHelperFunction_AnimationHumanStreamProxyEPv
525:__ZN9Scripting11UnityEngine10AnimationsL68__ManagedRegistrationHelperFunction_AnimationLayerMixerPlayableProxyEPv
526:__ZN9Scripting11UnityEngine10AnimationsL63__ManagedRegistrationHelperFunction_AnimationMixerPlayableProxyEPv
527:__ZN9Scripting11UnityEngine10AnimationsL72__ManagedRegistrationHelperFunction_AnimationMotionXToDeltaPlayableProxyEPv
528:__ZN9Scripting11UnityEngine10AnimationsL64__ManagedRegistrationHelperFunction_AnimationOffsetPlayableProxyEPv
529:__ZN9Scripting11UnityEngine10AnimationsL64__ManagedRegistrationHelperFunction_AnimationPlayableOutputProxyEPv
530:__ZN9Scripting11UnityEngine10AnimationsL62__ManagedRegistrationHelperFunction_AnimationPosePlayableProxyEPv
531:__ZN9Scripting11UnityEngine10AnimationsL69__ManagedRegistrationHelperFunction_AnimationRemoveScalePlayableProxyEPv
532:__ZN9Scripting11UnityEngine10AnimationsL64__ManagedRegistrationHelperFunction_AnimationScriptPlayableProxyEPv
533:__ZN9Scripting11UnityEngine10AnimationsL56__ManagedRegistrationHelperFunction_AnimationStreamProxyEPv
534:__ZN9Scripting11UnityEngine10AnimationsL67__ManagedRegistrationHelperFunction_AnimatorControllerPlayableProxyEPv
535:__ZN9Scripting11UnityEngine10AnimationsL57__ManagedRegistrationHelperFunction_ConstraintSourceProxyEPv
536:__ZN9Scripting11UnityEngine10AnimationsL57__ManagedRegistrationHelperFunction_LookAtConstraintProxyEPv
537:__ZN9Scripting11UnityEngine10AnimationsL60__ManagedRegistrationHelperFunction_NotKeyableAttributeProxyEPv
538:__ZN9Scripting11UnityEngine10AnimationsL57__ManagedRegistrationHelperFunction_ParentConstraintProxyEPv
539:__ZN9Scripting11UnityEngine10AnimationsL59__ManagedRegistrationHelperFunction_PositionConstraintProxyEPv
540:__ZN9Scripting11UnityEngine10AnimationsL59__ManagedRegistrationHelperFunction_RotationConstraintProxyEPv
541:__ZN9Scripting11UnityEngine10AnimationsL56__ManagedRegistrationHelperFunction_ScaleConstraintProxyEPv
542:__ZN9Scripting11UnityEngineL55__ManagedRegistrationHelperFunction_AnimationStateProxyEPv
543:__ZN9Scripting11UnityEngineL49__ManagedRegistrationHelperFunction_AnimatorProxyEPv
544:__ZN9Scripting11UnityEngineL57__ManagedRegistrationHelperFunction_AnimatorClipInfoProxyEPv
545:__ZN9Scripting11UnityEngineL68__ManagedRegistrationHelperFunction_AnimatorControllerParameterProxyEPv
546:__ZN9Scripting11UnityEngineL66__ManagedRegistrationHelperFunction_RuntimeAnimatorControllerProxyEPv
547:__ZN9Scripting11UnityEngineL67__ManagedRegistrationHelperFunction_AnimatorOverrideControllerProxyEPv
548:__ZN9Scripting11UnityEngineL58__ManagedRegistrationHelperFunction_AnimatorStateInfoProxyEPv
549:__ZN9Scripting11UnityEngineL63__ManagedRegistrationHelperFunction_AnimatorTransitionInfoProxyEPv
550:__ZN9Scripting11UnityEngineL47__ManagedRegistrationHelperFunction_AvatarProxyEPv
551:__ZN9Scripting11UnityEngineL51__ManagedRegistrationHelperFunction_AvatarMaskProxyEPv
552:__ZN9Scripting11UnityEngineL50__ManagedRegistrationHelperFunction_HumanBoneProxyEPv
553:__ZN9Scripting11UnityEngineL72__ManagedRegistrationHelperFunction_SharedBetweenAnimatorsAttributeProxyEPv
554:__ZN9Scripting11UnityEngineL53__ManagedRegistrationHelperFunction_SkeletonBoneProxyEPv
555:__ZN9Scripting11UnityEngineL62__ManagedRegistrationHelperFunction_StateMachineBehaviourProxyEPv
556:__ZN9Scripting11UnityEngine26StateMachineBehaviourProxy9InitProxyEv
557:__ZN9Scripting11UnityEngine26StateMachineBehaviourProxy12CleanupProxyEv
558:__ZN9Scripting11UnityEngine17SkeletonBoneProxy9InitProxyEv
559:__ZN9Scripting11UnityEngine17SkeletonBoneProxy12CleanupProxyEv
560:__ZN9Scripting11UnityEngine36SharedBetweenAnimatorsAttributeProxy9InitProxyEv
561:__ZN9Scripting11UnityEngine36SharedBetweenAnimatorsAttributeProxy12CleanupProxyEv
562:__ZN9Scripting11UnityEngine14HumanBoneProxy9InitProxyEv
563:__ZN9Scripting11UnityEngine14HumanBoneProxy12CleanupProxyEv
564:__ZN9Scripting11UnityEngine15AvatarMaskProxy9InitProxyEv
565:__ZN9Scripting11UnityEngine15AvatarMaskProxy12CleanupProxyEv
566:__ZN9Scripting11UnityEngine11AvatarProxy9InitProxyEv
567:__ZN9Scripting11UnityEngine11AvatarProxy12CleanupProxyEv
568:__ZN9Scripting11UnityEngine27AnimatorTransitionInfoProxy9InitProxyEv
569:__ZN9Scripting11UnityEngine27AnimatorTransitionInfoProxy12CleanupProxyEv
570:__ZN9Scripting11UnityEngine22AnimatorStateInfoProxy9InitProxyEv
571:__ZN9Scripting11UnityEngine22AnimatorStateInfoProxy12CleanupProxyEv
572:__ZN9Scripting11UnityEngine31AnimatorOverrideControllerProxy9InitProxyEv
573:__ZN9Scripting11UnityEngine31AnimatorOverrideControllerProxy12CleanupProxyEv
574:__ZN9Scripting11UnityEngine30RuntimeAnimatorControllerProxy9InitProxyEv
575:__ZN9Scripting11UnityEngine30RuntimeAnimatorControllerProxy12CleanupProxyEv
576:__ZN9Scripting11UnityEngine32AnimatorControllerParameterProxy9InitProxyEv
577:__ZN9Scripting11UnityEngine32AnimatorControllerParameterProxy12CleanupProxyEv
578:__ZN9Scripting11UnityEngine21AnimatorClipInfoProxy9InitProxyEv
579:__ZN9Scripting11UnityEngine21AnimatorClipInfoProxy12CleanupProxyEv
580:__ZN9Scripting11UnityEngine13AnimatorProxy9InitProxyEv
581:__ZN9Scripting11UnityEngine13AnimatorProxy12CleanupProxyEv
582:__ZN9Scripting11UnityEngine19AnimationStateProxy9InitProxyEv
583:__ZN9Scripting11UnityEngine19AnimationStateProxy12CleanupProxyEv
584:__ZN9Scripting11UnityEngine10Animations20ScaleConstraintProxy9InitProxyEv
585:__ZN9Scripting11UnityEngine10Animations20ScaleConstraintProxy12CleanupProxyEv
586:__ZN9Scripting11UnityEngine10Animations23RotationConstraintProxy9InitProxyEv
587:__ZN9Scripting11UnityEngine10Animations23RotationConstraintProxy12CleanupProxyEv
588:__ZN9Scripting11UnityEngine10Animations23PositionConstraintProxy9InitProxyEv
589:__ZN9Scripting11UnityEngine10Animations23PositionConstraintProxy12CleanupProxyEv
590:__ZN9Scripting11UnityEngine10Animations21ParentConstraintProxy9InitProxyEv
591:__ZN9Scripting11UnityEngine10Animations21ParentConstraintProxy12CleanupProxyEv
592:__ZN9Scripting11UnityEngine10Animations24NotKeyableAttributeProxy9InitProxyEv
593:__ZN9Scripting11UnityEngine10Animations24NotKeyableAttributeProxy12CleanupProxyEv
594:__ZN9Scripting11UnityEngine10Animations21LookAtConstraintProxy9InitProxyEv
595:__ZN9Scripting11UnityEngine10Animations21LookAtConstraintProxy12CleanupProxyEv
596:__ZN9Scripting11UnityEngine10Animations21ConstraintSourceProxy9InitProxyEv
597:__ZN9Scripting11UnityEngine10Animations21ConstraintSourceProxy12CleanupProxyEv
598:__ZN9Scripting11UnityEngine10Animations31AnimatorControllerPlayableProxy9InitProxyEv
599:__ZN9Scripting11UnityEngine10Animations31AnimatorControllerPlayableProxy12CleanupProxyEv
600:__ZN9Scripting11UnityEngine10Animations20AnimationStreamProxy9InitProxyEv
601:__ZN9Scripting11UnityEngine10Animations20AnimationStreamProxy12CleanupProxyEv
602:__ZN9Scripting11UnityEngine10Animations28AnimationScriptPlayableProxy9InitProxyEv
603:__ZN9Scripting11UnityEngine10Animations28AnimationScriptPlayableProxy12CleanupProxyEv
604:__ZN9Scripting11UnityEngine10Animations33AnimationRemoveScalePlayableProxy9InitProxyEv
605:__ZN9Scripting11UnityEngine10Animations33AnimationRemoveScalePlayableProxy12CleanupProxyEv
606:__ZN9Scripting11UnityEngine10Animations26AnimationPosePlayableProxy9InitProxyEv
607:__ZN9Scripting11UnityEngine10Animations26AnimationPosePlayableProxy12CleanupProxyEv
608:__ZN9Scripting11UnityEngine10Animations28AnimationPlayableOutputProxy9InitProxyEv
609:__ZN9Scripting11UnityEngine10Animations28AnimationPlayableOutputProxy12CleanupProxyEv
610:__ZN9Scripting11UnityEngine10Animations28AnimationOffsetPlayableProxy9InitProxyEv
611:__ZN9Scripting11UnityEngine10Animations28AnimationOffsetPlayableProxy12CleanupProxyEv
612:__ZN9Scripting11UnityEngine10Animations36AnimationMotionXToDeltaPlayableProxy9InitProxyEv
613:__ZN9Scripting11UnityEngine10Animations36AnimationMotionXToDeltaPlayableProxy12CleanupProxyEv
614:__ZN9Scripting11UnityEngine10Animations27AnimationMixerPlayableProxy9InitProxyEv
615:__ZN9Scripting11UnityEngine10Animations27AnimationMixerPlayableProxy12CleanupProxyEv
616:__ZN9Scripting11UnityEngine10Animations32AnimationLayerMixerPlayableProxy9InitProxyEv
617:__ZN9Scripting11UnityEngine10Animations32AnimationLayerMixerPlayableProxy12CleanupProxyEv
618:__ZN9Scripting11UnityEngine10Animations25AnimationHumanStreamProxy9InitProxyEv
619:__ZN9Scripting11UnityEngine10Animations25AnimationHumanStreamProxy12CleanupProxyEv
620:__ZN9Scripting11UnityEngine10Animations26AnimationClipPlayableProxy9InitProxyEv
621:__ZN9Scripting11UnityEngine10Animations26AnimationClipPlayableProxy12CleanupProxyEv
622:__ZN9Scripting11UnityEngine10Animations18AimConstraintProxy9InitProxyEv
623:__ZN9Scripting11UnityEngine10Animations18AimConstraintProxy12CleanupProxyEv
624:__ZN9Scripting11UnityEngine19AnimationEventProxy9InitProxyEv
625:__ZN9Scripting11UnityEngine19AnimationEventProxy12CleanupProxyEv
626:__ZN4core12basic_stringIcNS_20StringStorageDefaultIcEEEaSERKS3_
627:__ZN4core12basic_stringIcNS_20StringStorageDefaultIcEEE6assignERKS3_
628:__ZN4core12basic_stringIcNS_20StringStorageDefaultIcEEED2Ev
629:__ZN4core20StringStorageDefaultIcED2Ev
630:__Z14CreateMemLabel18MemLabelIdentifieri
631:__ZN20dynamic_array_detail18dynamic_array_dataC2E10MemLabelId
632:__ZNK4core12basic_stringIcNS_20StringStorageDefaultIcEEE16get_memory_labelEv
633:__ZN4core20StringStorageDefaultIcEC2E10MemLabelId
634:__ZNK4core20StringStorageDefaultIcE16get_memory_labelEv
635:__ZNK13dynamic_arrayI11KeyframeTplIfELm0EE8capacityEv
636:__ZN13dynamic_arrayI11KeyframeTplIfELm0EE21resize_buffer_nocheckEm12ResizePolicy
637:__ZNK4core12basic_stringIcNS_20StringStorageDefaultIcEEE5c_strEv
638:__ZN4coreplEPKcRKNS_12basic_stringIcNS_20StringStorageDefaultIcEEEE
639:__ZN4coreplERKNS_12basic_stringIcNS_20StringStorageDefaultIcEEEEPKc
640:__Z17DebugStringToFileIN4core12basic_stringIcNS0_20StringStorageDefaultIcEEEEEvRKT_PKcii15LogMessageFlagsiiPFvRK11CppLogEntryE
641:__ZnwmPv20non_null_placement_t
642:__ZN21DebugStringToFileDataC2Ev
643:__ZN12StringTraits13AsConstTCharsIcN4core20StringStorageDefaultIcEEEEPKT_RKNS1_12basic_stringIS4_T0_EE
644:__ZN4core12basic_stringIcNS_20StringStorageDefaultIcEEEC2E10MemLabelId
645:__ZNSt3__211char_traitsIcE6lengthEPKc
646:__ZNK4core12basic_stringIcNS_20StringStorageDefaultIcEEE6lengthEv
647:__ZN4core12basic_stringIcNS_20StringStorageDefaultIcEEE7reserveEm
648:__ZN4core12basic_stringIcNS_20StringStorageDefaultIcEEE6assignEPKcm
649:__ZN4core12basic_stringIcNS_20StringStorageDefaultIcEEE6appendERKS3_
650:__ZN4core12basic_stringIcNS_20StringStorageDefaultIcEEE6appendEPKcm
651:__ZN4core20StringStorageDefaultIcE6appendEPKcm
652:__ZN4core20StringStorageDefaultIcE8get_dataEv
653:__ZN4core20StringStorageDefaultIcE6resizeEmb
654:__ZNK4core20StringStorageDefaultIcE8capacityEv
655:__ZN4core20StringStorageDefaultIcE6assignEPKcm
656:__ZNK4core20StringStorageDefaultIcE9owns_dataEv
657:__ZN4core20StringStorageDefaultIcE7reserveEm
658:__ZN13dynamic_arrayI4PPtrI6ObjectELm0EE9owns_dataEv
659:__ZN13dynamic_arrayI4PPtrI6ObjectELm0EE10deallocateEv
660:__ZN20dynamic_array_detail18dynamic_array_data18set_capacity_ownedEm
661:__Z9MagnitudeRK8Vector3f
662:__Z3DotRK8Vector3fS1_
663:__Z8SqrtImplf
664:__ZN8Vector3fC2ERKS_
665:__Zan24TransferInstructionFlagsS_
666:__ZN14SafeBinaryRead8TransferIfEEvRT_PKc17TransferMetaFlags
667:__ZN14SafeBinaryRead8TransferIiEEvRT_PKc17TransferMetaFlags
668:__ZNK16TypeTreeIteratorptEv
669:__ZN14SafeBinaryRead21TransferSTLStyleArrayI13dynamic_arrayI4PPtrI6ObjectELm0EEEEvRT_17TransferMetaFlags
670:__ZN15SerializeTraitsI13dynamic_arrayI4PPtrI6ObjectELm0EEE19ResizeSTLStyleArrayERS4_i
671:__ZN13dynamic_arrayI4PPtrI6ObjectELm0EE3endEv
672:__ZN13dynamic_arrayI4PPtrI6ObjectELm0EE5beginEv
673:__ZN15SerializeTraitsI4PPtrI6ObjectEE8TransferI14SafeBinaryReadEEvRS2_RT_
674:__ZN14SafeBinaryRead8TransferI4PPtrI6ObjectEEEvRT_PKc17TransferMetaFlags
675:__ZN14SafeBinaryRead22TransferWithTypeStringI4PPtrI6ObjectEEEvRT_PKcS7_17TransferMetaFlags
676:__ZN4PPtrI6ObjectE8TransferI14SafeBinaryReadEEvRT_
677:__ZN13dynamic_arrayI4PPtrI6ObjectELm0EE18resize_initializedEm12ResizePolicy
678:__ZN13dynamic_arrayI4PPtrI6ObjectELm0EE21resize_buffer_nocheckEm12ResizePolicy
679:__Z29default_construct_n_autolabelI4PPtrI6ObjectEEvPT_m10MemLabelId
680:__Z27default_construct_autolabelI4PPtrI6ObjectEEvPT_10MemLabelId
681:__ZN15AllocatorTraitsI4PPtrI6ObjectELb0EE9ConstructEPS2_10MemLabelId
682:__ZN14SafeBinaryRead8TransferIjEEvRT_PKc17TransferMetaFlags
683:__ZN14SafeBinaryRead8TransferIhEEvRT_PKc17TransferMetaFlags
684:__ZN14SafeBinaryRead22TransferWithTypeStringIhEEvRT_PKcS4_17TransferMetaFlags
685:__ZN31SerializeTraitsBaseForBasicTypeIhE8TransferI14SafeBinaryReadEEvRhRT_
686:__ZN14SafeBinaryRead17TransferBasicDataIhEEvRT_
687:__ZN12CachedReader4ReadIhEEvRT_m
688:__ZN14SafeBinaryRead16ConvertEndianessEv
689:__ZN14SafeBinaryRead17TransferBasicDataIiEEvRT_
690:__ZN12CachedReader4ReadIiEEvRT_m
691:__Z15SwapEndianBytesRj
692:__ZN31SerializeTraitsBaseForBasicTypeIiE8TransferI14SafeBinaryReadEEvRiRT_
693:__ZN31SerializeTraitsBaseForBasicTypeIfE8TransferI14SafeBinaryReadEEvRfRT_
694:__ZN14SafeBinaryRead17TransferBasicDataIfEEvRT_
695:__ZN12CachedReader4ReadIfEEvRT_m
696:__Z15SwapEndianBytesRf
697:__ZN14SafeBinaryRead22TransferWithTypeStringIiEEvRT_PKcS4_17TransferMetaFlags
698:__ZN14SafeBinaryRead22TransferWithTypeStringIfEEvRT_PKcS4_17TransferMetaFlags
699:__ZN17AnimationCurveTplIfE8TransferI14SafeBinaryReadEEvRT_
700:__ZN14SafeBinaryRead8TransferI13dynamic_arrayI11KeyframeTplIfELm0EEEEvRT_PKc17TransferMetaFlags
701:__Z32TransferEnumWithNameForceIntSizeI14SafeBinaryRead16InternalWrapModeEvRT_RT0_PKc17TransferMetaFlags
702:__ZN10EnumTraits5ToIntIN4math13RotationOrderEEEiT_
703:__ZN14SafeBinaryRead22TransferWithTypeStringI13dynamic_arrayI11KeyframeTplIfELm0EEEEvRT_PKcS8_17TransferMetaFlags
704:__ZN15SerializeTraitsI13dynamic_arrayI11KeyframeTplIfELm0EEE8TransferI14SafeBinaryReadEEvRS3_RT_
705:__ZN14SafeBinaryRead21TransferSTLStyleArrayI13dynamic_arrayI11KeyframeTplIfELm0EEEEvRT_17TransferMetaFlags
706:__ZN15SerializeTraitsI13dynamic_arrayI11KeyframeTplIfELm0EEE19ResizeSTLStyleArrayERS3_i
707:__ZN13dynamic_arrayI11KeyframeTplIfELm0EE3endEv
708:__ZN15SerializeTraitsI11KeyframeTplIfEE8TransferI14SafeBinaryReadEEvRS1_RT_
709:__ZN14SafeBinaryRead8TransferI11KeyframeTplIfEEEvRT_PKc17TransferMetaFlags
710:__ZN14SafeBinaryRead22TransferWithTypeStringI11KeyframeTplIfEEEvRT_PKcS6_17TransferMetaFlags
711:__ZN11KeyframeTplIfE8TransferI14SafeBinaryReadEEvRT_
712:__ZN13dynamic_arrayI11KeyframeTplIfELm0EE18resize_initializedEm12ResizePolicy
713:__Z29default_construct_n_autolabelI11KeyframeTplIfEEvPT_m10MemLabelId
714:__Z27default_construct_autolabelI11KeyframeTplIfEEvPT_10MemLabelId
715:__ZN15AllocatorTraitsI11KeyframeTplIfELb0EE9ConstructEPS1_10MemLabelId
716:__ZN11KeyframeTplIfEC2Ev
717:__ZN8Vector3fC2Efff
718:__ZN17PackedFloatVector8TransferI14SafeBinaryReadEEvRT_
719:__ZN14SafeBinaryRead8TransferI13dynamic_arrayIhLm0EEEEvRT_PKc17TransferMetaFlags
720:__ZN14SafeBinaryRead22TransferWithTypeStringI13dynamic_arrayIhLm0EEEEvRT_PKcS6_17TransferMetaFlags
721:__ZN15SerializeTraitsI13dynamic_arrayIhLm0EEE8TransferI14SafeBinaryReadEEvRS1_RT_
722:__ZN15PackedIntVector8TransferI14SafeBinaryReadEEvRT_
723:__ZN24GenerateTypeTreeTransfer8TransferIfEEvRT_PKc17TransferMetaFlags
724:__ZN24GenerateTypeTreeTransfer8TransferIiEEvRT_PKc17TransferMetaFlags
725:__ZNK16TypeTreeIterator15GetWritableNodeER8TypeTree
726:__ZNK21TypeTreeShareableData11GetWritableEm
727:__ZNK13dynamic_arrayI12TypeTreeNodeLm0EEixEm
728:__ZN24GenerateTypeTreeTransfer8TransferIjEEvRT_PKc17TransferMetaFlags
729:__ZN24GenerateTypeTreeTransfer8TransferIhEEvRT_PKc17TransferMetaFlags
730:__ZN31SerializeTraitsBaseForBasicTypeIhE8TransferI24GenerateTypeTreeTransferEEvRhRT_
731:__ZN24GenerateTypeTreeTransfer17TransferBasicDataIhEEvRT_
732:__ZN24GenerateTypeTreeTransfer17TransferBasicDataIiEEvRT_
733:__ZN31SerializeTraitsBaseForBasicTypeIjE8TransferI24GenerateTypeTreeTransferEEvRjRT_
734:__ZN29SerializeTraitsForStringTypesIN4core12basic_stringIcNS0_20StringStorageDefaultIcEEEEE8TransferI24GenerateTypeTreeTransferEEvRS4_RT_
735:__ZN24GenerateTypeTreeTransfer21TransferSTLStyleArrayIN4core12basic_stringIcNS1_20StringStorageDefaultIcEEEEEEvRT_17TransferMetaFlags
736:__Z27default_construct_autolabelIcEvPT_10MemLabelId
737:__ZN24GenerateTypeTreeTransfer32TransferSTLStyleArrayWithElementIcEEvRT_17TransferMetaFlags
738:__ZN24GenerateTypeTreeTransfer8TransferIcEEvRT_PKc17TransferMetaFlags
739:__ZN15AllocatorTraitsIcLb0EE9ConstructEPc10MemLabelId
740:__ZN17AnimationCurveTplIfE8TransferI24GenerateTypeTreeTransferEEvRT_
741:__ZN24GenerateTypeTreeTransfer8TransferI13dynamic_arrayI11KeyframeTplIfELm0EEEEvRT_PKc17TransferMetaFlags
742:__Z32TransferEnumWithNameForceIntSizeI24GenerateTypeTreeTransfer16InternalWrapModeEvRT_RT0_PKc17TransferMetaFlags
743:__ZN15SerializeTraitsI13dynamic_arrayI11KeyframeTplIfELm0EEE8TransferI24GenerateTypeTreeTransferEEvRS3_RT_
744:__ZN24GenerateTypeTreeTransfer21TransferSTLStyleArrayI13dynamic_arrayI11KeyframeTplIfELm0EEEEvRT_17TransferMetaFlags
745:__ZN24GenerateTypeTreeTransfer32TransferSTLStyleArrayWithElementI11KeyframeTplIfEEEvRT_17TransferMetaFlags
746:__ZN24GenerateTypeTreeTransfer8TransferI11KeyframeTplIfEEEvRT_PKc17TransferMetaFlags
747:__ZN15SerializeTraitsI11KeyframeTplIfEE8TransferI24GenerateTypeTreeTransferEEvRS1_RT_
748:__ZN11KeyframeTplIfE8TransferI24GenerateTypeTreeTransferEEvRT_
749:__ZN24GenerateTypeTreeTransfer8TransferI15PackedIntVectorEEvRT_PKc17TransferMetaFlags
750:__ZN17PackedFloatVector8TransferI24GenerateTypeTreeTransferEEvRT_
751:__ZN24GenerateTypeTreeTransfer8TransferI13dynamic_arrayIhLm0EEEEvRT_PKc17TransferMetaFlags
752:__ZN15SerializeTraitsI13dynamic_arrayIhLm0EEE8TransferI24GenerateTypeTreeTransferEEvRS1_RT_
753:__ZN24GenerateTypeTreeTransfer21TransferSTLStyleArrayI13dynamic_arrayIhLm0EEEEvRT_17TransferMetaFlags
754:__ZN24GenerateTypeTreeTransfer32TransferSTLStyleArrayWithElementIhEEvRT_17TransferMetaFlags
755:__ZN15SerializeTraitsI15PackedIntVectorE8TransferI24GenerateTypeTreeTransferEEvRS0_RT_
756:__ZN15PackedIntVector8TransferI24GenerateTypeTreeTransferEEvRT_
757:__ZN13dynamic_arrayIhLm0EE3endEv
758:__ZN18StreamedBinaryRead8TransferIfEEvRT_PKc17TransferMetaFlags
759:__ZN18StreamedBinaryRead8TransferIiEEvRT_PKc17TransferMetaFlags
760:__ZN18StreamedBinaryRead21TransferSTLStyleArrayI13dynamic_arrayI4PPtrI6ObjectELm0EEEEvRT_17TransferMetaFlags
761:__ZN18StreamedBinaryRead8TransferI4PPtrI6ObjectEEEvRT_PKc17TransferMetaFlags
762:__ZN15SerializeTraitsI4PPtrI6ObjectEE8TransferI18StreamedBinaryReadEEvRS2_RT_
763:__ZN4PPtrI6ObjectE8TransferI18StreamedBinaryReadEEvRT_
764:__ZN18StreamedBinaryRead8TransferIhEEvRT_PKc17TransferMetaFlags
765:__ZN31SerializeTraitsBaseForBasicTypeIhE8TransferI18StreamedBinaryReadEEvRhRT_
766:__ZN18StreamedBinaryRead17TransferBasicDataIhEEvRT_
767:__ZN12CachedReader4ReadIhEEvRT_
768:__ZN18StreamedBinaryRead17TransferBasicDataIiEEvRT_
769:__ZN12CachedReader4ReadIiEEvRT_
770:__ZN31SerializeTraitsBaseForBasicTypeIjE8TransferI18StreamedBinaryReadEEvRjRT_
771:__ZN31SerializeTraitsBaseForBasicTypeIfE8TransferI18StreamedBinaryReadEEvRfRT_
772:__ZN18StreamedBinaryRead17TransferBasicDataIfEEvRT_
773:__ZN12CachedReader4ReadIfEEvRT_
774:__ZN17AnimationCurveTplIfE8TransferI18StreamedBinaryReadEEvRT_
775:__ZN18StreamedBinaryRead8TransferI13dynamic_arrayI11KeyframeTplIfELm0EEEEvRT_PKc17TransferMetaFlags
776:__Z32TransferEnumWithNameForceIntSizeI18StreamedBinaryRead16InternalWrapModeEvRT_RT0_PKc17TransferMetaFlags
777:__ZN15SerializeTraitsI13dynamic_arrayI11KeyframeTplIfELm0EEE8TransferI18StreamedBinaryReadEEvRS3_RT_
778:__ZN18StreamedBinaryRead21TransferSTLStyleArrayI13dynamic_arrayI11KeyframeTplIfELm0EEEEvRT_17TransferMetaFlags
779:__ZN17PackedFloatVector8TransferI18StreamedBinaryReadEEvRT_
780:__ZN19StreamedBinaryWrite8TransferIfEEvRT_PKc17TransferMetaFlags
781:__ZN19StreamedBinaryWrite8TransferIiEEvRT_PKc17TransferMetaFlags
782:__ZN19StreamedBinaryWrite8TransferIhEEvRT_PKc17TransferMetaFlags
783:__ZN31SerializeTraitsBaseForBasicTypeIhE8TransferI19StreamedBinaryWriteEEvRhRT_
784:__ZN19StreamedBinaryWrite17TransferBasicDataIhEEvRT_
785:__ZN12CachedWriter5WriteIhEEvRKT_
786:__ZN19StreamedBinaryWrite17TransferBasicDataIiEEvRT_
787:__ZN12CachedWriter5WriteIiEEvRKT_
788:__ZN31SerializeTraitsBaseForBasicTypeIjE8TransferI19StreamedBinaryWriteEEvRjRT_
789:__ZN31SerializeTraitsBaseForBasicTypeIfE8TransferI19StreamedBinaryWriteEEvRfRT_
790:__ZN19StreamedBinaryWrite17TransferBasicDataIfEEvRT_
791:__ZN12CachedWriter5WriteIfEEvRKT_
792:__ZN17AnimationCurveTplIfE8TransferI19StreamedBinaryWriteEEvRT_
793:__ZN19StreamedBinaryWrite8TransferI13dynamic_arrayI11KeyframeTplIfELm0EEEEvRT_PKc17TransferMetaFlags
794:__Z32TransferEnumWithNameForceIntSizeI19StreamedBinaryWrite16InternalWrapModeEvRT_RT0_PKc17TransferMetaFlags
795:__ZN15SerializeTraitsI13dynamic_arrayI11KeyframeTplIfELm0EEE8TransferI19StreamedBinaryWriteEEvRS3_RT_
796:__ZN19StreamedBinaryWrite21TransferSTLStyleArrayI13dynamic_arrayI11KeyframeTplIfELm0EEEEvRT_17TransferMetaFlags
797:__ZN19StreamedBinaryWrite8TransferI11KeyframeTplIfEEEvRT_PKc17TransferMetaFlags
798:__ZN15SerializeTraitsI11KeyframeTplIfEE8TransferI19StreamedBinaryWriteEEvRS1_RT_
799:__ZN11KeyframeTplIfE8TransferI19StreamedBinaryWriteEEvRT_
800:__ZN17PackedFloatVector8TransferI19StreamedBinaryWriteEEvRT_
801:__ZN19StreamedBinaryWrite8TransferI13dynamic_arrayIhLm0EEEEvRT_PKc17TransferMetaFlags
802:__ZN15SerializeTraitsI13dynamic_arrayIhLm0EEE8TransferI19StreamedBinaryWriteEEvRS1_RT_
803:__ZN19StreamedBinaryWrite21TransferSTLStyleArrayI13dynamic_arrayIhLm0EEEEvRT_17TransferMetaFlags
804:__ZN15PackedIntVector8TransferI19StreamedBinaryWriteEEvRT_
805:__ZN13dynamic_arrayI4PPtrI6ObjectELm0EED2Ev
806:__ZN13dynamic_arrayIN4core12basic_stringIcNS0_20StringStorageDefaultIcEEEELm0EE4growEv
807:__ZN14SafeBinaryRead21TransferSTLStyleArrayI13dynamic_arrayIjLm0EEEEvRT_17TransferMetaFlags
808:__ZN13dynamic_arrayIjLm0EEC2EmRKj10MemLabelId
809:__ZN8Vector2f8TransferI14SafeBinaryReadEEvRT_
810:__ZNK17IAnimationBinding38SerializedPropertyPathToCurveAttributeER6ObjectPKc
811:__ZNK17IAnimationBinding30CurveAttributeToSerializedPathERKN11UnityEngine9Animation10BoundCurveE
812:__ZNSt3__26vectorIiNS_9allocatorIiEEE6insertENS_11__wrap_iterIPKiEERS5_
813:__ZN4coreplERKNS_12basic_stringIcNS_20StringStorageDefaultIcEEEES5_
814:__ZNSt3__26vectorIN4core12basic_stringIcNS1_20StringStorageDefaultIcEEEE13stl_allocatorIS5_L18MemLabelIdentifier1ELi16EEE21__push_back_slow_pathIS5_EEvOT_
815:__ZN11Marshalling16StringMarshallerD2Ev
816:__GLOBAL__sub_I_AssetBundleScriptingClasses_cpp
817:__GLOBAL__sub_I_Modules_AssetBundle_Public_0_cpp
818:__ZN13RuntimeStaticI18AssetBundleManagerLb1EE16StaticInitializeEPv
819:__ZN13RuntimeStaticI18AssetBundleManagerLb1EE13StaticDestroyEPv
820:__ZN18AssetBundleManagerD2Ev
821:__ZN24StaticInitializeInternal13ConstructTypeI18AssetBundleManagerLb1EEEPvS2_10MemLabelId
822:__ZN9Scripting11UnityEngineL65__ManagedRegistrationHelperFunction_AssetBundleCreateRequestProxyEPv
823:__ZN9Scripting11UnityEngineL71__ManagedRegistrationHelperFunction_AssetBundleRecompressOperationProxyEPv
824:__ZN9Scripting11UnityEngineL59__ManagedRegistrationHelperFunction_AssetBundleRequestProxyEPv
825:__ZN9Scripting11UnityEngineL57__ManagedRegistrationHelperFunction_BuildCompressionProxyEPv
826:__ZN9Scripting11UnityEngine21BuildCompressionProxy9InitProxyEv
827:__ZN9Scripting11UnityEngine21BuildCompressionProxy12CleanupProxyEv
828:__ZN9Scripting11UnityEngine23AssetBundleRequestProxy9InitProxyEv
829:__ZN9Scripting11UnityEngine23AssetBundleRequestProxy12CleanupProxyEv
830:__ZN9Scripting11UnityEngine35AssetBundleRecompressOperationProxy9InitProxyEv
831:__ZN9Scripting11UnityEngine35AssetBundleRecompressOperationProxy12CleanupProxyEv
832:__ZN9Scripting11UnityEngine29AssetBundleCreateRequestProxy9InitProxyEv
833:__ZN9Scripting11UnityEngine29AssetBundleCreateRequestProxy12CleanupProxyEv
834:__ZN23PreloadManagerOperation11GetPriorityEv
835:__ZN23PreloadManagerOperation14SetFinalTimingEffff
836:__ZN23PreloadManagerOperation19IntegrateTimeSlicedEi
837:__ZN23PreloadManagerOperation12GetDebugNameEv
838:__Z7ToLowerIN4core12basic_stringIcNS0_20StringStorageDefaultIcEEEEET_RKS5_
839:__ZN14SafeBinaryRead21TransferSTLStyleArrayINSt3__26vectorI14ConstantStringNS1_9allocatorIS3_EEEEEEvRT_17TransferMetaFlags
840:__Z14resize_trimmedINSt3__26vectorI14ConstantStringNS0_9allocatorIS2_EEEEEvRT_j
841:__ZNSt3__26vectorI14ConstantStringNS_9allocatorIS1_EEE6assignINS_11__wrap_iterIPS1_EEEENS_9enable_ifIXaasr21__is_forward_iteratorIT_EE5valuesr16is_constructibleIS1_NS_15iterator_traitsISA_E9referenceEEE5valueEvE4typeESA_SA_
842:__ZNSt3__26vectorI14ConstantStringNS_9allocatorIS1_EEE8__appendEm
843:__ZN15SerializeTraitsINSt3__24pairIN4core12basic_stringIcNS2_20StringStorageDefaultIcEEEE4PPtrI6ObjectEEEE8TransferI14SafeBinaryReadEEvRSA_RT_
844:__ZN18StreamedBinaryRead21TransferSTLStyleArrayINSt3__26vectorI14ConstantStringNS1_9allocatorIS3_EEEEEEvRT_17TransferMetaFlags
845:__ZN19StreamedBinaryWrite21TransferSTLStyleArrayINSt3__26vectorI14ConstantStringNS1_9allocatorIS3_EEEEEEvRT_17TransferMetaFlags
846:__ZN23PreloadManagerOperation11SetPriorityEi
847:__ZN27TimeSliceAwakeFromLoadQueueD2Ev
848:__ZN4core8hash_mapIiiNS_4hashIiEENSt3__28equal_toIiEEE6insertERKiS8_
849:__ZNSt3__26__sortIRNS_6__lessIN4core12basic_stringIcNS2_20StringStorageDefaultIcEEEES6_EEPS6_EEvT0_SA_T_
850:__ZNSt3__27__sort3IRNS_6__lessIN4core12basic_stringIcNS2_20StringStorageDefaultIcEEEES6_EEPS6_EEjT0_SA_SA_T_
851:__ZNSt3__27__sort4IRNS_6__lessIN4core12basic_stringIcNS2_20StringStorageDefaultIcEEEES6_EEPS6_EEjT0_SA_SA_SA_T_
852:__ZNSt3__27__sort5IRNS_6__lessIN4core12basic_stringIcNS2_20StringStorageDefaultIcEEEES6_EEPS6_EEjT0_SA_SA_SA_SA_T_
853:__ZNSt3__218__insertion_sort_3IRNS_6__lessIN4core12basic_stringIcNS2_20StringStorageDefaultIcEEEES6_EEPS6_EEvT0_SA_T_
854:__ZNSt3__227__insertion_sort_incompleteIRNS_6__lessIN4core12basic_stringIcNS2_20StringStorageDefaultIcEEEES6_EEPS6_EEbT0_SA_T_
855:__ZNSt3__26__treeIiNS_4lessIiEENS_9allocatorIiEEE7destroyEPNS_11__tree_nodeIiPvEE
856:__GLOBAL__sub_I_AudioScriptingClasses_cpp
857:__GLOBAL__sub_I_Runtime_Video_0_cpp
858:__GLOBAL__sub_I_Modules_Audio_Public_0_cpp
859:__GLOBAL__sub_I_Modules_Audio_Public_1_cpp
860:__GLOBAL__sub_I_Modules_Audio_Public_3_cpp
861:__GLOBAL__sub_I_Modules_Audio_Public_ScriptBindings_1_cpp
862:__GLOBAL__sub_I_Modules_Audio_Public_sound_0_cpp
863:__ZN13RuntimeStaticIN13SoundReleaser17SoundReleaserHookELb0EE16StaticInitializeEPv
864:__ZN13RuntimeStaticIN13SoundReleaser17SoundReleaserHookELb0EE13StaticDestroyEPv
865:__ZN13RuntimeStaticINSt3__28multimapIjP12SoundDecoderNS0_4lessIjEE13stl_allocatorINS0_4pairIKjS3_EEL18MemLabelIdentifier31ELi16EEEELb0EE13StaticDestroyEPv
866:__ZNSt3__26__treeINS_12__value_typeIjP12SoundDecoderEENS_19__map_value_compareIjS4_NS_4lessIjEELb1EEE13stl_allocatorIS4_L18MemLabelIdentifier31ELi16EEE7destroyEPNS_11__tree_nodeIS4_PvEE
867:__ZN24StaticInitializeInternal13ConstructTypeIN13SoundReleaser17SoundReleaserHookELb0EEEPvS3_10MemLabelId
868:__ZN13SoundReleaser17SoundReleaserHook11OnCloseFMODEv
869:__ZN13SoundReleaser17SoundReleaserHookD0Ev
870:__ZN13RuntimeStaticINSt3__23mapIjP26AudioSampleProviderChannelNS0_4lessIjEE13stl_allocatorINS0_4pairIKjS3_EEL18MemLabelIdentifier31ELi16EEEELb0EE13StaticDestroyEPv
871:__ZNSt3__26__treeINS_12__value_typeIjP26AudioSampleProviderChannelEENS_19__map_value_compareIjS4_NS_4lessIjEELb1EEE13stl_allocatorIS4_L18MemLabelIdentifier31ELi16EEE7destroyEPNS_11__tree_nodeIS4_PvEE
872:__ZL37StaticInitializeAudioCustomFilterRootPv
873:__ZL34StaticDestroyAudioCustomFilterRootPv
874:__ZN13RuntimeStaticI13dynamic_arrayIPN12AudioManager15ManagerListenerELm0EELb0EE16StaticInitializeEPv
875:__ZN13RuntimeStaticI13dynamic_arrayIPN12AudioManager15ManagerListenerELm0EELb0EE13StaticDestroyEPv
876:__ZN13RuntimeStaticINSt3__23mapIjP19AudioSampleProviderNS0_4lessIjEE13stl_allocatorINS0_4pairIKjS3_EEL18MemLabelIdentifier31ELi16EEEELb0EE13StaticDestroyEPv
877:__ZL37StaticInitializeAudioSourceFilterRootPv
878:__ZL34StaticDestroyAudioSourceFilterRootPv
879:__ZNSt3__26__treeINS_12__value_typeIjP19AudioSampleProviderEENS_19__map_value_compareIjS4_NS_4lessIjEELb1EEE13stl_allocatorIS4_L18MemLabelIdentifier31ELi16EEE7destroyEPNS_11__tree_nodeIS4_PvEE
880:__ZN20DiagnosticSwitchEnumI23FMODDebugDisplayOptionsE18SetValueFromStringEPKc
881:__ZN20DiagnosticSwitchEnumI23FMODDebugDisplayOptionsE20ApplyPersistentValueEv
882:__ZN20DiagnosticSwitchEnumI23FMODDebugDisplayOptionsE20CollectScriptingInfoERN20DiagnosticSwitchBase13ScriptingInfoE
883:__ZN20DiagnosticSwitchEnumI23FMODDebugDisplayOptionsE24UpdateFromScriptingValueE18ScriptingObjectPtrb
884:__ZN10EnumTraits8ToStringI23FMODDebugDisplayOptionsEEN4core12basic_stringIcNS2_20StringStorageDefaultIcEEEET_
885:__ZN4core20StringStorageDefaultIcE7replaceEmmPKcm
886:__ZN10EnumTraits13TryFromStringI23FMODDebugDisplayOptionsEEbPKcbRT_
887:__ZN20DiagnosticSwitchEnumI14FMODDebugTypesE18SetValueFromStringEPKc
888:__ZN20DiagnosticSwitchEnumI14FMODDebugTypesE20ApplyPersistentValueEv
889:__ZN20DiagnosticSwitchEnumI14FMODDebugTypesE20CollectScriptingInfoERN20DiagnosticSwitchBase13ScriptingInfoE
890:__ZN20DiagnosticSwitchEnumI14FMODDebugTypesE24UpdateFromScriptingValueE18ScriptingObjectPtrb
891:__ZN10EnumTraits8ToStringI14FMODDebugTypesEEN4core12basic_stringIcNS2_20StringStorageDefaultIcEEEET_
892:__ZN10EnumTraits13TryFromStringI14FMODDebugTypesEEbPKcbRT_
893:__ZN24StaticInitializeInternal13ConstructTypeI13dynamic_arrayIPN12AudioManager15ManagerListenerELm0EELb0EEEPvS6_10MemLabelId
894:__ZN13RuntimeStaticINSt3__23setIP26AudioSampleProviderChannelNS0_4lessIS3_EE13stl_allocatorIS3_L18MemLabelIdentifier31ELi16EEEELb0EE16StaticInitializeEPv
895:__ZN13RuntimeStaticINSt3__23setIP26AudioSampleProviderChannelNS0_4lessIS3_EE13stl_allocatorIS3_L18MemLabelIdentifier31ELi16EEEELb0EE13StaticDestroyEPv
896:__ZNSt3__26__treeIP26AudioSampleProviderChannelNS_4lessIS2_EE13stl_allocatorIS2_L18MemLabelIdentifier31ELi16EEE7destroyEPNS_11__tree_nodeIS2_PvEE
897:__ZN13RuntimeStaticINSt3__26vectorIP16BaseVideoTexture13stl_allocatorIS3_L18MemLabelIdentifier24ELi16EEEELb0EE16StaticInitializeEPv
898:__ZN13RuntimeStaticINSt3__26vectorIP16BaseVideoTexture13stl_allocatorIS3_L18MemLabelIdentifier24ELi16EEEELb0EE13StaticDestroyEPv
899:__ZN13RuntimeStaticINSt3__26vectorI12WebCamDeviceNS0_9allocatorIS2_EEEELb0EE16StaticInitializeEPv
900:__ZN13RuntimeStaticINSt3__26vectorI12WebCamDeviceNS0_9allocatorIS2_EEEELb0EE13StaticDestroyEPv
901:__ZN24StaticInitializeInternal13ConstructTypeINSt3__26vectorI12WebCamDeviceNS1_9allocatorIS3_EEEELb0EEEPvS7_10MemLabelId
902:__ZN9Scripting11UnityEngine5AudioL58__ManagedRegistrationHelperFunction_AudioClipPlayableProxyEPv
903:__ZN9Scripting11UnityEngine5AudioL59__ManagedRegistrationHelperFunction_AudioMixerPlayableProxyEPv
904:__ZN9Scripting11UnityEngine5AudioL60__ManagedRegistrationHelperFunction_AudioPlayableOutputProxyEPv
905:__ZN9Scripting11UnityEngineL50__ManagedRegistrationHelperFunction_AudioClipProxyEPv
906:__ZN9Scripting11UnityEngineL54__ManagedRegistrationHelperFunction_AudioSettingsProxyEPv
907:__ZN9Scripting11UnityEngine12Experimental5AudioL60__ManagedRegistrationHelperFunction_AudioSampleProviderProxyEPv
908:__ZN9Scripting11UnityEngineL53__ManagedRegistrationHelperFunction_WebCamDeviceProxyEPv
909:__ZN9Scripting11UnityEngine17WebCamDeviceProxy9InitProxyEv
910:__ZN9Scripting11UnityEngine17WebCamDeviceProxy12CleanupProxyEv
911:__ZN9Scripting11UnityEngine12Experimental5Audio24AudioSampleProviderProxy9InitProxyEv
912:__ZN9Scripting11UnityEngine12Experimental5Audio24AudioSampleProviderProxy12CleanupProxyEv
913:__ZN9Scripting11UnityEngine18AudioSettingsProxy9InitProxyEv
914:__ZN9Scripting11UnityEngine18AudioSettingsProxy12CleanupProxyEv
915:__ZN9Scripting11UnityEngine14AudioClipProxy9InitProxyEv
916:__ZN9Scripting11UnityEngine14AudioClipProxy12CleanupProxyEv
917:__ZN9Scripting11UnityEngine5Audio24AudioPlayableOutputProxy9InitProxyEv
918:__ZN9Scripting11UnityEngine5Audio24AudioPlayableOutputProxy12CleanupProxyEv
919:__ZN9Scripting11UnityEngine5Audio23AudioMixerPlayableProxy9InitProxyEv
920:__ZN9Scripting11UnityEngine5Audio23AudioMixerPlayableProxy12CleanupProxyEv
921:__ZN9Scripting11UnityEngine5Audio22AudioClipPlayableProxy9InitProxyEv
922:__ZN9Scripting11UnityEngine5Audio22AudioClipPlayableProxy12CleanupProxyEv
923:__ZNK7Texture20GetUnscaledTextureIDEv
924:__ZNK7Texture11GetGPUWidthEv
925:__ZNK7Texture12GetGPUHeightEv
926:__ZNK7Texture16GetNpotTexelSizeEv
927:__ZNK7Texture9HasMipMapEv
928:__ZNK7Texture14GetMipmapCountEv
929:__ZNK7Texture21GetShadowSamplingModeEv
930:__ZN7Texture34UpdateFileTextureUploadInstructionEP24TextureUploadInstructionj
931:__ZN4FMOD3DSP9setBypassEb
932:__ZN4FMOD6System15createDSPByTypeE13FMOD_DSP_TYPEPPNS_3DSPE
933:__ZN10ObjectPoolIN4FMOD3DSPENS0_4DSPIEE7GetFreeEi
934:__ZN4FMOD3DSP12setParameterEif
935:__ZN4FMOD3DSP7releaseEv
936:__ZN15SerializeTraitsI9UnityGUIDE8TransferI14SafeBinaryReadEEvRS0_RT_
937:__ZN9UnityGUID8TransferI24GenerateTypeTreeTransferEEvRT_
938:__ZN9UnityGUID8TransferI18StreamedBinaryReadEEvRT_
939:__ZN9UnityGUID8TransferI19StreamedBinaryWriteEEvRT_
940:__ZN4FMOD6Reverb9setActiveEb
941:__ZN15AudioReverbZone4InitEv
942:__ZN4FMOD6System12createReverbEPPNS_6ReverbE
943:__ZL16FMOD_ErrorString11FMOD_RESULT
944:__ZN12AudioManager21FixMasterGroupRoutingEv
945:__ZN15AudioReverbZone13SetFMODValuesEv
946:__ZN4FMOD6System6updateEv
947:__ZN4FMOD6Reverb15set3DAttributesEPK11FMOD_VECTORff
948:__ZN4FMOD6Reverb13setPropertiesEPK22FMOD_REVERB_PROPERTIES
949:__ZN4FMOD12ChannelGroup10getDSPHeadEPPNS_3DSPE
950:__ZN4FMOD3DSP9getOutputEiPPS0_PPNS_13DSPConnectionE
951:__ZN4FMOD3DSP8getInputEiPPS0_PPNS_13DSPConnectionE
952:__ZN4FMOD3DSP12getNumInputsEPi
953:__ZN4FMOD3DSP7getInfoEPcPjPiS3_S3_
954:__ZN4FMOD3DSP13disconnectAllEbb
955:__ZN4FMOD3DSP8addInputEPS0_PPNS_13DSPConnectionE
956:__ZN4FMOD6Reverb7releaseEv
957:__ZN12AudioManagerD2Ev
958:__ZN12AudioManagerD0Ev
959:__ZN12AudioManager17MainThreadCleanupEv
960:__ZN12AudioManager13AwakeFromLoadE17AwakeFromLoadMode
961:__ZN12AudioManager16CheckConsistencyEv
962:__ZN12AudioManager5ResetEv
963:__ZNK12AudioManager22GetTypeVirtualInternalEv
964:__ZN12AudioManager23VirtualRedirectTransferER19StreamedBinaryWrite
965:__ZN12AudioManager23VirtualRedirectTransferER18StreamedBinaryRead
966:__ZN12AudioManager23VirtualRedirectTransferER24GenerateTypeTreeTransfer
967:__ZN12AudioManager23VirtualRedirectTransferER14SafeBinaryRead
968:__ZN12AudioManager8TransferI14SafeBinaryReadEEvRT_
969:__ZN12AudioManager8TransferI24GenerateTypeTreeTransferEEvRT_
970:__ZN12AudioManager8TransferI18StreamedBinaryReadEEvRT_
971:__ZN12AudioManager8TransferI19StreamedBinaryWriteEEvRT_
972:__ZN12AudioManager8InitFMODE15FMOD_OUTPUTTYPE
973:__ZN12AudioManager29ShutdownReinitializeAndReloadE15FMOD_OUTPUTTYPEPS0_
974:__ZN4FMOD12ChannelGroup9setVolumeEf
975:__ZN4FMOD6System13set3DSettingsEfff
976:__ZN4FMOD6System9getOutputEP15FMOD_OUTPUTTYPE
977:__ZN12AudioManager9CloseFMODEv
978:__ZN9AudioClip6ReloadEv
979:__ZN13AudioListener12ApplyFiltersEv
980:__ZN12AudioManager39HandlePendingAudioConfigurationCallbackEv
981:__ZL31InitializeAudioScriptingClassesv
982:__ZL28CleanupAudioScriptingClassesv
983:__ZN11AudioFilter6GetDSPEv
984:__ZN4FMOD3DSP6removeEv
985:__Z15_CheckFMODError11FMOD_RESULTPKciS1_
986:__ZN4FMOD12ChannelGroup6addDSPEPNS_3DSPEPPNS_13DSPConnectionE
987:__ZN4FMOD3DSP9getBypassEPb
988:__ZN11AudioSource7CleanupEv
989:__ZN13AudioListener7CleanupEv
990:__ZN15AudioReverbZone7CleanupEv
991:__ZN10AudioMixer33EnsureMixerGroupSinksAreDestroyedEv
992:__ZN5audio5mixer23DestroyAudioMixerMemoryEPNS0_16AudioMixerMemoryERKNS0_18AudioMixerConstantEPN4FMOD6SystemER20RuntimeBaseAllocator
993:__ZN19AudioPlayableOutput21KillFMODResourceGraphEv
994:__ZN26AudioSampleProviderChannel7CleanupEv
995:__ZN4FMOD12ChannelGroup7releaseEv
996:__ZN9AudioClip7CleanupEv
997:__ZN4FMOD6System5closeEv
998:__ZN12SoundManagerD2Ev
999:__ZN12SoundManager20OnExitPlayModeStaticEv
1000:__ZN12SoundManager26OnBeforeDomainUnloadStaticEv
1001:__ZN12SoundManager6UpdateEv
1002:__ZN11SoundHandle8InstanceD2Ev
1003:__ZN20SoundChannelInstance4StopEv
1004:__ZN4FMOD5Sound7releaseEv
1005:__ZN4FMOD6SoundI7releaseEv
1006:__ZN4FMOD8ChannelI11EndCallbackEv
1007:__ZN4FMOD7Channel4stopEv
1008:__ZN4FMOD7Channel11setPositionEjj
1009:__ZN11SoundHandle8Instance15UpdateLoadStateEv
1010:__ZN4FMOD6System9playSoundE17FMOD_CHANNELINDEXPNS_5SoundEbPPNS_7ChannelE
1011:__ZN20SoundChannelInstance14SetFMODChannelEPN4FMOD7ChannelE
1012:__ZN20SoundChannelInstance15ParameterBuffer5ApplyEPN4FMOD7ChannelE
1013:__ZN20SoundChannelInstance12UpdateVolumeEv
1014:__ZN20SoundChannelInstance11UpdatePitchEv
1015:__ZN20SoundChannelInstance16UpdatePauseStateEv
1016:__ZN20SoundChannelInstance15UpdateStereoPanEv
1017:__ZN20SoundChannelInstance16Update3DPanLevelEv
1018:__ZN4FMOD7Channel7getModeEPj
1019:__ZN4FMOD7Channel13set3DPanLevelEf
1020:__ZN4FMOD7Channel6setPanEf
1021:__ZN4FMOD7Channel9setPausedEb
1022:__ZN4FMOD7Channel12setFrequencyEf
1023:__ZN4FMOD7Channel9setVolumeEf
1024:__ZN4FMOD8ChannelI9setVolumeEf
1025:__ZN4FMOD7Channel7setMuteEb
1026:__ZN4FMOD7Channel11setCallbackEPF11FMOD_RESULTP12FMOD_CHANNEL25FMOD_CHANNEL_CALLBACKTYPEPvS5_E
1027:__ZN4FMOD7Channel7setModeEj
1028:__ZN4FMOD7Channel15setChannelGroupEPNS_12ChannelGroupE
1029:__ZN4FMOD7Channel11setPriorityEi
1030:__ZN4FMOD7Channel19setReverbPropertiesEPK29FMOD_REVERB_CHANNELPROPERTIES
1031:__ZN4FMOD7Channel8setDelayE14FMOD_DELAYTYPEjj
1032:__ZN4FMOD7Channel15set3DAttributesEPK11FMOD_VECTORS3_
1033:__ZN4FMOD7Channel20set3DConeOrientationEP11FMOD_VECTOR
1034:__ZN4FMOD7Channel17set3DConeSettingsEfff
1035:__ZN4FMOD7Channel19set3DMinMaxDistanceEff
1036:__ZN4FMOD7Channel11set3DSpreadEf
1037:__ZN4FMOD8ChannelI15set3DAttributesEPK11FMOD_VECTORS3_
1038:__ZN4FMOD8ChannelI18UpdateDopplerPitchEv
1039:__ZN4FMOD8ChannelI8setDelayE14FMOD_DELAYTYPEjj
1040:__ZN4FMOD7Channel6addDSPEPNS_3DSPEPPNS_13DSPConnectionE
1041:__ZN4FMOD7Channel11setUserDataEPv
1042:__ZN20SoundChannelInstance19FMODChannelCallbackEP12FMOD_CHANNEL25FMOD_CHANNEL_CALLBACKTYPEPvS3_
1043:__ZN4FMOD7Channel12getFrequencyEPf
1044:__ZN4FMOD7Channel11getUserDataEPPv
1045:__ZN4FMOD7SystemI9playSoundE17FMOD_CHANNELINDEXPNS_5SoundEbPPNS_7ChannelE
1046:__ZN10ObjectPoolIN4FMOD7ChannelENS0_8ChannelIEE7GetFreeEi
1047:__ZN4FMOD22FakeModChannelCallbackEPv
1048:__ZN4FMOD5Sound12getOpenStateEP14FMOD_OPENSTATEPjPbS4_
1049:__ZN4FMOD5Sound15getNumSubSoundsEPi
1050:__ZN4FMOD5Sound11getSubSoundEiPPS0_
1051:__ZN11SoundHandle8Instance15FinalizeLoadingEv
1052:__ZN4FMOD5Sound11setUserDataEPv
1053:__ZN4FMOD8ChannelI11setPositionEjj
1054:__ZN10SampleClip15UnloadAudioDataEv
1055:__ZN12SoundManager10UnloadClipEP10SampleClip
1056:__ZN12SoundManager20RegisterModifiedClipEP10SampleClip
1057:__ZN11SoundHandle8Instance7DisposeEv
1058:__ZN11SoundHandleD2Ev
1059:__ZN11SoundHandle7ReleaseEv
1060:__ZN11SoundHandleaSERKS_
1061:__ZN26AudioSampleProviderChannel11ReleaseFMODEv
1062:__ZN13AudioPlayable26ReleaseFMODResourceVisitorERK16AudioProcessData
1063:__ZN13AudioPlayable27ReleaseChannelGroupsVisitorERK16AudioProcessData
1064:__ZN22AudioPlayableTraverser8TraverseERK16AudioProcessData
1065:__ZN11AudioFilter7CleanupEv
1066:__ZN17AudioCustomFilter7CleanupEv
1067:__ZN11AudioSource4StopEb
1068:__ZN4FMOD3DSP11getUserDataEPPv
1069:__ZN11AudioSource16CleanAudioSourceEb
1070:__ZN11AudioSource20SetEffectActiveStateEb
1071:__ZN4FMOD3DSP9setActiveEb
1072:__ZN13dynamic_arrayI12SoundChannelLm0EE13clear_deallocEv
1073:__ZN11AudioSource26MuteActiveProviderChannelsEv
1074:__ZN20SoundChannelInstance7setMuteEb
1075:_FMOD_Memory_Initialize
1076:_FMOD_System_Create
1077:__ZNK12AudioManager18ValidateFMODResultE11FMOD_RESULTiPKcS2_
1078:__Z14FMOD_FILE_OpenPKciPjPPvS3_
1079:__Z15FMOD_FILE_ClosePvS_
1080:__Z14FMOD_FILE_ReadPvS_jPjS_
1081:__Z14FMOD_FILE_SeekPvjS_
1082:__ZN4FMOD6System13setFileSystemEPF11FMOD_RESULTPKciPjPPvS6_EPFS1_S5_S5_EPFS1_S5_S5_jS4_S5_EPFS1_S5_jS5_EPFS1_P18FMOD_ASYNCREADINFOS5_ESA_i
1083:__ZN4FMOD6System10getVersionEPj
1084:__ZN4FMOD6System19setStreamBufferSizeEjj
1085:__ZN12AudioManager14systemCallbackEP11FMOD_SYSTEM24FMOD_SYSTEM_CALLBACKTYPEPvS3_
1086:__ZN4FMOD6System11setCallbackEPF11FMOD_RESULTP11FMOD_SYSTEM24FMOD_SYSTEM_CALLBACKTYPEPvS5_E
1087:__ZN11AudioSource15rolloffCallbackEP12FMOD_CHANNELf
1088:__ZN4FMOD6System20set3DRolloffCallbackEPFfP12FMOD_CHANNELfE
1089:__ZN12AudioManager10InitNormalEb15FMOD_OUTPUTTYPE
1090:__ZN4FMOD6System7releaseEv
1091:__ZN4FMOD6System21getMasterChannelGroupEPPNS_12ChannelGroupE
1092:__ZN4FMOD6System17getSoftwareFormatEPiP17FMOD_SOUND_FORMATS1_S1_P18FMOD_DSP_RESAMPLERS1_
1093:__ZN4FMOD6System16getDSPBufferSizeEPjPi
1094:__ZN4FMOD6System11getDSPClockEPjS1_
1095:__Z29AudioMasterDSPProcessCallbackP21UnityAudioEffectStatePfS1_jii
1096:__ZN29AudioEffectInternalDefinition9CreateDSPEPN4FMOD6SystemEPvPfP23UnityAudioAmbisonicDataPP25UnityAudioSpatializerData
1097:__ZN4FMOD6System18createChannelGroupEPKcPPNS_12ChannelGroupE
1098:__ZN4FMOD12ChannelGroup8addGroupEPS0_
1099:__ZN29AudioEffectInternalDefinitionD2Ev
1100:__ZN12SoundManagerC2Ev
1101:__ZN10ObjectPoolIN4FMOD12ChannelGroupENS0_13ChannelGroupIEE7GetFreeEi
1102:__ZN4FMOD6System9createDSPEP20FMOD_DSP_DESCRIPTIONPPNS_3DSPE
1103:__ZN29AudioEffectInternalDefinitionC2EP26UnityAudioEffectDefinitionb
1104:__ZN30AudioEffectInternalDescriptionC2EP26UnityAudioEffectDefinition
1105:__ZL39UnityAudioEffect_InternalCreateCallbackP14FMOD_DSP_STATE
1106:__ZL40UnityAudioEffect_InternalReleaseCallbackP14FMOD_DSP_STATE
1107:__ZL38UnityAudioEffect_InternalResetCallbackP14FMOD_DSP_STATE
1108:__ZL37UnityAudioEffect_InternalReadCallbackP14FMOD_DSP_STATEPfS1_jii
1109:__ZL44UnityAudioEffect_InternalSetPositionCallbackP14FMOD_DSP_STATEj
1110:__ZL50UnityAudioEffect_InternalSetFloatParameterCallbackP14FMOD_DSP_STATEif
1111:__ZL50UnityAudioEffect_InternalGetFloatParameterCallbackP14FMOD_DSP_STATEiPfPc
1112:__ZN4FMOD3DSP11setUserDataEPv
1113:__ZN4FMOD6System9setOutputE15FMOD_OUTPUTTYPE
1114:__ZN4FMOD6System13getNumDriversEPi
1115:__ZN4FMOD6System9getDriverEPi
1116:__ZN4FMOD6System13getDriverCapsEiPjPiP16FMOD_SPEAKERMODE
1117:__ZN4FMOD6System14setSpeakerModeE16FMOD_SPEAKERMODE
1118:__ZN4FMOD6System16setDSPBufferSizeEji
1119:__ZN4FMOD6System17setSoftwareFormatEi17FMOD_SOUND_FORMATii18FMOD_DSP_RESAMPLER
1120:__ZN4FMOD6System19setSoftwareChannelsEi
1121:__ZN4FMOD6System19setAdvancedSettingsEP21FMOD_ADVANCEDSETTINGS
1122:__ZN4FMOD6System4initEijPv
1123:__ZN10ObjectPoolIN4FMOD7ChannelENS0_8ChannelIEE7SetSizeEi
1124:__ZN12AudioManager27SetActiveOutputDriverCommonEP9FMOD_GUIDRKN4core12basic_stringIcNS2_20StringStorageDefaultIcEEEEb
1125:__ZN4FMOD6System9setDriverEi
1126:__ZN4FMOD6System13getDriverInfoEiPciP9FMOD_GUID
1127:__ZN4FMOD7SystemIC2Ei
1128:__ZN10ObjectPoolIN4FMOD12ChannelGroupENS0_13ChannelGroupIEE7SetSizeEi
1129:__ZN10ObjectPoolIN4FMOD5SoundENS0_6SoundIEE7SetSizeEi
1130:__ZN10ObjectPoolIN4FMOD3DSPENS0_4DSPIEE7SetSizeEi
1131:__ZN12AudioManager27InitialCompleteDomainReloadEv
1132:__ZN24AudioScriptBufferManager4InitEv
1133:__ZN24AudioScriptBufferManagerC2Ev
1134:__ZN10AudioMixer6UpdateEf
1135:__ZN10AudioMixer18EnsureValidRuntimeEv
1136:__ZN5audio5mixer22UpdateAudioMixerMemoryERKNS0_18AudioMixerConstantERNS0_16AudioMixerMemoryEfPN4FMOD6SystemEf
1137:__ZN4FMOD12ChannelGroup19setAudibilityFactorEf
1138:__ZN4FMOD12ChannelGroup8setPitchEf
1139:__ZN4FMOD13DSPConnection6setMixEf
1140:__ZN5audio5mixerL19IsAnyChannelPlayingEPN4FMOD12ChannelGroupE
1141:__ZN5audio5mixer12SetSuspendedERNS0_16AudioMixerMemoryEb
1142:__ZN4FMOD3DSP9getActiveEPb
1143:__ZN4FMOD3DSP15getSystemObjectEPPNS_6SystemE
1144:__ZN4FMOD12ChannelGroup14getNumChannelsEPi
1145:__ZN4FMOD12ChannelGroup10getChannelEiPPNS_7ChannelE
1146:__ZN4FMOD7Channel9isPlayingEPb
1147:__ZN4FMOD12ChannelGroup12getNumGroupsEPi
1148:__ZN4FMOD12ChannelGroup8getGroupEiPPS0_
1149:__ZN5audio5mixer22CreateAudioMixerMemoryERKNS0_18AudioMixerConstantEPN4FMOD6SystemER20RuntimeBaseAllocatorib
1150:__ZN10AudioMixer31EnsureMixerGroupSinksAreCreatedEv
1151:__ZN10AudioMixer14UpdateMuteSoloEv
1152:__ZN5audio5mixer12UpdateBypassERNS0_18AudioMixerConstantERNS0_16AudioMixerMemoryE
1153:__ZN5audio5mixer21SetResultingMuteStateERKNS0_18AudioMixerConstantERKNS0_16AudioMixerMemoryEib
1154:__ZN10AudioMixer11SetupGroupsEv
1155:__ZN12AudioManager37RebindAudioSourcesAndSubMixersToMixerEP10AudioMixer
1156:__ZN11AudioSource19ConfigureFMODGroupsEv
1157:__ZN10AudioMixer12RebindOutputEv
1158:__ZN5audio5mixer16FindChannelGroupERKNS0_18AudioMixerConstantERKNS0_16AudioMixerMemoryERK9UnityGUID
1159:__ZN5audio5mixer17AssignOutputGroupERKNS0_18AudioMixerConstantERKNS0_16AudioMixerMemoryEPN4FMOD12ChannelGroupE
1160:__ZN4FMOD12ChannelGroup14getParentGroupEPPS0_
1161:__ZN11AudioSource12ApplyFiltersEv
1162:__ZNK11AudioSource19GetFilterComponentsERNSt3__26vectorIPN4FMOD3DSPENS0_9allocatorIS4_EEEEb
1163:__ZNSt3__26vectorIPN4FMOD3DSPENS_9allocatorIS3_EEE21__push_back_slow_pathIRKS3_EEvOT_
1164:__ZN10AudioMixer14MixerGroupSink15ProcessCallbackEP21UnityAudioEffectStatePfS3_jii
1165:__ZN4FMOD12ChannelGroup7setMuteEb
1166:__Z32AudioMeasurement_GetTimeConstantff
1167:__Z25GetAudioEffectDefinitionsPi
1168:__Z29AudioMixerSendProcessCallbackP21UnityAudioEffectStatePfS1_jii
1169:__Z32AudioMixerReceiveProcessCallbackP21UnityAudioEffectStatePfS1_jii
1170:__Z31AudioMixerDuckingCreateCallbackP21UnityAudioEffectState
1171:__Z32AudioMixerDuckingDestroyCallbackP21UnityAudioEffectState
1172:__Z37AudioMixerDuckingSetParameterCallbackP21UnityAudioEffectStateif
1173:__Z39AudioMixerDuckingGetFloatBufferCallbackP21UnityAudioEffectStatePKcPfi
1174:__Z32AudioMixerDuckingProcessCallbackP21UnityAudioEffectStatePfS1_jii
1175:__Z30AudioMixerFaderProcessCallbackP21UnityAudioEffectStatePfS1_jii
1176:__ZN4FMOD3DSP14disconnectFromEPS0_
1177:__ZN12AudioManager33GetAudioEffectInternalDefinitionsEv
1178:__ZN13dynamic_arrayIS_IfLm0EELm0EED2Ev
1179:__ZN10SampleClip13LoadBaseSoundEv
1180:__ZNK10SampleClip17CalculateFMODModeEv
1181:__ZN12SoundManager9GetHandleERK16StreamedResourceijjP10SampleClipb
1182:__Z13LoadFMODSoundPPN11SoundHandle8InstanceEPKcjP10SampleClipjjP22FMOD_CREATESOUNDEXINFO
1183:__ZN12SoundManager18IntegrateFMODSoundEPN11SoundHandle8InstanceERK16StreamedResourcejiN17SoundHandleShared9LoadStateE
1184:__ZN4FMOD5Sound13setLoopPointsEjjjj
1185:__ZN11SoundHandle8InstanceC2Ev
1186:__ZN4FMOD6System11createSoundEPKcjP22FMOD_CREATESOUNDEXINFOPPNS_5SoundE
1187:__ZN4FMOD7SystemI11createSoundEPKcjP22FMOD_CREATESOUNDEXINFOPPNS_5SoundE
1188:__ZN10ObjectPoolIN4FMOD5SoundENS0_6SoundIEE7GetFreeEi
1189:__ZNK7WeakPtrIN11SoundHandle8InstanceEE10SharedData9GetRawPtrEv
1190:__ZN11AudioSource16UpdatePauseStateEv
1191:__ZN11SoundHandleC2ERKS_
1192:__ZN20SoundChannelInstance8setDelayE14FMOD_DELAYTYPEjj
1193:__ZN11AudioSource32CorrectScheduledTimeAfterUnpauseEyy
1194:__ZN20SoundChannelInstance8getDelayE14FMOD_DELAYTYPEPjS1_
1195:__ZN10SampleClipD2Ev
1196:__ZN10SampleClipD0Ev
1197:__ZN10SampleClip17MainThreadCleanupEv
1198:__ZNK10SampleClip22GetTypeVirtualInternalEv
1199:__ZN10SampleClip23VirtualRedirectTransferER19StreamedBinaryWrite
1200:__ZN10SampleClip23VirtualRedirectTransferER18StreamedBinaryRead
1201:__ZN10SampleClip23VirtualRedirectTransferER24GenerateTypeTreeTransfer
1202:__ZN10SampleClip23VirtualRedirectTransferER14SafeBinaryRead
1203:__ZNK10SampleClip12GetLoadStateEv
1204:__ZN9AudioClipD2Ev
1205:__ZN9AudioClipD0Ev
1206:__ZN9AudioClip17MainThreadCleanupEv
1207:__ZN9AudioClip13AwakeFromLoadE17AwakeFromLoadMode
1208:__ZN9AudioClip21AwakeFromLoadThreadedEv
1209:__ZNK9AudioClip22GetTypeVirtualInternalEv
1210:__ZN9AudioClip23VirtualRedirectTransferER19StreamedBinaryWrite
1211:__ZN9AudioClip23VirtualRedirectTransferER18StreamedBinaryRead
1212:__ZN9AudioClip23VirtualRedirectTransferER24GenerateTypeTreeTransfer
1213:__ZN9AudioClip23VirtualRedirectTransferER14SafeBinaryRead
1214:__ZN9AudioClip8TransferI14SafeBinaryReadEEvRT_
1215:__ZN9AudioClip8TransferI24GenerateTypeTreeTransferEEvRT_
1216:__ZN9AudioClip8TransferI18StreamedBinaryReadEEvRT_
1217:__ZN9AudioClip8TransferI19StreamedBinaryWriteEEvRT_
1218:__ZN9AudioClip9LoadSoundEv
1219:__ZN9AudioClip11CreateSoundEv
1220:__ZN12AudioManager22CreateFMODSoundFromWWWEP10IWWWStream15FMOD_SOUND_TYPE17FMOD_SOUND_FORMATjjbbP10SampleClip
1221:__ZN12SoundManager22GetHandleFromFMODSoundEPN11SoundHandle8InstanceEjP10SampleClip
1222:__ZN9AudioClip21ScriptPCMReadCallbackEP10FMOD_SOUNDPvj
1223:__ZN9AudioClip28ScriptPCMSetPositionCallbackEP10FMOD_SOUNDijj
1224:__ZN12SoundManager19CreateSoundInternalEPKcjP22FMOD_CREATESOUNDEXINFOR11SoundHandlejP10SampleClip
1225:__ZN4FMOD5Sound11getUserDataEPPv
1226:__ZN12AudioManager22GetScriptBufferManagerEv
1227:__ZN9AudioClip7WWWOpenEPKciPjPPvS4_
1228:__ZN9AudioClip8WWWCloseEPvS0_
1229:__ZN9AudioClip7WWWReadEPvS0_jPjS0_
1230:__ZN9AudioClip7WWWSeekEPvjS0_
1231:__ZN10IWWWStream25FromTextualRepresentationEPKc
1232:__ZN13AudioListenerD2Ev
1233:__ZN13AudioListenerD0Ev
1234:__ZN13AudioListener13AwakeFromLoadE17AwakeFromLoadMode
1235:__ZNK13AudioListener22GetTypeVirtualInternalEv
1236:__ZN13AudioListener23VirtualRedirectTransferER19StreamedBinaryWrite
1237:__ZN13AudioListener23VirtualRedirectTransferER18StreamedBinaryRead
1238:__ZN13AudioListener23VirtualRedirectTransferER17RemapPPtrTransfer
1239:__ZN13AudioListener23VirtualRedirectTransferER24GenerateTypeTreeTransfer
1240:__ZN13AudioListener23VirtualRedirectTransferER14SafeBinaryRead
1241:__ZN13AudioListener6UpdateEv
1242:__ZN13AudioListener11FixedUpdateEv
1243:__ZN13AudioListener12AddToManagerEv
1244:__ZN13AudioListener17RemoveFromManagerEv
1245:__ZN12AudioManager19RemoveAudioListenerEP13AudioListener
1246:__ZN12AudioManager16AddAudioListenerEP13AudioListener
1247:__ZN13AudioListener8DoUpdateEv
1248:__ZN12AudioManager14UpdateListenerERK8Vector3fS2_S2_S2_
1249:__ZNK18AudioLowPassFilter18GetCutoffFrequencyEv
1250:__ZN4FMOD6System23set3DListenerAttributesEiPK11FMOD_VECTORS3_S3_S3_
1251:__ZN12AudioManager22GetAutomaticUpdateModeEP10GameObject
1252:__ZN14AudioBehaviourD2Ev
1253:__ZN14AudioBehaviourD0Ev
1254:__ZNK14AudioBehaviour22GetTypeVirtualInternalEv
1255:__ZN17AudioCustomFilterD2Ev
1256:__ZN17AudioCustomFilterD0Ev
1257:__Z26RegisterModuleICalls_Audiov
1258:__Z18RegisterUnityClassI9AudioClipEvPKc
1259:__Z18RegisterUnityClassI14AudioBehaviourEvPKc
1260:__Z18RegisterUnityClassI13AudioListenerEvPKc
1261:__ZN13ProduceHelperI13AudioListenerLb0EE7ProduceE10MemLabelId18ObjectCreationMode
1262:__ZN13AudioListener15InitializeClassEv
1263:__ZZN13AudioListener15InitializeClassEvEN31FunctorImpl_197kDidAddComponent4CallEPviR11MessageData
1264:__ZN14AudioBehaviourC2E10MemLabelId18ObjectCreationMode
1265:__ZN13ProduceHelperI14AudioBehaviourLb1EE7ProduceE10MemLabelId18ObjectCreationMode
1266:__ZN13ProduceHelperI9AudioClipLb0EE7ProduceE10MemLabelId18ObjectCreationMode
1267:__ZN10SampleClipC2E10MemLabelId18ObjectCreationMode
1268:__ZNK17BaseWebCamTexture9GetPixelsE13TextureFormatPvm
1269:__ZN16BaseVideoTexture19UpdateVideoTexturesEv
1270:__ZN16BaseVideoTexture18PauseVideoTexturesEv
1271:__ZN16BaseVideoTexture17StopVideoTexturesEv
1272:__ZN16BaseVideoTexture20SuspendVideoTexturesEv
1273:__ZN16BaseVideoTexture19ResumeVideoTexturesEv
1274:__ZZL31InitializeAudioManagerCallbacksvEN38FixedUpdateAudioFixedUpdateRegistrator7ForwardEv
1275:__ZZL31InitializeAudioManagerCallbacksvEN36PostLateUpdateUpdateAudioRegistrator7ForwardEv
1276:__ZZL31InitializeAudioManagerCallbacksvEN44PostLateUpdateUpdateVideoTexturesRegistrator7ForwardEv
1277:__ZN11AudioModule16SetListenerPauseEb
1278:__ZN11AudioModule19SetApplicationPauseEb
1279:__ZN11AudioModule11FixedUpdateEv
1280:__ZN11AudioModule6UpdateEv
1281:__ZN11AudioModule11GetDSPClockEv
1282:__ZN11AudioModule16GetDSPSampleRateEv
1283:__ZN11AudioModule15GetDSPBlockSizeEv
1284:__ZN11AudioModule17StopVideoTexturesEv
1285:__ZN11AudioModule19UpdateVideoTexturesEv
1286:__ZN11AudioModule18PauseVideoTexturesEv
1287:__ZN11AudioModule20SuspendVideoTexturesEv
1288:__ZN11AudioModule19ResumeVideoTexturesEv
1289:__ZN11AudioModule22CreateAudioClipFromWWWEP10IWWWStreamPKcbbi
1290:__ZN11AudioModule27IsFormatSupportedByPlatformEPKc
1291:__ZN11AudioModule30GetOrCreateDSPFromCustomFilterEP17AudioCustomFilter
1292:__ZN11AudioModule23CreateAudioCustomFilterEP13MonoBehaviour
1293:__ZN11AudioModule23DeleteAudioCustomFilterEP17AudioCustomFilter
1294:__ZN11AudioModule27GetDSPFromAudioCustomFilterEP17AudioCustomFilter
1295:__ZN11AudioModule14SetBypassOnDSPEPN4FMOD3DSPEb
1296:__ZN11AudioModule12CaptureFrameER13dynamic_arrayI22AudioProfilerGroupInfoLm0EERS0_I20AudioProfilerDSPInfoLm0EERS0_I21AudioProfilerClipInfoLm0EERS0_IcLm0EE
1297:__ZN11AudioModule25AudioManagerAwakeFromLoadE17AwakeFromLoadMode
1298:__ZN11AudioModule21SetActiveOutputDriverEPv
1299:__ZN11AudioModule26SetDefaultMicrophoneDriverEPv
1300:__ZN11AudioModule26AcquireAudioSampleProviderEiRN19AudioSampleProvider6HandleE
1301:__ZN11AudioModule28DoesAudioSampleProviderExistEi
1302:__ZN11AudioModule11EnableInputEP19AudioSampleProviderb
1303:__ZN11AudioModule19ConsumeSampleFramesEP19AudioSampleProviderR13dynamic_arrayIfLm0EE
1304:__ZN11AudioModule34GetAudioSampleProviderChannelCountEP19AudioSampleProvider
1305:__ZN11AudioModule32GetAudioSampleProviderSampleRateEP19AudioSampleProvider
1306:__ZN11AudioModule13IsMixerThreadEv
1307:__ZN11AudioModule13GetNumDevicesEv
1308:__ZN11AudioModule15IsAudioDisabledEv
1309:__ZNK12AudioManager13GetNumDevicesEv
1310:__ZN19AudioSampleProvider19ConsumeSampleFramesER13dynamic_arrayIfLm0EE
1311:__ZN19AudioSampleProvider23ExecuteSkipSampleFramesER13dynamic_arrayIfLm0EEm
1312:__ZN19AudioSampleProvider33ConsumeSampleFramesFromRingbufferEPfm
1313:__ZN20DiscontinuityHandler11ApplyFadeInER13dynamic_arrayIfLm0EE
1314:__ZN19AudioSampleProvider12ApplyFadeOutER13dynamic_arrayIfLm0EEmb
1315:__ZN20DiscontinuityHandler12ApplyFadeOutERK13dynamic_arrayIfLm0EEPf
1316:__ZL14GetFadeInCurvev
1317:__ZN13StreamHistory5ResetEv
1318:__ZZN19AudioSampleProvider33ConsumeSampleFramesFromRingbufferEPfmEN5Local12AddToHistoryER13StreamHistoryR22tuple_fixed_ringbufferIfEmZNS_33ConsumeSampleFramesFromRingbufferES0_mENS1_19HistoryAddBehaviourE
1319:__ZN13StreamHistory4CopyEPfmmm
1320:__ZNK13StreamHistory21OldestSampleChunkSizeEv
1321:__ZN13StreamHistory20PopOldestSampleChunkEv
1322:__ZN13StreamHistory18AcquireSampleChunkER13dynamic_arrayIfLm0EE
1323:__ZN13dynamic_arrayIS_IfLm0EELm0EE21resize_buffer_nocheckEm12ResizePolicy
1324:__ZN19AudioSampleProvider6ExistsEj
1325:__ZN19AudioSampleProvider7AcquireEjRNS_6HandleE
1326:__ZN12AudioManager26SetDefaultMicrophoneDriverEP9FMOD_GUID
1327:__ZN12AudioManager21SetActiveOutputDriverEP9FMOD_GUID
1328:__ZN17AudioCustomFilterC2EP13MonoBehaviour
1329:__ZN17AudioCustomFilter4InitEv
1330:__ZL22FMODDSPReleaseCallbackP14FMOD_DSP_STATE
1331:__ZL20SharedDataDeleterJobP21UnownedResourceHandleI17AudioCustomFilterE
1332:__ZN9AudioClip22GetFormatFromExtensionERKN4core12basic_stringIcNS0_20StringStorageDefaultIcEEEE
1333:__ZN9AudioClip16EnableLegacyModeEv
1334:__ZN9AudioClip10InitStreamEP10IWWWStreamPKcPvbb15FMOD_SOUND_TYPE
1335:__ZN9AudioClipC2E10MemLabelId18ObjectCreationMode
1336:__ZNK12AudioManager15GetDSPBlockSizeEv
1337:__ZNK12AudioManager16GetDSPSampleRateEv
1338:__ZNK12AudioManager11GetDSPClockEv
1339:__ZN12AudioManager6UpdateEv
1340:__ZN12AudioManager23ProcessScheduledSourcesEv
1341:__ZN12AudioManager11FixedUpdateEv
1342:__ZN12AudioManager19SetApplicationPauseEb
1343:__ZN12AudioManager16SetListenerPauseEb
1344:__Z18RegisterUnityClassI12AudioManagerEvPKc
1345:__Z18RegisterUnityClassI10SampleClipEvPKc
1346:__ZN13ProduceHelperI10SampleClipLb0EE7ProduceE10MemLabelId18ObjectCreationMode
1347:__ZN13ProduceHelperI12AudioManagerLb0EE7ProduceE10MemLabelId18ObjectCreationMode
1348:__ZN12AudioManagerC2E10MemLabelId18ObjectCreationMode
1349:_RegisterModule_Audio
1350:__Z22InitializeModule_Audiov
1351:__ZL19CleanupModule_Audiov
1352:__ZN13dynamic_arrayIfLm0EEC2Em10MemLabelId
1353:__ZN19AudioSampleProvider6RemoveEj
1354:__GLOBAL__sub_I_ClothScriptingClasses_cpp
1355:__GLOBAL__sub_I_Modules_Cloth_0_cpp
1356:___cxx_global_var_init_18
1357:__GLOBAL__sub_I_nvcloth_src_0_cpp
1358:__GLOBAL__sub_I_nvcloth_src_1_cpp
1359:__GLOBAL__sub_I_SwInterCollision_cpp
1360:__GLOBAL__sub_I_SwSolverKernel_cpp
1361:__ZN13RuntimeStaticI12ClothStaticsLb0EE16StaticInitializeEPv
1362:__ZN13RuntimeStaticI12ClothStaticsLb0EE13StaticDestroyEPv
1363:__ZN24StaticInitializeInternal13ConstructTypeI12ClothStaticsLb0EEEPvS2_10MemLabelId
1364:__ZN18ClothAssertHandlerclEPKcS1_iRb
1365:__ZN16ClothErrorStream11reportErrorEN5physx11PxErrorCode4EnumEPKcS4_i
1366:__ZN14ClothAllocator8allocateEmPKcS1_i
1367:__ZN14ClothAllocator10deallocateEPv
1368:__ZN9Scripting11UnityEngineL65__ManagedRegistrationHelperFunction_ClothSkinningCoefficientProxyEPv
1369:__ZN9Scripting11UnityEngineL64__ManagedRegistrationHelperFunction_ClothSphereColliderPairProxyEPv
1370:__ZN9Scripting11UnityEngine28ClothSphereColliderPairProxy9InitProxyEv
1371:__ZN9Scripting11UnityEngine28ClothSphereColliderPairProxy12CleanupProxyEv
1372:__ZN9Scripting11UnityEngine29ClothSkinningCoefficientProxy9InitProxyEv
1373:__ZN9Scripting11UnityEngine29ClothSkinningCoefficientProxy12CleanupProxyEv
1374:__ZN13dynamic_arrayI8Vector4fLm0EE4growEv
1375:__GLOBAL__sub_I_artifacts_WebGL_codegenerator_0_cpp
1376:__GLOBAL__sub_I_Runtime_GfxDevice_opengles_0_cpp
1377:__GLOBAL__sub_I_Runtime_VirtualFileSystem_0_cpp
1378:__GLOBAL__sub_I_Runtime_Input_0_cpp
1379:__GLOBAL__sub_I_GfxDeviceNull_cpp
1380:__GLOBAL__sub_I_External_ProphecySDK_BlitOperations_1_cpp
1381:__GLOBAL__sub_I_Runtime_2D_Renderer_0_cpp
1382:__GLOBAL__sub_I_Runtime_2D_Sorting_0_cpp
1383:__GLOBAL__sub_I_Runtime_2D_SpriteAtlas_0_cpp
1384:__GLOBAL__sub_I_Runtime_Allocator_0_cpp
1385:__GLOBAL__sub_I_Runtime_Allocator_2_cpp
1386:__GLOBAL__sub_I_Runtime_Application_0_cpp
1387:__GLOBAL__sub_I_Runtime_BaseClasses_0_cpp
1388:__GLOBAL__sub_I_Runtime_BaseClasses_1_cpp
1389:__GLOBAL__sub_I_Runtime_BaseClasses_2_cpp
1390:__GLOBAL__sub_I_Runtime_BaseClasses_3_cpp
1391:__GLOBAL__sub_I_Runtime_Burst_0_cpp
1392:__GLOBAL__sub_I_Runtime_Camera_0_cpp
1393:__GLOBAL__sub_I_Runtime_Camera_1_cpp
1394:__GLOBAL__sub_I_Runtime_Camera_2_cpp
1395:__GLOBAL__sub_I_Runtime_Camera_3_cpp
1396:__GLOBAL__sub_I_Runtime_Camera_4_cpp
1397:__GLOBAL__sub_I_Runtime_Camera_5_cpp
1398:__GLOBAL__sub_I_Runtime_Camera_6_cpp
1399:__GLOBAL__sub_I_Runtime_Camera_7_cpp
1400:__GLOBAL__sub_I_Shadows_cpp
1401:__GLOBAL__sub_I_Runtime_Camera_Culling_0_cpp
1402:__GLOBAL__sub_I_GUITexture_cpp
1403:__GLOBAL__sub_I_Runtime_Camera_RenderLoops_0_cpp
1404:__GLOBAL__sub_I_Runtime_Camera_RenderLoops_2_cpp
1405:__GLOBAL__sub_I_Runtime_Containers_0_cpp
1406:__GLOBAL__sub_I_Runtime_Core_Callbacks_0_cpp
1407:__GLOBAL__sub_I_Runtime_File_0_cpp
1408:__GLOBAL__sub_I_Runtime_Geometry_2_cpp
1409:__GLOBAL__sub_I_Runtime_Graphics_0_cpp
1410:___cxx_global_var_init_96
1411:__GLOBAL__sub_I_Runtime_Graphics_1_cpp
1412:__GLOBAL__sub_I_Runtime_Graphics_2_cpp
1413:__GLOBAL__sub_I_Runtime_Graphics_4_cpp
1414:__GLOBAL__sub_I_Runtime_Graphics_5_cpp
1415:__GLOBAL__sub_I_Runtime_Graphics_6_cpp
1416:__GLOBAL__sub_I_Runtime_Graphics_8_cpp
1417:__GLOBAL__sub_I_Runtime_Graphics_10_cpp
1418:__GLOBAL__sub_I_Runtime_Graphics_11_cpp
1419:__GLOBAL__sub_I_Runtime_Graphics_Billboard_0_cpp
1420:__GLOBAL__sub_I_Runtime_Graphics_LOD_0_cpp
1421:__GLOBAL__sub_I_Runtime_Graphics_Mesh_0_cpp
1422:__GLOBAL__sub_I_Runtime_Graphics_Mesh_1_cpp
1423:__GLOBAL__sub_I_Runtime_Graphics_Mesh_2_cpp
1424:__GLOBAL__sub_I_Runtime_Graphics_Mesh_4_cpp
1425:__GLOBAL__sub_I_Runtime_Graphics_Mesh_5_cpp
1426:__GLOBAL__sub_I_Runtime_Graphics_ScriptableRenderLoop_0_cpp
1427:__GLOBAL__sub_I_Runtime_Interfaces_0_cpp
1428:__GLOBAL__sub_I_Runtime_Interfaces_1_cpp
1429:__GLOBAL__sub_I_Runtime_Interfaces_2_cpp
1430:__GLOBAL__sub_I_Runtime_Jobs_0_cpp
1431:__GLOBAL__sub_I_Runtime_Jobs_1_cpp
1432:__GLOBAL__sub_I_Runtime_Jobs_Internal_1_cpp
1433:__GLOBAL__sub_I_Runtime_Math_2_cpp
1434:__GLOBAL__sub_I_Runtime_Math_Random_0_cpp
1435:__GLOBAL__sub_I_Runtime_Misc_0_cpp
1436:__GLOBAL__sub_I_Runtime_Misc_2_cpp
1437:___cxx_global_var_init_126
1438:__GLOBAL__sub_I_Runtime_Misc_4_cpp
1439:__GLOBAL__sub_I_Runtime_Misc_5_cpp
1440:__GLOBAL__sub_I_Runtime_PreloadManager_0_cpp
1441:__GLOBAL__sub_I_Runtime_Profiler_0_cpp
1442:__GLOBAL__sub_I_Runtime_Profiler_2_cpp
1443:__GLOBAL__sub_I_Runtime_SceneManager_0_cpp
1444:__GLOBAL__sub_I_Runtime_Shaders_0_cpp
1445:___cxx_global_var_init_116
1446:__GLOBAL__sub_I_Runtime_Shaders_2_cpp
1447:__GLOBAL__sub_I_Runtime_Shaders_ShaderImpl_2_cpp
1448:__GLOBAL__sub_I_Runtime_Transform_0_cpp
1449:__GLOBAL__sub_I_Runtime_Transform_1_cpp
1450:__GLOBAL__sub_I_Runtime_Utilities_2_cpp
1451:___cxx_global_var_init_2_9432
1452:__GLOBAL__sub_I_Runtime_Utilities_5_cpp
1453:__GLOBAL__sub_I_Runtime_Utilities_6_cpp
1454:__GLOBAL__sub_I_Runtime_Utilities_7_cpp
1455:__GLOBAL__sub_I_Runtime_Utilities_9_cpp
1456:__GLOBAL__sub_I_AssetBundleFileSystem_cpp
1457:__GLOBAL__sub_I_Runtime_Modules_0_cpp
1458:___cxx_global_var_init_13
1459:___cxx_global_var_init_14
1460:___cxx_global_var_init_15
1461:__GLOBAL__sub_I_Modules_Profiler_Public_0_cpp
1462:__GLOBAL__sub_I_Modules_Profiler_Runtime_1_cpp
1463:__GLOBAL__sub_I_UnsafeUtility_bindings_cpp
1464:__GLOBAL__sub_I_Runtime_GfxDevice_1_cpp
1465:__GLOBAL__sub_I_Runtime_GfxDevice_2_cpp
1466:__GLOBAL__sub_I_Runtime_GfxDevice_3_cpp
1467:__GLOBAL__sub_I_Runtime_GfxDevice_4_cpp
1468:__GLOBAL__sub_I_Runtime_GfxDevice_5_cpp
1469:__GLOBAL__sub_I_Runtime_PluginInterface_0_cpp
1470:__GLOBAL__sub_I_Runtime_Director_Core_1_cpp
1471:__GLOBAL__sub_I_Runtime_ScriptingBackend_Il2Cpp_0_cpp
1472:__GLOBAL__sub_I_Runtime_Scripting_0_cpp
1473:__GLOBAL__sub_I_Runtime_Scripting_2_cpp
1474:__GLOBAL__sub_I_Runtime_Scripting_3_cpp
1475:__GLOBAL__sub_I_Runtime_Mono_SerializationBackend_DirectMemoryAccess_0_cpp
1476:__GLOBAL__sub_I_Runtime_Mono_SerializationBackend_DirectMemoryAccess_1_cpp
1477:__GLOBAL__sub_I_TemplateInstantiations_cpp
1478:__GLOBAL__sub_I_Runtime_Scripting_APIUpdating_0_cpp
1479:__GLOBAL__sub_I_Runtime_Serialize_1_cpp
1480:__GLOBAL__sub_I_Runtime_Serialize_2_cpp
1481:__GLOBAL__sub_I_Runtime_Serialize_TransferFunctions_0_cpp
1482:__GLOBAL__sub_I_Runtime_Serialize_TransferFunctions_1_cpp
1483:__GLOBAL__sub_I_PlatformDependent_WebGL_Source_0_cpp
1484:__GLOBAL__sub_I_PlatformDependent_WebGL_Source_2_cpp
1485:__GLOBAL__sub_I_LogAssert_cpp
1486:__GLOBAL__sub_I_Shader_cpp
1487:__GLOBAL__sub_I_Transform_cpp
1488:__GLOBAL__sub_I_PlatformDependent_WebGL_External_baselib_builds_Source_0_cpp
1489:__ZN17MessageIdentifierC2EPKcNS_7OptionsEPKN5Unity4TypeES1_
1490:__ZL17InitializeMessagePv
1491:__ZN35RegisterRuntimeInitializeAndCleanupC2EPFvPvES2_iS0_
1492:__ZN20dynamic_array_detail18dynamic_array_data4growEmm
1493:__Z16realloc_internalPvmm10MemLabelId15AllocateOptionsPKci
1494:__Z15malloc_internalmm10MemLabelId15AllocateOptionsPKci
1495:__ZN13MemoryManager16InitializeMemoryEv
1496:__ZN13MemoryManager8AllocateEmm10MemLabelId15AllocateOptionsPKci
1497:__ZN13MemoryManager20WarnAdditionOverflowE15AllocateOptions
1498:__ZN12TLSAllocator8AllocateEmi
1499:__ZL16OutOfMemoryErrormm10MemLabelIdiPKc
1500:__Z12FormatBufferPciPKcz
1501:_printf_console
1502:__Z17DebugStringToFileRK21DebugStringToFileData
1503:__ZN13MemoryManager10DeallocateEPv10MemLabelIdPKci
1504:__ZN13MemoryManager25GetAllocatorContainingPtrEPKv
1505:__ZN12TLSAllocator13TryDeallocateEPv
1506:__ZN14StackAllocator13TryDeallocateEPv
1507:__Z40DebugStringToFilePostprocessedStacktraceRK21DebugStringToFileData
1508:__Z13GetStacktracei
1509:__ZN14CallbackArray3IRK21DebugStringToFileData7LogTypebE6InvokeES2_S3_b
1510:__ZL20InternalErrorConsolePKcz
1511:__ZL21InternalAssertConsolePKcz
1512:__ZL22InternalWarningConsolePKcz
1513:__ZL18InternalLogConsolePKcz
1514:__Z19WebGLPrintfConsolev7LogTypePKcPi
1515:__ZN14StackAllocator8AllocateEmi
1516:__Z6FormatPKcz
1517:__ZN13MemoryManagerC2Ev
1518:__ZN20DynamicHeapAllocatorC2EjbP15BucketAllocatorP24LowLevelVirtualAllocatorPKcb
1519:__ZN13MemoryManager17RegisterAllocatorEP13BaseAllocator
1520:__ZN13MemoryManager16LowLevelAllocateEmm
1521:_tlsf_create
1522:__ZN20DynamicHeapAllocatorD2Ev
1523:__ZN20DynamicHeapAllocatorD0Ev
1524:__ZN20DynamicHeapAllocator8AllocateEmi
1525:__ZN20DynamicHeapAllocator10ReallocateEPvmi
1526:__ZN20DynamicHeapAllocator10DeallocateEPv
1527:__ZN20DynamicHeapAllocator13TryDeallocateEPv
1528:__ZNK20DynamicHeapAllocator8ContainsEPKv
1529:__ZNK20DynamicHeapAllocator10GetPtrSizeEPKv
1530:__ZNK13BaseAllocator22GetAllocatedMemorySizeEv
1531:__ZNK13BaseAllocator21GetReservedMemorySizeEv
1532:__ZNK13BaseAllocator26GetPeakAllocatedMemorySizeEv
1533:__ZNK13BaseAllocator24GetBookKeepingMemorySizeEv
1534:__ZNK13BaseAllocator22GetNumberOfAllocationsEv
1535:_tlsf_free
1536:__ZN20DynamicHeapAllocator10RemovePoolEPv
1537:_tlsf_remove_pool
1538:_tlsf_realloc_align_inplace
1539:_tlsf_memalign
1540:_block_trim_used
1541:_block_locate_free
1542:_block_prepare_used
1543:__ZN20DynamicHeapAllocator14CreateTLSFPoolERm
1544:_tlsf_add_pool
1545:__ZdlPv
1546:__ZN13MemoryManager16VirtualAllocator17RegisterAllocatorEP13BaseAllocator
1547:__ZN13BaseAllocatorD2Ev
1548:__ZN13MemoryManager16VirtualAllocator18ReserveMemoryBlockEmN24LowLevelVirtualAllocator9BlockInfoE
1549:__ZN13MemoryManager16VirtualAllocator18ReleaseMemoryBlockEPvm
1550:__ZN13MemoryManager16VirtualAllocator12CommitMemoryEPvm
1551:__ZN13MemoryManager16VirtualAllocator14DecommitMemoryEPvm
1552:__ZN13MemoryManager16VirtualAllocator25GetMemoryBlockFromPointerEPKv
1553:__ZN13MemoryManager16VirtualAllocator23GetBlockInfoFromPointerEPKv
1554:_Baselib_Memory_SetPageState
1555:_Baselib_Memory_ReleasePages
1556:_Baselib_Memory_AllocatePages
1557:__ZL37Baselib_ErrorState_Validate_PageRangeyyyRK27Baselib_Memory_PageSizeInfoP18Baselib_ErrorState
1558:__ZN13MemoryManager10ReallocateEPvmm10MemLabelId15AllocateOptionsPKci
1559:__ZN13MemoryManager38ReallocateFallbackToAllocateDeallocateEPvmm10MemLabelId15AllocateOptionsPKci
1560:__ZN12TLSAllocator10ReallocateEPvmi
1561:__ZN14StackAllocator10ReallocateEPvmi
1562:__ZL19StaticDestroyShaderPv
1563:__Z19free_alloc_internalPv10MemLabelIdPKci
1564:_Baselib_TLS_Alloc
1565:__ZN19ThreadSpecificValueIiE15ReinitializeTLSEPv
1566:__ZN13dynamic_arrayIN5webgl23EmscriptenGamepadDeviceELm0EEC2Em10MemLabelId
1567:__ZN12_GLOBAL__N_116StaticInitializeEPv
1568:__ZN12_GLOBAL__N_113StaticDestroyEPv
1569:__ZN21SystemInfoStringCache16StaticInitializeEPv
1570:__ZN21SystemInfoStringCache13StaticDestroyEPv
1571:__Znwm10MemLabelIdmPKci
1572:__ZNSt3__26__treeINS_12__value_typeIN4core12basic_stringIcNS2_20StringStorageDefaultIcEEEE9PrefValueEENS_19__map_value_compareIS6_S8_NS_4lessIS6_EELb1EEENS_9allocatorIS8_EEE7destroyEPNS_11__tree_nodeIS8_PvEE
1573:__Znwm
1574:__ZL30InitializeGlobalNameConversionPv
1575:__ZL27CleanupGlobalNameConversionPv
1576:__ZNSt3__26__treeINS_12__value_typeINS_4pairIPcS3_EENS_3setIS3_15compare_tstringIPKcENS_9allocatorIS3_EEEEEENS_19__map_value_compareIS4_SD_20smaller_tstring_pairIS8_ELb1EEENSA_ISD_EEE7destroyEPNS_11__tree_nodeISD_PvEE
1577:__ZNSt3__26__treeIPc15compare_tstringIPKcENS_9allocatorIS1_EEE7destroyEPNS_11__tree_nodeIS1_PvEE
1578:__ZN13RuntimeStaticINSt3__23mapINS0_4pairIPcS3_EEPFbPvR14SafeBinaryReadE20smaller_tstring_pairIPKcENS0_9allocatorINS2_IKS4_S9_EEEEEELb0EE16StaticInitializeES5_
1579:__ZN13RuntimeStaticINSt3__23mapINS0_4pairIPcS3_EEPFbPvR14SafeBinaryReadE20smaller_tstring_pairIPKcENS0_9allocatorINS2_IKS4_S9_EEEEEELb0EE13StaticDestroyES5_
1580:__ZN17RuntimeStaticBase5SetupEPKcS1_i
1581:__Z15strcpy_truncatePcPKcmm
1582:__ZNSt3__26__treeINS_12__value_typeINS_4pairIPcS3_EEPFbPvR14SafeBinaryReadEEENS_19__map_value_compareIS4_SA_20smaller_tstring_pairIPKcELb1EEENS_9allocatorISA_EEE7destroyEPNS_11__tree_nodeISA_S5_EE
1583:__ZN17RuntimeStaticBase14InitializeImplEmPFPvS0_10MemLabelIdE
1584:__ZN13string_traitsIA20_cE8get_sizeERA20_Kc
1585:__ZN13string_traitsIA26_cE8get_sizeERA26_Kc
1586:__ZN13string_traitsIA21_cE8get_sizeERA21_Kc
1587:__ZN13string_traitsIA22_cE8get_sizeERA22_Kc
1588:__ZN13TypeTreeCacheL20OnRuntimeInitializedEPv
1589:__ZN13TypeTreeCacheL22OnRuntimeUninitializedEPv
1590:__ZN15TypeTreeQueriesL20OnRuntimeInitializedEPv
1591:__ZN15TypeTreeQueriesL22OnRuntimeUninitializedEPv
1592:__ZN15TypeTreeQueries5ResetEv
1593:__ZN14GfxDoubleCacheImy14GfxGenericHashImENSt3__28equal_toImEEN31GfxDoubleCacheConcurrencyPolicy11LocklessGetE42GfxDoubleCacheDefaultEmptyDeletedGeneratorImEL18MemLabelIdentifier82EE5ClearEv
1594:__ZN14GfxDoubleCacheImy14GfxGenericHashImENSt3__28equal_toImEEN31GfxDoubleCacheConcurrencyPolicy11LocklessGetE42GfxDoubleCacheDefaultEmptyDeletedGeneratorImEL18MemLabelIdentifier82EE4InitEv
1595:__ZN15dense_hashtableINSt3__24pairIKmyEEm14GfxGenericHashImEN14GfxDoubleCacheImyS5_NS0_8equal_toImEEN31GfxDoubleCacheConcurrencyPolicy11LocklessGetE42GfxDoubleCacheDefaultEmptyDeletedGeneratorImEL18MemLabelIdentifier82EE9SelectKeyES8_13stl_allocatorIS3_LSD_82ELi16EEE14squash_deletedEv
1596:__ZN15dense_hashtableINSt3__24pairIKmyEEm14GfxGenericHashImEN14GfxDoubleCacheImyS5_NS0_8equal_toImEEN31GfxDoubleCacheConcurrencyPolicy11LocklessGetE42GfxDoubleCacheDefaultEmptyDeletedGeneratorImEL18MemLabelIdentifier82EE9SelectKeyES8_13stl_allocatorIS3_LSD_82ELi16EEE9copy_fromERKSI_m
1597:_XXH32
1598:_XXH32_finalize
1599:__ZN13TypeTreeCache5ResetEv
1600:__ZN13TypeTreeCache18CachedTypeTreeData7ReleaseERS0_
1601:__ZN14GfxDoubleCacheIyN13TypeTreeCache18CachedTypeTreeDataENS0_13HashGeneratorENSt3__28equal_toIyEEN31GfxDoubleCacheConcurrencyPolicy11LocklessGetE42GfxDoubleCacheDefaultEmptyDeletedGeneratorIyEL18MemLabelIdentifier82EE7CleanupIPFvRS1_EEEvT_
1602:__ZN14GfxDoubleCacheIyN13TypeTreeCache18CachedTypeTreeDataENS0_13HashGeneratorENSt3__28equal_toIyEEN31GfxDoubleCacheConcurrencyPolicy11LocklessGetE42GfxDoubleCacheDefaultEmptyDeletedGeneratorIyEL18MemLabelIdentifier82EE4InitEv
1603:__ZN15dense_hashtableINSt3__24pairIKyN13TypeTreeCache18CachedTypeTreeDataEEEyNS3_13HashGeneratorEN14GfxDoubleCacheIyS4_S6_NS0_8equal_toIyEEN31GfxDoubleCacheConcurrencyPolicy11LocklessGetE42GfxDoubleCacheDefaultEmptyDeletedGeneratorIyEL18MemLabelIdentifier82EE9SelectKeyES9_13stl_allocatorIS5_LSE_82ELi16EEE14squash_deletedEv
1604:__ZN15dense_hashtableINSt3__24pairIKyN13TypeTreeCache18CachedTypeTreeDataEEEyNS3_13HashGeneratorEN14GfxDoubleCacheIyS4_S6_NS0_8equal_toIyEEN31GfxDoubleCacheConcurrencyPolicy11LocklessGetE42GfxDoubleCacheDefaultEmptyDeletedGeneratorIyEL18MemLabelIdentifier82EE9SelectKeyES9_13stl_allocatorIS5_LSE_82ELi16EEE9copy_fromERKSJ_m
1605:__ZN12UnityVersionC2EPKc
1606:__ZN11APIUpdating7CachingL20OnRuntimeInitializedEPv
1607:__ZN11APIUpdating7CachingL22OnRuntimeUninitializedEPv
1608:__ZN11APIUpdating7Caching5ResetEv
1609:__ZN15dense_hashtableINSt3__24pairIKN11APIUpdating7Caching6FQNKeyE17ScriptingClassPtrEES4_NS4_13HashGeneratorEN14GfxDoubleCacheIS4_S6_S8_NS0_8equal_toIS4_EEN31GfxDoubleCacheConcurrencyPolicy11LocklessGetENS4_12KeyGeneratorEL18MemLabelIdentifier113EE9SelectKeyESB_13stl_allocatorIS7_LSF_113ELi16EEE5clearEv
1610:__ZN15dense_hashtableINSt3__24pairIKN11APIUpdating7Caching6FQNKeyE17ScriptingClassPtrEES4_NS4_13HashGeneratorEN14GfxDoubleCacheIS4_S6_S8_NS0_8equal_toIS4_EEN31GfxDoubleCacheConcurrencyPolicy11LocklessGetENS4_12KeyGeneratorEL18MemLabelIdentifier113EE9SelectKeyESB_13stl_allocatorIS7_LSF_113ELi16EEED2Ev
1611:__ZN14GfxDoubleCacheI17ScriptingClassPtrS0_N11APIUpdating7Caching7TypeKey13HashGeneratorENS3_8EqualityEN31GfxDoubleCacheConcurrencyPolicy11LocklessGetENS3_12KeyGeneratorEL18MemLabelIdentifier113EE5ClearEv
1612:__ZN14GfxDoubleCacheIN11APIUpdating7Caching6FQNKeyE17ScriptingClassPtrNS2_13HashGeneratorENSt3__28equal_toIS2_EEN31GfxDoubleCacheConcurrencyPolicy11LocklessGetENS2_12KeyGeneratorEL18MemLabelIdentifier113EE4InitEv
1613:__ZN14GfxDoubleCacheI17ScriptingClassPtrS0_N11APIUpdating7Caching7TypeKey13HashGeneratorENS3_8EqualityEN31GfxDoubleCacheConcurrencyPolicy11LocklessGetENS3_12KeyGeneratorEL18MemLabelIdentifier113EE4InitEv
1614:__ZN15dense_hashtableINSt3__24pairIK17ScriptingClassPtrS2_EES2_N11APIUpdating7Caching7TypeKey13HashGeneratorEN14GfxDoubleCacheIS2_S2_S8_NS7_8EqualityEN31GfxDoubleCacheConcurrencyPolicy11LocklessGetENS7_12KeyGeneratorEL18MemLabelIdentifier113EE9SelectKeyESA_13stl_allocatorIS4_LSE_113ELi16EEE14squash_deletedEv
1615:__ZN15dense_hashtableINSt3__24pairIK17ScriptingClassPtrS2_EES2_N11APIUpdating7Caching7TypeKey13HashGeneratorEN14GfxDoubleCacheIS2_S2_S8_NS7_8EqualityEN31GfxDoubleCacheConcurrencyPolicy11LocklessGetENS7_12KeyGeneratorEL18MemLabelIdentifier113EE9SelectKeyESA_13stl_allocatorIS4_LSE_113ELi16EEE9copy_fromERKSJ_m
1616:__Z10CityHash64PKcm
1617:__ZL12HashLen0to16PKcm
1618:__ZN11APIUpdating7Caching6FQNKeyC2EPKcS3_S3_
1619:__ZN15dense_hashtableINSt3__24pairIKN11APIUpdating7Caching6FQNKeyE17ScriptingClassPtrEES4_NS4_13HashGeneratorEN14GfxDoubleCacheIS4_S6_S8_NS0_8equal_toIS4_EEN31GfxDoubleCacheConcurrencyPolicy11LocklessGetENS4_12KeyGeneratorEL18MemLabelIdentifier113EE9SelectKeyESB_13stl_allocatorIS7_LSF_113ELi16EEE13set_empty_keyERKS7_
1620:__ZN15dense_hashtableINSt3__24pairIKN11APIUpdating7Caching6FQNKeyE17ScriptingClassPtrEES4_NS4_13HashGeneratorEN14GfxDoubleCacheIS4_S6_S8_NS0_8equal_toIS4_EEN31GfxDoubleCacheConcurrencyPolicy11LocklessGetENS4_12KeyGeneratorEL18MemLabelIdentifier113EE9SelectKeyESB_13stl_allocatorIS7_LSF_113ELi16EEEC2ERKSK_m
1621:__ZN15dense_hashtableINSt3__24pairIKN11APIUpdating7Caching6FQNKeyE17ScriptingClassPtrEES4_NS4_13HashGeneratorEN14GfxDoubleCacheIS4_S6_S8_NS0_8equal_toIS4_EEN31GfxDoubleCacheConcurrencyPolicy11LocklessGetENS4_12KeyGeneratorEL18MemLabelIdentifier113EE9SelectKeyESB_13stl_allocatorIS7_LSF_113ELi16EEE4swapERSK_
1622:__ZN15dense_hashtableINSt3__24pairIKN11APIUpdating7Caching6FQNKeyE17ScriptingClassPtrEES4_NS4_13HashGeneratorEN14GfxDoubleCacheIS4_S6_S8_NS0_8equal_toIS4_EEN31GfxDoubleCacheConcurrencyPolicy11LocklessGetENS4_12KeyGeneratorEL18MemLabelIdentifier113EE9SelectKeyESB_13stl_allocatorIS7_LSF_113ELi16EEE9copy_fromERKSK_m
1623:__ZN15dense_hashtableINSt3__24pairIKN11APIUpdating7Caching6FQNKeyE17ScriptingClassPtrEES4_NS4_13HashGeneratorEN14GfxDoubleCacheIS4_S6_S8_NS0_8equal_toIS4_EEN31GfxDoubleCacheConcurrencyPolicy11LocklessGetENS4_12KeyGeneratorEL18MemLabelIdentifier113EE9SelectKeyESB_13stl_allocatorIS7_LSF_113ELi16EEE12expand_arrayEmN21dense_hash_map_traits17integral_constantIbLb0EEE
1624:__ZNK15dense_hashtableINSt3__24pairIKN11APIUpdating7Caching6FQNKeyE17ScriptingClassPtrEES4_NS4_13HashGeneratorEN14GfxDoubleCacheIS4_S6_S8_NS0_8equal_toIS4_EEN31GfxDoubleCacheConcurrencyPolicy11LocklessGetENS4_12KeyGeneratorEL18MemLabelIdentifier113EE9SelectKeyESB_13stl_allocatorIS7_LSF_113ELi16EEE12test_deletedERK30dense_hashtable_const_iteratorIS7_S4_S8_SH_SB_SJ_E
1625:__Z18CityHash64WithSeedPKcmy
1626:__ZNK15dense_hashtableINSt3__24pairIKN11APIUpdating7Caching6FQNKeyE17ScriptingClassPtrEES4_NS4_13HashGeneratorEN14GfxDoubleCacheIS4_S6_S8_NS0_8equal_toIS4_EEN31GfxDoubleCacheConcurrencyPolicy11LocklessGetENS4_12KeyGeneratorEL18MemLabelIdentifier113EE9SelectKeyESB_13stl_allocatorIS7_LSF_113ELi16EEE10test_emptyEm
1627:__Z50CreateTransferFunctionScriptingTraitsCacheInternalPv
1628:__Z49ClearTransferFunctionScriptingTraitsCacheInternalPv
1629:__Z41ClearTransferFunctionScriptingTraitsCachev
1630:__ZN13RuntimeStaticINSt3__23setIPFv17ScriptingClassPtrRN18SerializationCache4DataERbENS0_4lessIS8_EENS0_9allocatorIS8_EEEELb0EE16StaticInitializeEPv
1631:__ZN13RuntimeStaticINSt3__23setIPFv17ScriptingClassPtrRN18SerializationCache4DataERbENS0_4lessIS8_EENS0_9allocatorIS8_EEEELb0EE13StaticDestroyEPv
1632:__ZN18SerializationCacheL20OnRuntimeInitializedEPv
1633:__ZN18SerializationCacheL22OnRuntimeUninitializedEPv
1634:__ZN18SerializationCache5ResetEv
1635:__ZN18SerializationCache29DeleteCachedSerializationDataERNS_10CacheEntryE
1636:__ZN14GfxDoubleCacheIPvN18SerializationCache10CacheEntryENS1_21CommandsHashMapHasherENSt3__28equal_toIS0_EEN31GfxDoubleCacheConcurrencyPolicy11LocklessGetE42GfxDoubleCacheDefaultEmptyDeletedGeneratorIS0_EL18MemLabelIdentifier112EE7CleanupIPFvRS2_EEEvT_
1637:__ZN14GfxDoubleCacheIPvN18SerializationCache10CacheEntryENS1_21CommandsHashMapHasherENSt3__28equal_toIS0_EEN31GfxDoubleCacheConcurrencyPolicy11LocklessGetE42GfxDoubleCacheDefaultEmptyDeletedGeneratorIS0_EL18MemLabelIdentifier112EE4InitEv
1638:__ZN15dense_hashtableINSt3__24pairIKPvN18SerializationCache10CacheEntryEEES2_NS4_21CommandsHashMapHasherEN14GfxDoubleCacheIS2_S5_S7_NS0_8equal_toIS2_EEN31GfxDoubleCacheConcurrencyPolicy11LocklessGetE42GfxDoubleCacheDefaultEmptyDeletedGeneratorIS2_EL18MemLabelIdentifier112EE9SelectKeyESA_13stl_allocatorIS6_LSF_112ELi16EEE14squash_deletedEv
1639:__ZN15dense_hashtableINSt3__24pairIKPvN18SerializationCache10CacheEntryEEES2_NS4_21CommandsHashMapHasherEN14GfxDoubleCacheIS2_S5_S7_NS0_8equal_toIS2_EEN31GfxDoubleCacheConcurrencyPolicy11LocklessGetE42GfxDoubleCacheDefaultEmptyDeletedGeneratorIS2_EL18MemLabelIdentifier112EE9SelectKeyESA_13stl_allocatorIS6_LSF_112ELi16EEE9copy_fromERKSK_m
1640:__ZNSt3__26__treeIPFv17ScriptingClassPtrRN18SerializationCache4DataERbENS_4lessIS7_EENS_9allocatorIS7_EEE7destroyEPNS_11__tree_nodeIS7_PvEE
1641:__ZL45StaticInitScriptingManagedObjectProxyRegistryPv
1642:__ZL48StaticDestroyScriptingManagedObjectProxyRegistryPv
1643:__ZN20dynamic_array_detail18dynamic_array_data7reserveEmmm
1644:__ZL26StaticInitializeGCRecorderPv
1645:__ZL23StaticDestroyGCRecorderPv
1646:__ZN9profiling15ProfilerManager15DisposeRecorderEPNS_8RecorderE
1647:__ZN9profiling15ProfilerManager14CreateRecorderEPNS_6MarkerE
1648:__ZN9profiling8Recorder10SetEnabledEb
1649:__ZN9profiling8Recorder14SampleCallbackEPK23UnityProfilerMarkerDescttPK23UnityProfilerMarkerDataPv
1650:__ZN13RuntimeStaticINSt3__23mapIN4core12basic_stringIcNS2_20StringStorageDefaultIcEEEEPvNS0_4lessIS6_EENS0_9allocatorINS0_4pairIKS6_S7_EEEEEELb0EE16StaticInitializeES7_
1651:__ZN13RuntimeStaticINSt3__23mapIN4core12basic_stringIcNS2_20StringStorageDefaultIcEEEEPvNS0_4lessIS6_EENS0_9allocatorINS0_4pairIKS6_S7_EEEEEELb0EE13StaticDestroyES7_
1652:__ZN13RuntimeStaticINSt3__23mapI17ScriptingClassPtr13dynamic_arrayIS2_Lm0EENS0_4lessIS2_EENS0_9allocatorINS0_4pairIKS2_S4_EEEEEELb0EE16StaticInitializeEPv
1653:__ZN13RuntimeStaticINSt3__23mapI17ScriptingClassPtr13dynamic_arrayIS2_Lm0EENS0_4lessIS2_EENS0_9allocatorINS0_4pairIKS2_S4_EEEEEELb0EE13StaticDestroyEPv
1654:__ZN13RuntimeStaticINSt3__23mapI17ScriptingClassPtrS2_NS0_4lessIS2_EENS0_9allocatorINS0_4pairIKS2_S2_EEEEEELb0EE16StaticInitializeEPv
1655:__ZN13RuntimeStaticINSt3__23mapI17ScriptingClassPtrS2_NS0_4lessIS2_EENS0_9allocatorINS0_4pairIKS2_S2_EEEEEELb0EE13StaticDestroyEPv
1656:__ZN13RuntimeStaticINSt3__23mapI17ScriptingClassPtriNS0_4lessIS2_EENS0_9allocatorINS0_4pairIKS2_iEEEEEELb0EE16StaticInitializeEPv
1657:__ZN13RuntimeStaticINSt3__23mapI17ScriptingClassPtriNS0_4lessIS2_EENS0_9allocatorINS0_4pairIKS2_iEEEEEELb0EE13StaticDestroyEPv
1658:__ZN9profiling6MarkerC2EtPKcNS0_5FlagsE
1659:__ZN9profiling15ProfilerManager14RegisterMarkerEPNS_6MarkerEbb
1660:__ZN4core8hash_mapINS_12basic_stringIcNS_20StringStorageDefaultIcEEEEPN9profiling6MarkerENS_4hashIS4_EENSt3__28equal_toIS4_EEE6insertERKS4_RKS7_
1661:__ZN19dynamic_block_arrayIN9profiling15ProfilerManager13MarkerStorageELm1024EE4growEm
1662:__ZN4core8hash_setINS_4pairIKNS_12basic_stringIcNS_20StringStorageDefaultIcEEEEPN9profiling6MarkerELb1EEENS_9hash_pairINS_4hashIS5_EES6_S9_EENS_10equal_pairINSt3__28equal_toIS5_EES6_S9_EEE4growEi
1663:__ZNSt3__26__treeINS_12__value_typeI17ScriptingClassPtriEENS_19__map_value_compareIS2_S3_NS_4lessIS2_EELb1EEENS_9allocatorIS3_EEE7destroyEPNS_11__tree_nodeIS3_PvEE
1664:__ZNSt3__26__treeINS_12__value_typeI17ScriptingClassPtrS2_EENS_19__map_value_compareIS2_S3_NS_4lessIS2_EELb1EEENS_9allocatorIS3_EEE7destroyEPNS_11__tree_nodeIS3_PvEE
1665:__ZNSt3__26__treeINS_12__value_typeI17ScriptingClassPtr13dynamic_arrayIS2_Lm0EEEENS_19__map_value_compareIS2_S5_NS_4lessIS2_EELb1EEENS_9allocatorIS5_EEE7destroyEPNS_11__tree_nodeIS5_PvEE
1666:__ZNSt3__26__treeINS_12__value_typeIN4core12basic_stringIcNS2_20StringStorageDefaultIcEEEEPvEENS_19__map_value_compareIS6_S8_NS_4lessIS6_EELb1EEENS_9allocatorIS8_EEE7destroyEPNS_11__tree_nodeIS8_S7_EE
1667:__ZL24ClearRegisteredCallbacksPv
1668:__ZN13RuntimeStaticI15DirectorManagerLb0EE16StaticInitializeEPv
1669:__ZN13RuntimeStaticI15DirectorManagerLb0EE13StaticDestroyEPv
1670:__ZN15DirectorManagerD2Ev
1671:__ZN15DirectorManager12CleanupClassEv
1672:__ZN15DirectorManager14ConnectionPool8DestructEv
1673:__ZNSt3__26__treeINS_12__value_typeIPvsEENS_19__map_value_compareIS2_S3_NS_4lessIS2_EELb1EEE13stl_allocatorIS3_L18MemLabelIdentifier90ELi16EEE7destroyEPNS_11__tree_nodeIS3_S2_EE
1674:__ZN15DirectorManager14ConnectionPool11ClearUnsafeEv
1675:__Z23DestroyMutexLockedStackP16MutexLockedStack
1676:__ZN24StaticInitializeInternal13ConstructTypeI15DirectorManagerLb0EEEPvS2_10MemLabelId
1677:__ZN15DirectorManagerC2Ev
1678:__ZN15DirectorManager15InitializeClassEv
1679:__ZZN15DirectorManager15InitializeClassEvEN43InitializationDirectorSampleTimeRegistrator7ForwardEv
1680:__ZZN15DirectorManager15InitializeClassEvEN45FixedUpdateDirectorFixedSampleTimeRegistrator7ForwardEv
1681:__ZZN15DirectorManager15InitializeClassEvEN41FixedUpdateDirectorFixedUpdateRegistrator7ForwardEv
1682:__ZZN15DirectorManager15InitializeClassEvEN52FixedUpdateDirectorFixedUpdatePostPhysicsRegistrator7ForwardEv
1683:__ZZN15DirectorManager15InitializeClassEvEN31UpdateDirectorUpdateRegistrator7ForwardEv
1684:__ZZN15DirectorManager15InitializeClassEvEN48PreLateUpdateDirectorDeferredEvaluateRegistrator7ForwardEv
1685:__ZZN15DirectorManager15InitializeClassEvEN43PostLateUpdateDirectorLateUpdateRegistrator7ForwardEv
1686:__ZZN15DirectorManager15InitializeClassEvEN44PostLateUpdateDirectorRenderImageRegistrator7ForwardEv
1687:__ZZN15DirectorManager15InitializeClassEvEN52PreLateUpdateDirectorUpdateAnimationBeginRegistrator7ForwardEv
1688:__ZZN15DirectorManager15InitializeClassEvEN50PreLateUpdateDirectorUpdateAnimationEndRegistrator7ForwardEv
1689:__ZZN15DirectorManager15InitializeClassEvEN42shutdownBeforeCleanupAllObjectsRegistrator7ForwardEv
1690:__ZZN15DirectorManager15InitializeClassEvEN32enterPlayModePreStartRegistrator7ForwardEv
1691:__ZN15DirectorManager14ConnectionPool14InitializePoolEmf
1692:__Z22CreateMutexLockedStackv
1693:__ZN17DirectorFrameTime14ResetDSPValuesEv
1694:__ZN15DirectorManager23ProcessPlayStateChangesEv
1695:__ZL18FlushGraphCommandsR13dynamic_arrayI16GraphCommandPairLm0EER16MutexLockedStack
1696:__ZN13PlayableGraph12PrepareFrameE16PrepareFrameTypedyj21DirectorThreadContext
1697:__ZN13PlayableGraph27DispatchOutputNotificationsEv
1698:__ZN13PlayableGraph7DestroyEv
1699:__ZN17ScriptingGCHandle15ReleaseAndClearEv
1700:__ZN13PlayableGraph23DestroyPendingPlayablesEv
1701:__ZN13PlayableGraph8EvaluateEdyj
1702:__ZN19GraphCycleValidator5CheckERK13PlayableGraph
1703:__ZN14PlayableOutput25FireConnectionHashChangedEv
1704:__ZNK14PlayableOutput17GetSourcePlayableEv
1705:__ZN19GraphCycleValidator8TraverseERK8PlayableiRN4core8hash_setINSt3__24pairIPS1_iEENS_30PlayableOutputPortPairHashFuncENS5_8equal_toIS8_EEEE
1706:__ZN4core8hash_setINSt3__24pairIPK8PlayableiEEN19GraphCycleValidator30PlayableOutputPortPairHashFuncENS1_8equal_toIS6_EEE6insertERKS6_
1707:__ZN14PlayableOutput26ClearInvalidSourcePlayableEv
1708:__ZN20dynamic_array_detail18dynamic_array_data13resize_bufferEm12ResizePolicymm
1709:__ZN13PlayableGraph14DestroyOutputsEv
1710:__ZN8Playable6HandleEv
1711:__ZN8Playable16DisconnectInputsEPS_
1712:__ZN8Playable21DisconnectFromOutputsEPS_
1713:__ZN8Playable10DisconnectEPS_i
1714:__ZN8Playable20ClearInputConnectionEi
1715:__ZN15DirectorManager11AcquireNodeEv
1716:__ZN14PlayableOutput7DestroyEv
1717:__ZN15DirectorManager14FreeOutputNodeEP19HPlayableOutputNode
1718:__ZN13dynamic_arrayI25PlayableNotificationEntryLm0EE18resize_initializedEm12ResizePolicy
1719:__ZN17ScriptingGCHandle7AcquireE18ScriptingObjectPtr25ScriptingGCHandleWeakness
1720:__ZN14PlayableOutput6HandleEv
1721:__ZN14PlayableOutput21DispatchNotificationsEv
1722:__Z23GetCoreScriptingClassesv
1723:__Z30scripting_class_is_subclass_of17ScriptingClassPtrS_
1724:__ZNK10GameObject8IsActiveEv
1725:__ZN18ScriptingArguments9AddStructEPKv
1726:__ZN18ScriptingArguments9AddObjectE18ScriptingObjectPtr
1727:__ZN19ScriptingInvocation6InvokeEP21ScriptingExceptionPtrb
1728:__Z23scripting_method_invoke18ScriptingMethodPtr18ScriptingObjectPtrR18ScriptingArgumentsP21ScriptingExceptionPtrb
1729:__ZN9Scripting32GetScriptingWrapperForInstanceIDEi
1730:__ZN9Scripting11UnityEngine10DebugProxy25CallOverridenDebugHandlerE18ScriptingObjectPtrNS0_11ObjectProxyEP21ScriptingExceptionPtr
1731:__ZN9Scripting23LogExceptionFromManagedE21ScriptingExceptionPtriPKcb
1732:__Z30scripting_stack_trace_info_for21ScriptingExceptionPtrR14StackTraceInfo
1733:__ZN18ScriptingArguments12AddOutObjectEP18ScriptingObjectPtr
1734:__Z24scripting_cpp_string_for18ScriptingStringPtr
1735:__Z21PostprocessStacktracePKcRN4core12basic_stringIcNS1_20StringStorageDefaultIcEEEE
1736:__ZN4core5SplitENS_16basic_string_refIcEEcR13dynamic_arrayIS1_Lm0EEm
1737:__ZNK10FileSystem16CurrentDirectoryEv
1738:__Z14replace_stringIN4core12basic_stringIcNS0_20StringStorageDefaultIcEEEEEvRT_PKcS8_m
1739:__ZN4core4TrimENS_16basic_string_refIcEEPKc
1740:__Z14replace_stringIN4core17string_with_labelILi1EEEEvRT_PKcS6_m
1741:__Z14replace_stringIN4core17string_with_labelILi1EEEEvRT_RKS3_S6_m
1742:__ZN4core13StringBuilder14UpdateWritePtrERPcb
1743:__Z14replace_stringIN4core12basic_stringIcNS0_20StringStorageDefaultIcEEEEEvRT_RKS5_S8_m
1744:__Z9SplitImplI13dynamic_arrayIN4core16basic_string_refIcEELm0EEEvS3_cRT_m
1745:__Z18ConvertUTF16toUTF8PKtmPhRm
1746:__ZL30InitializeCoreScriptingClassesv
1747:__ZL27CleanupCoreScriptingClassesv
1748:__Z27SetupModuleScriptingClassesPFvvES0_
1749:__ZN19ScriptingInvocation6InvokeIbEET_P21ScriptingExceptionPtrb
1750:__Z12OptionalTypePKcS0_S0_
1751:__Z11RequireTypePKcS0_S0_
1752:__Z13RequireMethodPKcS0_S0_S0_
1753:__Z14OptionalMethodPKcS0_S0_S0_
1754:__ZN9Scripting9GetMethodE17ScriptingClassPtrPKc
1755:__Z36scripting_class_get_method_from_name17ScriptingClassPtrPKci
1756:__Z43scripting_class_get_method_from_name_filter17ScriptingClassPtrPKciN24ScriptingMethodFiltering18MethodSearchFilterEPK16ScriptingTypePtr
1757:__ZN24ScriptingMethodFiltering36MethodDescriptionMatchesSearchFilterENS_18MethodSearchFilterEbi
1758:__Z29scripting_class_from_fullnamePKcS0_S0_
1759:__Z32scripting_class_get_nested_types17ScriptingClassPtrRNSt3__26vectorIS_13stl_allocatorIS_L18MemLabelIdentifier1ELi16EEEE
1760:__ZNSt3__26vectorI17ScriptingClassPtr13stl_allocatorIS1_L18MemLabelIdentifier1ELi16EEE21__push_back_slow_pathIRKS1_EEvOT_
1761:__ZN11MonoManager17GetScriptingClassEPKcS1_S1_
1762:__ZNK4core8hash_setINS_4pairIKNS_12basic_stringIcNS_20StringStorageDefaultIcEEEEiLb1EEENS_9hash_pairINS_4hashIS5_EES6_iEENS_10equal_pairINSt3__28equal_toIS5_EES6_iEEE6lookupIS5_EEPNSH_4nodeERKT_
1763:__ZN9Scripting34ScriptingWrapperClassForNativeTypeEPKN5Unity4TypeE
1764:__Z33scripting_unity_engine_object_new17ScriptingClassPtrP6Object
1765:__ZN9Scripting31ConnectScriptingWrapperToObjectE18ScriptingObjectPtrP6Object
1766:__ZN19ScriptingInvocationC2E18ScriptingMethodPtr
1767:__ZN18ScriptingArgumentsC2Ev
1768:__ZN15DirectorManager17AcquireOutputNodeEv
1769:__ZN14PlayableOutput15PrepareTraverseERK9FrameDatai
1770:__ZN8Playable19PrepareFrameVisitorER19DirectorVisitorInfo
1771:__ZN25PreOrderPlayableTraverser8TraverseER19DirectorVisitorInfo
1772:__ZN13PlayableGraph18DisableMultithreadEv
1773:__ZN13PlayableGraph6HandleEv
1774:__ZN8Playable16ProcessPlayStateERK19DirectorVisitorInfo
1775:__ZN8Playable11PrepareDataERK19DirectorVisitorInfo
1776:__ZN15DirectorManager29CacheScriptingMethodsForClassE17ScriptingClassPtr
1777:__ZNK15DirectorManager16GetScriptMethodsEs
1778:__ZNK15PlayableMethods17InvokePrepareDataERK18ScriptingObjectPtrRK9HPlayableP18ScriptingFrameData
1779:__ZN9Scripting29GetFirstNonGenericParentClassE17ScriptingClassPtrS0_
1780:__ZN9Scripting21GetOverrideMethodOnlyEPKc17ScriptingClassPtrS2_
1781:__ZN8Playable16CallOnGraphStartEv
1782:__ZNK15PlayableMethods20InvokeBehaviourDelayERK18ScriptingObjectPtrRK9HPlayableP18ScriptingFrameData
1783:__ZNK15PlayableMethods19InvokeBehaviourPlayERK18ScriptingObjectPtrRK9HPlayableP18ScriptingFrameData
1784:__ZNK15PlayableMethods20InvokeBehaviourPauseERK18ScriptingObjectPtrRK9HPlayableP18ScriptingFrameData
1785:__ZN8Playable15CallOnGraphStopEv
1786:__ZNK15PlayableMethods17InvokeOnGraphStopERK18ScriptingObjectPtrRK9HPlayable
1787:__ZNK15PlayableMethods18InvokeOnGraphStartERK18ScriptingObjectPtrRK9HPlayable
1788:__ZN13dynamic_arrayI16GraphCommandPairLm0EE13clear_deallocEv
1789:__ZN13dynamic_arrayI16GraphCommandPairLm0EE9push_backERKS0_
1790:__ZN15DirectorManager20ExecutePrepareFramesE13DirectorStage
1791:__ZN15DirectorManager18RebuildProcessJobsEv
1792:__ZN15DirectorManager19RegisterProcessJobsEP13PlayableGraph
1793:__ZNSt3__26vectorI20ProcessCallbackGroupNS_9allocatorIS1_EEE21__push_back_slow_pathIRKS1_EEvOT_
1794:__ZN15DirectorManager23RebuildPrepareFrameJobsEv
1795:__ZL19PrepareFrameJobFuncP15PrepareFrameJobj
1796:__Z26ScheduleJobForEachInternalR8JobFencePFvPvjES1_iPFvS1_E11JobPriority
1797:__ZN13dynamic_arrayI15PrepareFrameJobLm0EE4growEv
1798:__ZN15DirectorManager22EvaluateDeferredGraphsEv
1799:__ZN15DirectorManager17OnSampleFixedTimeEv
1800:__ZN17DirectorFrameTime10SampleTimeEffb
1801:__ZN17DirectorFrameTime21CalculateDSPDeltaTimeEv
1802:__ZN15DirectorManager12OnSampleTimeEv
1803:__ZN15DirectorManager14ConnectionPool16GrowEmptyBucketsEv
1804:__ZN15DirectorManager14ConnectionPool10CreateItemEi
1805:__ZL32StaticInitializeIUnityInterfacesPv
1806:__ZL29StaticCleanupIUnityInterfacesPv
1807:__ZL30StaticInitializeIUnityGraphicsPv
1808:__ZL30StaticInitializeIUnityProfilerPv
1809:__ZL27StaticCleanupIUnityProfilerPv
1810:__ZN13RuntimeStaticI13dynamic_arrayI22RenderingExtPluginDescLm0EELb0EE16StaticInitializeEPv
1811:__ZN13RuntimeStaticI13dynamic_arrayI19ShaderExtPluginDescLm0EELb0EE16StaticInitializeEPv
1812:__ZN13RuntimeStaticI37UnityShaderCompilerExtPluginConfigureLb0EE16StaticInitializeEPv
1813:__ZN24StaticInitializeInternal13ConstructTypeI37UnityShaderCompilerExtPluginConfigureLb0EEEPvS2_10MemLabelId
1814:__ZN37UnityShaderCompilerExtPluginConfigure14ReserveKeywordEPKc
1815:__ZN37UnityShaderCompilerExtPluginConfigure25SetGPUProgramCompilerMaskEj
1816:__ZN37UnityShaderCompilerExtPluginConfigure20SetShaderProgramMaskEj
1817:__ZN24ProfilerCallbacksHandlerD2Ev
1818:__ZN24ProfilerCallbacksHandler22CreateCategoryCallbackEtPv
1819:__ZN9profiling15ProfilerManager29UnregisterNewCategoryCallbackEPFvtPvES1_
1820:__ZN24ProfilerCallbacksHandler19CreateEventCallbackEPN9profiling6MarkerEPv
1821:__ZN9profiling15ProfilerManager27UnregisterNewMarkerCallbackEPFvPNS_6MarkerEPvES3_
1822:__ZN9profiling15ProfilerManager24UnregisterMarkerCallbackEPNS_6Marker8CallbackEPS1_
1823:__ZN24ProfilerCallbacksHandlerC2E10MemLabelId
1824:__Z34RegisterCreateCategoryCallbackImplPFvPK25UnityProfilerCategoryDescPvES2_
1825:__Z36UnregisterCreateCategoryCallbackImplPFvPK25UnityProfilerCategoryDescPvES2_
1826:__Z31RegisterCreateEventCallbackImplPFvPK23UnityProfilerMarkerDescPvES2_
1827:__Z33UnregisterCreateEventCallbackImplPFvPK23UnityProfilerMarkerDescPvES2_
1828:__Z25RegisterEventCallbackImplPK23UnityProfilerMarkerDescPFvS1_ttPK23UnityProfilerMarkerDataPvES5_
1829:__Z27UnregisterEventCallbackImplPK23UnityProfilerMarkerDescPFvS1_ttPK23UnityProfilerMarkerDataPvES5_
1830:__Z25RegisterFrameCallbackImplPFvPvES_
1831:__Z27UnregisterFrameCallbackImplPFvPvES_
1832:__Z32RegisterCreateThreadCallbackImplPFvPK23UnityProfilerThreadDescPvES2_
1833:__ZN9profiling15ProfilerManager26UnregisterNewFrameCallbackEPFvPvES1_
1834:__ZN9profiling15ProfilerManager24RegisterNewFrameCallbackEPFvPvES1_
1835:__ZN24ProfilerCallbacksHandler23UnregisterEventCallbackEPK23UnityProfilerMarkerDescPFvS2_ttPK23UnityProfilerMarkerDataPvES6_
1836:__ZN24ProfilerCallbacksHandler28RemoveCallbackFromAllMarkersEPFvPK23UnityProfilerMarkerDescttPK23UnityProfilerMarkerDataPvES6_R13dynamic_arrayINS_17EventCallbackDataELm0EE
1837:__ZN9profiling15ProfilerManager25RegisterNewMarkerCallbackEPFvPNS_6MarkerEPvES3_
1838:__ZN9profiling15ProfilerManager27RegisterNewCategoryCallbackEPFvtPvES1_
1839:__ZN24ProfilerCallbacksHandler13FrameCallbackEPv
1840:__ZL15GetRendererImplv
1841:__Z31RegisterDeviceEventCallbackImplPFv23UnityGfxDeviceEventTypeE
1842:__Z33UnregisterDeviceEventCallbackImplPFv23UnityGfxDeviceEventTypeE
1843:__ZL23ReserveEventIDRangeImpli
1844:__ZNSt3__26__treeINS_12__value_typeI18UnityInterfaceGUIDP15IUnityInterfaceEENS_19__map_value_compareIS2_S5_NS_4lessIS2_EELb1EEE13stl_allocatorIS5_L18MemLabelIdentifier10ELi16EEE7destroyEPNS_11__tree_nodeIS5_PvEE
1845:__ZL16GetInterfaceImpl18UnityInterfaceGUID
1846:__ZL21GetInterfaceSplitImplyy
1847:__ZL21RegisterInterfaceImpl18UnityInterfaceGUIDP15IUnityInterface
1848:__ZL26RegisterInterfaceSplitImplyyP15IUnityInterface
1849:__ZNSt3__26__treeINS_12__value_typeI18UnityInterfaceGUIDP15IUnityInterfaceEENS_19__map_value_compareIS2_S5_NS_4lessIS2_EELb1EEE13stl_allocatorIS5_L18MemLabelIdentifier10ELi16EEE25__emplace_unique_key_argsIS2_JNS_4pairIS2_S4_EEEEENSF_INS_15__tree_iteratorIS5_PNS_11__tree_nodeIS5_PvEElEEbEERKT_DpOT0_
1850:__ZN33InstancedMeshIntermediateRenderer16StaticInitializeEPv
1851:__ZN33InstancedMeshIntermediateRenderer13StaticDestroyEPv
1852:__ZN32IndirectMeshIntermediateRenderer16StaticInitializeEPv
1853:__ZN32IndirectMeshIntermediateRenderer13StaticDestroyEPv
1854:__ZN43InstancedProceduralMeshIntermediateRenderer16StaticInitializeEPv
1855:__ZN43InstancedProceduralMeshIntermediateRenderer13StaticDestroyEPv
1856:__ZN10MemoryPoolD2Ev
1857:__ZN10MemoryPoolC2E10MemLabelIdbPKciii
1858:__ZN13RuntimeStaticI17GfxVersionManagerLb0EE16StaticInitializeEPv
1859:__ZN13RuntimeStaticI17GfxVersionManagerLb0EE13StaticDestroyEPv
1860:__ZN13RuntimeStaticI21ScalableBufferManagerLb0EE13StaticDestroyEPv
1861:__ZN17GfxVersionManagerD2Ev
1862:__ZN17GfxVersionManager14GarbageCollectEy
1863:__Z23DestroyMutexLockedQueueP16MutexLockedQueue10MemLabelId
1864:__ZN14GfxVersionList4Impl14GarbageCollectEy
1865:__ZN14GfxVersionList4ImplD2Ev
1866:__ZN24StaticInitializeInternal13ConstructTypeI17GfxVersionManagerLb0EEEPvS2_10MemLabelId
1867:__Z22CreateMutexLockedQueue10MemLabelId
1868:__ZL25CleanupTextureIDGeneratorPv
1869:__ZN13HandleManager12ClearHandlesEv
1870:__ZN13HandleManagerC2Ev
1871:__ZN16GeometryJobTasksC2E10MemLabelId
1872:__ZN9ShaderLab16FastPropertyName4InitEPKc
1873:__Z19CleanupTextureIdMapPv
1874:__ZN21VersionedTextureIdMap7CleanupEv
1875:__ZNK4core8hash_setINS_4pairIKPKciLb0EEENS_9hash_pairIN9ShaderLab23ConstCharPtrHashFunctorES4_iEENS_10equal_pairINS7_19ConstCharPtrEqualToES4_iEEE6lookupIS3_EEPNSD_4nodeERKT_
1876:__Z20IsVectorBuiltinParamPKcPi
1877:__Z20IsMatrixBuiltinParamPKcPi
1878:__Z20IsTexEnvBuiltinParamPKcPi
1879:__ZN4core8hash_mapIPKciN9ShaderLab23ConstCharPtrHashFunctorENS3_19ConstCharPtrEqualToEE6insertERKS2_RKi
1880:__ZN10InstancingL16RegisterCallbackEPv
1881:__ZN10InstancingL18UnregisterCallbackEPv
1882:__ZN10InstancingL21OnGraphicsCapsChangedEv
1883:__ZN13RuntimeStaticI18StackAllocatorPoolLb0EE16StaticInitializeEPv
1884:__ZN13RuntimeStaticI18StackAllocatorPoolLb0EE13StaticDestroyEPv
1885:__ZN18StackAllocatorPoolD2Ev
1886:__ZN19ManagedTempMemScopeD2Ev
1887:__ZN14StackAllocatorD2Ev
1888:__ZN14StackAllocatorD0Ev
1889:__ZN14StackAllocator10DeallocateEPv
1890:__ZNK14StackAllocator8ContainsEPKv
1891:__ZNK14StackAllocator10GetPtrSizeEPKv
1892:__ZN27TrackOverflowStackAllocatorD2Ev
1893:__ZN27TrackOverflowStackAllocatorD0Ev
1894:__ZN27TrackOverflowStackAllocator8AllocateEmi
1895:__ZN27TrackOverflowStackAllocator10DeallocateEPv
1896:__ZN27TrackOverflowStackAllocator13TryDeallocateEPv
1897:__ZNK27TrackOverflowStackAllocator8ContainsEPKv
1898:__ZN14StackAllocator23FreeAllStackAllocationsEv
1899:__ZN24StaticInitializeInternal13ConstructTypeI18StackAllocatorPoolLb0EEEPvS2_10MemLabelId
1900:__Z12StringToGUIDPKc
1901:__Z12StringToGUIDPKcm
1902:__ZN26FormatArgMapTypeHelperBaseImLb1EE18FormatArgFormatterERN4core12basic_stringIcNS1_20StringStorageDefaultIcEEEENS1_16basic_string_refIcEEPKPKv
1903:__ZN4core13FormatValueToERNS_12basic_stringIcNS_20StringStorageDefaultIcEEEERKmNS_16basic_string_refIcEE
1904:__Z14ParsePrecisionN4core16basic_string_refIcEEi
1905:__ZL18FormatIntAsDecimalImEvRN4core12basic_stringIcNS0_20StringStorageDefaultIcEEEEiT_
1906:__ZL16FormatIntAsFixedImEvRN4core12basic_stringIcNS0_20StringStorageDefaultIcEEEEiT_
1907:__ZL21FormatIntAsScientificImEvRN4core12basic_stringIcNS0_20StringStorageDefaultIcEEEEiibT_
1908:__ZL18FormatIntAsDecimalIiEvRN4core12basic_stringIcNS0_20StringStorageDefaultIcEEEEiT_
1909:__Z11StringToIntRKN4core16basic_string_refIcEE
1910:__ZN26FormatArgMapTypeHelperBaseIyLb0EE18FormatArgFormatterERN4core12basic_stringIcNS1_20StringStorageDefaultIcEEEENS1_16basic_string_refIcEEPKPKv
1911:__ZN4core13FormatValueToERNS_12basic_stringIcNS_20StringStorageDefaultIcEEEERKyNS_16basic_string_refIcEE
1912:__ZL18FormatIntAsDecimalIyEvRN4core12basic_stringIcNS0_20StringStorageDefaultIcEEEEiT_
1913:__ZL16FormatIntAsFixedIyEvRN4core12basic_stringIcNS0_20StringStorageDefaultIcEEEEiT_
1914:__ZL21FormatIntAsScientificIyEvRN4core12basic_stringIcNS0_20StringStorageDefaultIcEEEEiibT_
1915:__ZN26FormatArgMapTypeHelperBaseIN4core12basic_stringIcNS0_20StringStorageDefaultIcEEEELb0EE18FormatArgFormatterERS4_NS0_16basic_string_refIcEEPKPKv
1916:__ZN13RuntimeStaticI13ModuleManagerLb0EE13StaticDestroyEPv
1917:__ZN12_GLOBAL__N_138ArchiveRedirectFileSystemStaticDestroyEPv
1918:__ZN10MemoryPool16StaticInitializeEPv
1919:__ZN10MemoryPool13StaticDestroyEPv
1920:__ZN13RuntimeStaticI14CallbackArray1IbELb0EE16StaticInitializeEPv
1921:__ZN23DefaultMeshVertexFormatC2E17ShaderChannelMask
1922:__ZN24StaticInitializeInternal13ConstructTypeI14CallbackArray1IbELb0EEEPvS3_10MemLabelId
1923:__ZN13RuntimeStaticINSt3__26vectorIN4core12basic_stringIcNS2_20StringStorageDefaultIcEEEENS0_9allocatorIS6_EEEELb0EE16StaticInitializeEPv
1924:__ZN13RuntimeStaticINSt3__26vectorIN4core12basic_stringIcNS2_20StringStorageDefaultIcEEEENS0_9allocatorIS6_EEEELb0EE13StaticDestroyEPv
1925:__Z15InitializeCRC32Pv
1926:__ZN5crc3215InitializeTableEv
1927:__ZN26FormatArgMapTypeHelperBaseIN4core16basic_string_refIcEELb0EE18FormatArgFormatterERNS0_12basic_stringIcNS0_20StringStorageDefaultIcEEEES2_PKPKv
1928:__ZN13RuntimeStaticINSt3__23setI19RepeatingLogMessageNS0_4lessIS2_EE13stl_allocatorIS2_L18MemLabelIdentifier78ELi16EEEELb0EE16StaticInitializeEPv
1929:__ZN13RuntimeStaticINSt3__23setI19RepeatingLogMessageNS0_4lessIS2_EE13stl_allocatorIS2_L18MemLabelIdentifier78ELi16EEEELb0EE13StaticDestroyEPv
1930:__ZNSt3__26__treeI19RepeatingLogMessageNS_4lessIS1_EE13stl_allocatorIS1_L18MemLabelIdentifier78ELi16EEE7destroyEPNS_11__tree_nodeIS1_PvEE
1931:__ZN13RuntimeStaticINSt3__28multimapIi25TransformAccessArrayEntryNS0_4lessIiEENS0_9allocatorINS0_4pairIKiS2_EEEEEELb0EE16StaticInitializeEPv
1932:__ZN13RuntimeStaticINSt3__28multimapIi25TransformAccessArrayEntryNS0_4lessIiEENS0_9allocatorINS0_4pairIKiS2_EEEEEELb0EE13StaticDestroyEPv
1933:__ZL36TransformAccessArray_InitializeClassPv
1934:__ZL33TransformAccessArray_CleanupClassPv
1935:__ZN32TransformHierarchyChangeDispatch15InitializeClassEPv
1936:__ZN32TransformHierarchyChangeDispatch12CleanupClassEPv
1937:__ZN32TransformHierarchyChangeDispatchD2Ev
1938:__ZN32TransformHierarchyChangeDispatchC2Ev
1939:__ZN32TransformHierarchyChangeDispatch16UnregisterSystemER36TransformHierarchyChangeSystemHandle
1940:__ZL29TransformAccessChangeCallbackPK15TransformAccessj
1941:__ZN32TransformHierarchyChangeDispatch14RegisterSystemEPKcNS_12InterestTypeEPFvPK15TransformAccessjE
1942:__ZL30TransformAccessDestroyCallbackPK15TransformAccessj
1943:__ZL28TransformAccessClearCallbackPK15TransformAccessj
1944:__ZL20PatchTransformAccessiRK15TransformAccessbb
1945:__ZN4core8hash_setIiNS_4hashIiEENSt3__28equal_toIiEEE6insertERKi
1946:__ZNSt3__26__treeINS_12__value_typeIi25TransformAccessArrayEntryEENS_19__map_value_compareIiS3_NS_4lessIiEELb1EEENS_9allocatorIS3_EEE7destroyEPNS_11__tree_nodeIS3_PvEE
1947:__ZN23TransformChangeDispatch15InitializeClassEPv
1948:__ZN23TransformChangeDispatch12CleanupClassEPv
1949:__ZN23TransformChangeDispatchD2Ev
1950:__ZN23TransformChangeDispatchC2Ev
1951:__ZN9ShaderLab19CommonPropertyNames16StaticInitializeEPv
1952:__ZN9ShaderLab19CommonPropertyNames13StaticCleanupEPv
1953:__ZN13RuntimeStaticIN4core12basic_stringIcNS0_20StringStorageDefaultIcEEEELb0EE16StaticInitializeEPv
1954:__ZN13RuntimeStaticIN4core12basic_stringIcNS0_20StringStorageDefaultIcEEEELb0EE13StaticDestroyEPv
1955:__ZN9ShaderLabL25StaticInitializeShaderLabEPv
1956:__ZN9ShaderLabL22StaticDestroyShaderLabEPv
1957:__ZNSt3__25stackIPN9ShaderLab21SerializedShaderStateENS_5dequeIS3_NS_9allocatorIS3_EEEEED2Ev
1958:__ZN8keywords7CleanupEv
1959:__ZN9shadertag7CleanupEv
1960:__ZNSt3__26__treeINS_12__value_typeIPKc11ShaderTagIDEENS_19__map_value_compareIS3_S5_27compare_tstring_insensitiveIS3_ELb1EEENS_9allocatorIS5_EEE7destroyEPNS_11__tree_nodeIS5_PvEE
1961:__ZN16ShaderKeywordMapD2Ev
1962:__ZN16ShaderKeywordMap6CreateEN4core16basic_string_refIcEE17ShaderKeywordType
1963:__ZNK16ShaderKeywordMap4FindEN4core16basic_string_refIcEE
1964:__ZNK16ShaderKeywordMap7GetNameEi
1965:__ZNK16ShaderKeywordMap14GetKeywordTypeEi
1966:__ZN16ShaderKeywordMap11SetCapacityEj
1967:__ZNK4core8hash_setINS_4pairIKNS_12basic_stringIcNS_20StringStorageDefaultIcEEEEN16ShaderKeywordMap18ShaderKeywordEntryELb1EEENS_9hash_pairINS_4hashIS5_EES6_S8_EENS_10equal_pairINSt3__28equal_toIS5_EES6_S8_EEE6lookupIS5_EEPNSJ_4nodeERKT_
1968:__ZN4core8hash_mapINS_12basic_stringIcNS_20StringStorageDefaultIcEEEEN16ShaderKeywordMap18ShaderKeywordEntryENS_4hashIS4_EENSt3__28equal_toIS4_EEE6insertERKS4_RKS6_
1969:__ZN4core8hash_setINS_4pairIKNS_12basic_stringIcNS_20StringStorageDefaultIcEEEEN16ShaderKeywordMap18ShaderKeywordEntryELb1EEENS_9hash_pairINS_4hashIS5_EES6_S8_EENS_10equal_pairINSt3__28equal_toIS5_EES6_S8_EEE4growEi
1970:__ZN8keywords10InitializeEv
1971:__ZN9shadertag10InitializeEv
1972:__ZN9shadertag14GetShaderTagIDERKN4core12basic_stringIcNS0_20StringStorageDefaultIcEEEE
1973:__Z7StrICmpPKcS0_
1974:__ZNSt3__26__treeINS_12__value_typeIPKc11ShaderTagIDEENS_19__map_value_compareIS3_S5_27compare_tstring_insensitiveIS3_ELb1EEENS_9allocatorIS5_EEE21__emplace_unique_implIJNS_4pairIPcS4_EEEEENSE_INS_15__tree_iteratorIS5_PNS_11__tree_nodeIS5_PvEElEEbEEDpOT_
1975:__ZN16ShaderKeywordMapC2Ejj
1976:__ZN21ShaderLocalKeywordMap6CreateEN4core16basic_string_refIcEE17ShaderKeywordType
1977:__ZN4core6detail14FormatInternalENS_16basic_string_refIcEERK10FormatArgs
1978:__Z27LogRepeatingStringWithFlagsRKN4core12basic_stringIcNS_20StringStorageDefaultIcEEEE15LogMessageFlagsi
1979:__ZNSt3__26__treeI19RepeatingLogMessageNS_4lessIS1_EE13stl_allocatorIS1_L18MemLabelIdentifier78ELi16EEE4findIS1_EENS_15__tree_iteratorIS1_PNS_11__tree_nodeIS1_PvEElEERKT_
1980:__ZNSt3__26__treeI19RepeatingLogMessageNS_4lessIS1_EE13stl_allocatorIS1_L18MemLabelIdentifier78ELi16EEE25__emplace_unique_key_argsIS1_JRKS1_EEENS_4pairINS_15__tree_iteratorIS1_PNS_11__tree_nodeIS1_PvEElEEbEERKT_DpOT0_
1981:__ZNSt3__26__treeI19RepeatingLogMessageNS_4lessIS1_EE13stl_allocatorIS1_L18MemLabelIdentifier78ELi16EEE12__find_equalIS1_EERPNS_16__tree_node_baseIPvEERPNS_15__tree_end_nodeISC_EERKT_
1982:__ZN4core6detail16FormatToInternalERNS_12basic_stringIcNS_20StringStorageDefaultIcEEEENS_16basic_string_refIcEERK10FormatArgs
1983:__ZN22ShaderGlobalKeywordMap6CreateEN4core16basic_string_refIcEE17ShaderKeywordType
1984:__ZNK22ShaderGlobalKeywordMap4FindEN4core16basic_string_refIcEE
1985:__ZNK22ShaderGlobalKeywordMap7GetNameEi
1986:__ZNK22ShaderGlobalKeywordMap14GetKeywordTypeEi
1987:__ZN22ShaderGlobalKeywordMap11SetCapacityEj
1988:__ZN24StaticInitializeInternal13ConstructTypeIN4core12basic_stringIcNS1_20StringStorageDefaultIcEEEELb0EEEPvS6_10MemLabelId
1989:__Z30CleanupBuiltinShaderParamNamesv
1990:__Z33InitializeBuiltinShaderParamNamesv
1991:__ZN13dynamic_arrayIN12_GLOBAL__N_114ParamNameIndexELm0EE21resize_buffer_nocheckEm12ResizePolicy
1992:__ZNSt3__26__sortIRNS_6__lessIN12_GLOBAL__N_114ParamNameIndexES3_EEPS3_EEvT0_S7_T_
1993:__ZNSt3__27__sort3IRNS_6__lessIN12_GLOBAL__N_114ParamNameIndexES3_EEPS3_EEjT0_S7_S7_T_
1994:__ZNSt3__27__sort4IRNS_6__lessIN12_GLOBAL__N_114ParamNameIndexES3_EEPS3_EEjT0_S7_S7_S7_T_
1995:__ZNSt3__27__sort5IRNS_6__lessIN12_GLOBAL__N_114ParamNameIndexES3_EEPS3_EEjT0_S7_S7_S7_S7_T_
1996:__ZNSt3__227__insertion_sort_incompleteIRNS_6__lessIN12_GLOBAL__N_114ParamNameIndexES3_EEPS3_EEbT0_S7_T_
1997:__ZN13RuntimeStaticI12GraphicsCapsLb0EE16StaticInitializeEPv
1998:__ZN13RuntimeStaticI12GraphicsCapsLb0EE13StaticDestroyEPv
1999:__ZN13RuntimeStaticI12GraphicsCapsLb0EE7DestroyEv
2000:__ZN24StaticInitializeInternal13ConstructTypeI12GraphicsCapsLb0EEEPvS2_10MemLabelId
2001:__ZN12GraphicsCapsC2Ev
2002:__ZL22InitializeGlobalCBKeysPv
2003:__ZL35StaticInitializeRuntimeSceneManagerPv
2004:__ZL32StaticDestroyRuntimeSceneManagerPv
2005:__ZN19RuntimeSceneManagerC2E10MemLabelId
2006:__Z24GetLastPathNameComponentRKN4core12basic_stringIcNS_20StringStorageDefaultIcEEEE
2007:__Z23DeletePathNameExtensionRKN4core12basic_stringIcNS_20StringStorageDefaultIcEEEE
2008:__ZL32MarkLevelGameManagerDependenciesR27GarbageCollectorThreadState
2009:__ZL16SceneWasUnloadedi
2010:__ZL18ActiveSceneChangedP10UnitySceneS0_
2011:__Z20MarkInstanceIDAsRootiR27GarbageCollectorThreadState
2012:__ZN19RuntimeSceneManagerD2Ev
2013:__ZN19RuntimeSceneManagerD0Ev
2014:__ZN19RuntimeSceneManager8GetSceneEi
2015:__ZN19RuntimeSceneManager11MergeScenesER10UnitySceneS1_
2016:__ZN19RuntimeSceneManager11UnloadSceneEP10UnityScene18UnloadSceneOptions
2017:__ZN10UnityScene24OnGameObjectChangedSceneER10GameObjectPS_S2_
2018:__ZN10GameObject10DeactivateE19DeactivateOperation
2019:__ZN10GameObject8ActivateEv
2020:__ZN10GameObject32ActivateAwakeRecursivelyInternalE19DeactivateOperationR18AwakeFromLoadQueue
2021:__ZN18AwakeFromLoadQueue13AwakeFromLoadE17AwakeFromLoadModeb
2022:__ZN18AwakeFromLoadQueueD2Ev
2023:__ZL53SortBehaviourItemByExecutionOrderAndReverseInstanceIDRKN18AwakeFromLoadQueue4ItemES2_
2024:__ZNSt3__26__sortIRPFbRKN18AwakeFromLoadQueue4ItemES4_EPS2_EEvT0_S9_T_
2025:__ZNSt3__27__sort4IRPFbRKN18AwakeFromLoadQueue4ItemES4_EPS2_EEjT0_S9_S9_S9_T_
2026:__ZNSt3__218__insertion_sort_3IRPFbRKN18AwakeFromLoadQueue4ItemES4_EPS2_EEvT0_S9_T_
2027:__ZNSt3__227__insertion_sort_incompleteIRPFbRKN18AwakeFromLoadQueue4ItemES4_EPS2_EEbT0_S9_T_
2028:__ZNK21ExecutionOrderManager23GetScriptExecutionOrderEiPKN5Unity4TypeE
2029:__ZN18AwakeFromLoadQueue3AddER6ObjectPK8TypeTreeb17AwakeFromLoadMode
2030:__ZN10GameObject18UpdateActiveGONodeEv
2031:__ZN18AwakeFromLoadQueueC2E10MemLabelId
2032:__ZN19RuntimeSceneManager14CanUnloadSceneEP10UnityScene
2033:__ZN19RuntimeSceneManager19UnloadSceneInternalEP10UnityScene18UnloadSceneOptions
2034:__ZN10UnitySceneD2Ev
2035:__ZN19RuntimeSceneManager14SetActiveSceneER10UnityScene
2036:__Z22DestroyObjectHighLevelP6Objectb
2037:__Z19DestroySingleObjectP6Object
2038:__Z31ReadObjectFromPersistentManageri
2039:__ZN17PersistentManager10ReadObjectEi17AwakeFromLoadMode
2040:__ZN17PersistentManager37RegisterPartiallyLoadedObjectInternalEi
2041:__ZN18AwakeFromLoadQueue34PersistentManagerAwakeSingleObjectER6Object17AwakeFromLoadMode
2042:__ZN17PersistentManager18ReadObjectThreadedEiNS_9LockFlagsE
2043:__ZN17PersistentManager38LoadAndIntegrateAllPreallocatedObjectsENS_9LockFlagsE
2044:__ZN17PersistentManager32LoadRemainingPreallocatedObjectsENS_9LockFlagsE
2045:__ZN17PersistentManager25ExtractAwakeFromLoadQueueER18AwakeFromLoadQueue
2046:__ZN18AwakeFromLoadQueue25RegisterObjectInstanceIDsEv
2047:__ZN18AwakeFromLoadQueue30PersistentManagerAwakeFromLoadEv
2048:__ZL20SortItemByInstanceIDRKN18AwakeFromLoadQueue4ItemES2_
2049:__ZN18AwakeFromLoadQueue28InvokePersistentManagerAwakeEPNS_4ItemEj17AwakeFromLoadMode
2050:__ZN6Object24RegisterInstanceIDNoLockEPS_
2051:__ZN4core8hash_setINS_4pairIKiP6ObjectLb0EEENS_9hash_pairINS_4hashIiEES2_S4_EENS_10equal_pairINSt3__28equal_toIiEES2_S4_EEE6insertERKS5_
2052:__ZN18AwakeFromLoadQueue7ReserveEj
2053:__ZN8Remapper38InstanceIDToSerializedObjectIdentifierEiR26SerializedObjectIdentifier
2054:__ZNSt3__26__sortIRNS_6__lessI14ObjectLoadDataS2_EEPS2_EEvT0_S6_T_
2055:__ZN17PersistentManager29ReadAndActivateObjectThreadedEiRK26SerializedObjectIdentifierP14SerializedFilebbNS_9LockFlagsE
2056:__ZN17PersistentManager26GetStreamNameSpaceInternalEi
2057:__ZNK14SerializedFile11IsAvailableEx
2058:__ZN17PersistentManager32CreateThreadActivationQueueEntryER14SerializedFile26SerializedObjectIdentifieribNS_9LockFlagsE
2059:__ZN14SerializedFile10ReadObjectEx18ObjectCreationModebPPK8TypeTreePbR6Object
2060:__ZN17PersistentManager23PostReadActivationQueueEiPK8TypeTreebNS_9LockFlagsE
2061:__ZN14SerializedFile14SerializedType21CompareAgainstNewTypeER6ObjectR13dynamic_arrayIS0_Lm0EE24TransferInstructionFlags
2062:__ZN14SerializedFile26BuildRefTypePoolIfRelevantEv
2063:__ZN13dynamic_arrayINSt3__24pairIy8TypeTreeEELm0EED2Ev
2064:__ZN14SafeBinaryRead4InitERK16TypeTreeIteratorxx24TransferInstructionFlags10MemLabelId
2065:__ZN12CachedReader8InitReadER15CacheReaderBasemm
2066:__ZN12CachedReader3EndEv
2067:__ZL23OutOfBoundsReadingErrorPKN5Unity4TypeEiiR6Object
2068:__ZN8TypeTreeD2Ev
2069:__ZNK10MonoScript22GetScriptFullClassNameEv
2070:__ZN12CachedReader16OutOfBoundsErrorEmm
2071:__ZN8TypeTreeC2ERKS_
2072:__ZN14SafeBinaryReadC2Ev
2073:__ZN15TypeTreeQueries25GenerateTypeTreeSignatureERKN4core12basic_stringIcNS0_20StringStorageDefaultIcEEEES6_S6_
2074:__ZN13TypeTreeCache11GetTypeTreeEPK6Object24TransferInstructionFlagsR8TypeTree
2075:__ZN15TypeTreeQueries26IsStreamedBinaryCompatibleERK16TypeTreeIteratorS2_
2076:__ZN13TypeTreeCache11GetTypeTreeERKN4core12basic_stringIcNS0_20StringStorageDefaultIcEEEES6_S4_24TransferInstructionFlagsR8TypeTree
2077:__ZN11APIUpdating7Queries19ResolveTypeFromNameEPKcS2_S2_
2078:__ZN13TypeTreeCache11GetTypeTreeE17ScriptingClassPtr24TransferInstructionFlagsR8TypeTree
2079:__ZN8TypeTreeaSERKS_
2080:__ZN15TypeTreeQueries25GenerateTypeTreeSignatureERK17ScriptingClassPtr
2081:__ZN14GfxDoubleCacheIyN13TypeTreeCache18CachedTypeTreeDataENS0_13HashGeneratorENSt3__28equal_toIyEEN31GfxDoubleCacheConcurrencyPolicy11LocklessGetE42GfxDoubleCacheDefaultEmptyDeletedGeneratorIyEL18MemLabelIdentifier82EE4FindERKyRKS1_
2082:__Z20scripting_object_new17ScriptingClassPtr
2083:__ZN24GenerateTypeTreeTransfer13BeginTransferEPKcS1_Pc17TransferMetaFlags
2084:__Z23TransferScriptingObjectI24GenerateTypeTreeTransferEvRT_18ScriptingObjectPtr17ScriptingClassPtrPK15MonoScriptCache
2085:__ZN24GenerateTypeTreeTransfer11EndTransferEv
2086:__ZN14GfxDoubleCacheIyN13TypeTreeCache18CachedTypeTreeDataENS0_13HashGeneratorENSt3__28equal_toIyEEN31GfxDoubleCacheConcurrencyPolicy11LocklessGetE42GfxDoubleCacheDefaultEmptyDeletedGeneratorIyEL18MemLabelIdentifier82EE3SetERKyRKS1_
2087:__ZN15dense_hashtableINSt3__24pairIKyN13TypeTreeCache18CachedTypeTreeDataEEEyNS3_13HashGeneratorEN14GfxDoubleCacheIyS4_S6_NS0_8equal_toIyEEN31GfxDoubleCacheConcurrencyPolicy11LocklessGetE42GfxDoubleCacheDefaultEmptyDeletedGeneratorIyEL18MemLabelIdentifier82EE9SelectKeyES9_13stl_allocatorIS5_LSE_82ELi16EEE23find_or_insert_noresizeERKS5_
2088:__ZN19EndOfFrameCallbacks7EnqueueEP18EndOfFrameCallbackb
2089:__ZN15dense_hashtableINSt3__24pairIKyN13TypeTreeCache18CachedTypeTreeDataEEEyNS3_13HashGeneratorEN14GfxDoubleCacheIyS4_S6_NS0_8equal_toIyEEN31GfxDoubleCacheConcurrencyPolicy11LocklessGetE42GfxDoubleCacheDefaultEmptyDeletedGeneratorIyEL18MemLabelIdentifier82EE9SelectKeyES9_13stl_allocatorIS5_LSE_82ELi16EEE12resize_deltaEmm
2090:__ZN15dense_hashtableINSt3__24pairIKyN13TypeTreeCache18CachedTypeTreeDataEEEyNS3_13HashGeneratorEN14GfxDoubleCacheIyS4_S6_NS0_8equal_toIyEEN31GfxDoubleCacheConcurrencyPolicy11LocklessGetE42GfxDoubleCacheDefaultEmptyDeletedGeneratorIyEL18MemLabelIdentifier82EE9SelectKeyES9_13stl_allocatorIS5_LSE_82ELi16EEE15insert_noresizeERKS5_
2091:__ZN15dense_hashtableINSt3__24pairIKyN13TypeTreeCache18CachedTypeTreeDataEEEyNS3_13HashGeneratorEN14GfxDoubleCacheIyS4_S6_NS0_8equal_toIyEEN31GfxDoubleCacheConcurrencyPolicy11LocklessGetE42GfxDoubleCacheDefaultEmptyDeletedGeneratorIyEL18MemLabelIdentifier82EE9SelectKeyES9_13stl_allocatorIS5_LSE_82ELi16EEE12maybe_shrinkEv
2092:__ZN14DelayedDeletorI15dense_hashtableINSt3__24pairIKyN13TypeTreeCache18CachedTypeTreeDataEEEyNS4_13HashGeneratorEN14GfxDoubleCacheIyS5_S7_NS1_8equal_toIyEEN31GfxDoubleCacheConcurrencyPolicy11LocklessGetE42GfxDoubleCacheDefaultEmptyDeletedGeneratorIyEL18MemLabelIdentifier82EE9SelectKeyESA_13stl_allocatorIS6_LSF_82ELi16EEEEclEv
2093:__ZNK16TypeTreeIterator6FatherEv
2094:__Z23TransferScriptingObjectI24GenerateTypeTreeTransferLb0EEvRT_18ScriptingObjectPtr17ScriptingClassPtrRPN18SerializationCache4DataEP25ManagedReferencesRegistry
2095:__ZN18SerializationCache9FetchDataE17ScriptingClassPtr
2096:__ZN18SerializationCache13FetchCommandsEPNS_4DataERK24TransferRequestSignature
2097:__Z33BuildSerializationCommandQueueForRK34BuildSerializationCommandQueueArgsR32SerializationCommandQueueBuilderRP20AllowNameConversionsbPK18TransferField_Info
2098:__ZN15SerializeTraitsI25ManagedReferencesRegistryE8TransferI24GenerateTypeTreeTransferEEvRS0_RT_
2099:__ZN25ManagedReferencesRegistryD2Ev
2100:__ZNSt3__26__treeINS_12__value_typeIPviEENS_19__map_value_compareIS2_S3_NS_4lessIS2_EELb1EEENS_9allocatorIS3_EEE7destroyEPNS_11__tree_nodeIS3_S2_EE
2101:__ZN15SerializeTraitsI26RegisteredReferencedObjectILN24ReferencedObjectInstance12TransferHintE1EEE8TransferI24GenerateTypeTreeTransferEEvRS3_RT_
2102:__ZN15SerializeTraitsI21ReferencedManagedTypeE8TransferI24GenerateTypeTreeTransferEEvRS0_RT_
2103:__ZN15SerializeTraitsI20ReferencedObjectDataILN24ReferencedObjectInstance12TransferHintE1EEE8TransferI24GenerateTypeTreeTransferEEvRS3_RT_
2104:__ZN23ScriptingClassConverter8ToNativeE17ScriptingClassPtr
2105:__ZN24GenerateTypeTreeTransfer18BeginArrayTransferEPKcS1_Ri17TransferMetaFlags
2106:__ZN24GenerateTypeTreeTransfer16EndArrayTransferEv
2107:__ZN24GenerateTypeTreeTransfer5AlignEv
2108:__ZNK23ScriptingClassConverter9ToManagedEv
2109:__ZNK16TypeTreeIterator8ChildrenEv
2110:__ZNK16TypeTreeIterator4LastEv
2111:__ZN23ScriptingClassConverter9ToFullFQNE17ScriptingClassPtrRN4core12basic_stringIcNS1_20StringStorageDefaultIcEEEES6_S6_
2112:__ZL42EmitInvokeInterfaceMethodCommandIfRequired18ScriptingMethodPtr17ScriptingClassPtrS0_R32SerializationCommandQueueBuilderRK31TransferFunctionScriptingTraitsbb24SerializationCommandType
2113:__ZN9Scripting36IsSystemCollectionsGenericDictionaryE17ScriptingClassPtr
2114:__Z26scripting_class_get_fields17ScriptingClassPtrRNSt3__26vectorI17ScriptingFieldPtr13stl_allocatorIS2_L18MemLabelIdentifier1ELi16EEEE
2115:__Z25scripting_class_from_type16ScriptingTypePtr
2116:__Z19ShouldTransferFieldR32SerializationCommandQueueBuilder17ScriptingClassPtriR18TransferField_InfoRK20CoreScriptingClasses
2117:__Z33EmitSerializationCommandsForFieldRK34BuildSerializationCommandQueueArgsRK18TransferField_InfoR32SerializationCommandQueueBuilderRP20AllowNameConversions
2118:__ZN9Scripting30IsSystemCollectionsGenericListE17ScriptingClassPtr
2119:__ZL28SerializationCommandGroupForRK31TransferFunctionScriptingTraits17ScriptingClassPtr17ScriptingFieldPtrRK20CoreScriptingClasses
2120:__Z29scripting_field_has_attribute17ScriptingClassPtr17ScriptingFieldPtrS_
2121:__ZL29CanTransferTypeAsNestedObject17ScriptingClassPtr38ETransferTypeAsNestedObjectConstraints
2122:__ZN13dynamic_arrayI20SerializationCommandLm0EE4growEv
2123:__Z35scripting_class_get_field_from_name17ScriptingClassPtrPKc
2124:__Z6StrCmpPKcS0_
2125:__Z28scripting_class_is_interface17ScriptingClassPtr
2126:__ZN11MonoManager25GetAssemblyIndexFromImageE17ScriptingImagePtr
2127:__ZN9Scripting35ErrorMessageForUnsupportedEnumFieldE17ScriptingFieldPtr
2128:__ZN21LinearCollectionFieldC2ER17GeneralMonoObject17ScriptingFieldPtr
2129:__ZN9Scripting27BackingArrayFieldForListOfTE17ScriptingClassPtr
2130:__ZN9Scripting29RuntimeObjectInitLogExceptionE18ScriptingObjectPtr
2131:__Z41scripting_type_get_class_or_element_class16ScriptingTypePtr
2132:__ZN9Scripting12LogExceptionE21ScriptingExceptionPtriPKcb
2133:__Z25IsFieldSerializedInEditorRK17ScriptingFieldPtrRK16ScriptingTypePtrRK17ScriptingClassPtriiPKcRK20CoreScriptingClassesRb
2134:__ZN17MonoScriptManager17FindRuntimeScriptE17ScriptingClassPtr
2135:__Z29scripting_class_has_attribute17ScriptingClassPtrS_
2136:__Z35scripting_object_get_virtual_method18ScriptingObjectPtr18ScriptingMethodPtr
2137:__ZNK15dense_hashtableINSt3__24pairIKPvN18SerializationCache10CacheEntryEEES2_NS4_21CommandsHashMapHasherEN14GfxDoubleCacheIS2_S5_S7_NS0_8equal_toIS2_EEN31GfxDoubleCacheConcurrencyPolicy11LocklessGetE42GfxDoubleCacheDefaultEmptyDeletedGeneratorIS2_EL18MemLabelIdentifier112EE9SelectKeyESA_13stl_allocatorIS6_LSF_112ELi16EEE13find_positionERS3_
2138:__ZN18SerializationCache26BuildSerializationCacheForE17ScriptingClassPtr
2139:__ZN14GfxDoubleCacheIPvN18SerializationCache10CacheEntryENS1_21CommandsHashMapHasherENSt3__28equal_toIS0_EEN31GfxDoubleCacheConcurrencyPolicy11LocklessGetE42GfxDoubleCacheDefaultEmptyDeletedGeneratorIS0_EL18MemLabelIdentifier112EE6InsertERKS0_RKS2_
2140:__ZN15dense_hashtableINSt3__24pairIKPvN18SerializationCache10CacheEntryEEES2_NS4_21CommandsHashMapHasherEN14GfxDoubleCacheIS2_S5_S7_NS0_8equal_toIS2_EEN31GfxDoubleCacheConcurrencyPolicy11LocklessGetE42GfxDoubleCacheDefaultEmptyDeletedGeneratorIS2_EL18MemLabelIdentifier112EE9SelectKeyESA_13stl_allocatorIS6_LSF_112ELi16EEE23find_or_insert_noresizeERKS6_
2141:__ZN15dense_hashtableINSt3__24pairIKPvN18SerializationCache10CacheEntryEEES2_NS4_21CommandsHashMapHasherEN14GfxDoubleCacheIS2_S5_S7_NS0_8equal_toIS2_EEN31GfxDoubleCacheConcurrencyPolicy11LocklessGetE42GfxDoubleCacheDefaultEmptyDeletedGeneratorIS2_EL18MemLabelIdentifier112EE9SelectKeyESA_13stl_allocatorIS6_LSF_112ELi16EEE12resize_deltaEmm
2142:__ZN15dense_hashtableINSt3__24pairIKPvN18SerializationCache10CacheEntryEEES2_NS4_21CommandsHashMapHasherEN14GfxDoubleCacheIS2_S5_S7_NS0_8equal_toIS2_EEN31GfxDoubleCacheConcurrencyPolicy11LocklessGetE42GfxDoubleCacheDefaultEmptyDeletedGeneratorIS2_EL18MemLabelIdentifier112EE9SelectKeyESA_13stl_allocatorIS6_LSF_112ELi16EEE12maybe_shrinkEv
2143:__ZN14DelayedDeletorI15dense_hashtableINSt3__24pairIKPvN18SerializationCache10CacheEntryEEES3_NS5_21CommandsHashMapHasherEN14GfxDoubleCacheIS3_S6_S8_NS1_8equal_toIS3_EEN31GfxDoubleCacheConcurrencyPolicy11LocklessGetE42GfxDoubleCacheDefaultEmptyDeletedGeneratorIS3_EL18MemLabelIdentifier112EE9SelectKeyESB_13stl_allocatorIS7_LSG_112ELi16EEEEclEv
2144:__ZN18SerializationCache39WriteQueueForTransferSignatureIntoCacheERK31TransferFunctionScriptingTraitsRK24TransferRequestSignature17ScriptingClassPtrRNS_4DataERb
2145:__ZN13dynamic_arrayI12TypeTreeNodeLm0EE4growEv
2146:__ZN8TypeTree16AssignByteOffsetERK16TypeTreeIteratorj
2147:__ZN21TypeTreeShareableData12CreateStringERjPKc
2148:__ZNK17CommonStringTable16FindCommonStringEPKcm
2149:__ZN24GenerateTypeTreeTransferC2ER8TypeTree24TransferInstructionFlagsPvi
2150:__ZNK15dense_hashtableINSt3__24pairIKmyEEm14GfxGenericHashImEN14GfxDoubleCacheImyS5_NS0_8equal_toImEEN31GfxDoubleCacheConcurrencyPolicy11LocklessGetE42GfxDoubleCacheDefaultEmptyDeletedGeneratorImEL18MemLabelIdentifier82EE9SelectKeyES8_13stl_allocatorIS3_LSD_82ELi16EEE13find_positionERS2_
2151:__ZN14GfxDoubleCacheImy14GfxGenericHashImENSt3__28equal_toImEEN31GfxDoubleCacheConcurrencyPolicy11LocklessGetE42GfxDoubleCacheDefaultEmptyDeletedGeneratorImEL18MemLabelIdentifier82EE3SetERKmRKy
2152:__ZN15dense_hashtableINSt3__24pairIKmyEEm14GfxGenericHashImEN14GfxDoubleCacheImyS5_NS0_8equal_toImEEN31GfxDoubleCacheConcurrencyPolicy11LocklessGetE42GfxDoubleCacheDefaultEmptyDeletedGeneratorImEL18MemLabelIdentifier82EE9SelectKeyES8_13stl_allocatorIS3_LSD_82ELi16EEE23find_or_insert_noresizeERKS3_
2153:__ZN15dense_hashtableINSt3__24pairIKmyEEm14GfxGenericHashImEN14GfxDoubleCacheImyS5_NS0_8equal_toImEEN31GfxDoubleCacheConcurrencyPolicy11LocklessGetE42GfxDoubleCacheDefaultEmptyDeletedGeneratorImEL18MemLabelIdentifier82EE9SelectKeyES8_13stl_allocatorIS3_LSD_82ELi16EEE12resize_deltaEmm
2154:__ZN15dense_hashtableINSt3__24pairIKmyEEm14GfxGenericHashImEN14GfxDoubleCacheImyS5_NS0_8equal_toImEEN31GfxDoubleCacheConcurrencyPolicy11LocklessGetE42GfxDoubleCacheDefaultEmptyDeletedGeneratorImEL18MemLabelIdentifier82EE9SelectKeyES8_13stl_allocatorIS3_LSD_82ELi16EEE12maybe_shrinkEv
2155:__ZN14DelayedDeletorI15dense_hashtableINSt3__24pairIKmyEEm14GfxGenericHashImEN14GfxDoubleCacheImyS6_NS1_8equal_toImEEN31GfxDoubleCacheConcurrencyPolicy11LocklessGetE42GfxDoubleCacheDefaultEmptyDeletedGeneratorImEL18MemLabelIdentifier82EE9SelectKeyES9_13stl_allocatorIS4_LSE_82ELi16EEEEclEv
2156:__ZN11APIUpdating7Caching15RefreshFQNCacheEv
2157:__ZN14GfxDoubleCacheIN11APIUpdating7Caching6FQNKeyE17ScriptingClassPtrNS2_13HashGeneratorENSt3__28equal_toIS2_EEN31GfxDoubleCacheConcurrencyPolicy11LocklessGetENS2_12KeyGeneratorEL18MemLabelIdentifier113EE4FindERKS2_RKS3_
2158:__ZN11APIUpdating7Queries30ResolvePotentialyRelocatedTypeE17ScriptingClassPtr
2159:__ZNK15dense_hashtableINSt3__24pairIK17ScriptingClassPtrS2_EES2_N11APIUpdating7Caching7TypeKey13HashGeneratorEN14GfxDoubleCacheIS2_S2_S8_NS7_8EqualityEN31GfxDoubleCacheConcurrencyPolicy11LocklessGetENS7_12KeyGeneratorEL18MemLabelIdentifier113EE9SelectKeyESA_13stl_allocatorIS4_LSE_113ELi16EEE13find_positionERS3_
2160:__ZN11APIUpdating7Caching40GetClassRedirectionFromObsoleteAttributeE17ScriptingClassPtr
2161:__ZN14GfxDoubleCacheI17ScriptingClassPtrS0_N11APIUpdating7Caching7TypeKey13HashGeneratorENS3_8EqualityEN31GfxDoubleCacheConcurrencyPolicy11LocklessGetENS3_12KeyGeneratorEL18MemLabelIdentifier113EE3SetERKS0_SC_
2162:__ZN15dense_hashtableINSt3__24pairIK17ScriptingClassPtrS2_EES2_N11APIUpdating7Caching7TypeKey13HashGeneratorEN14GfxDoubleCacheIS2_S2_S8_NS7_8EqualityEN31GfxDoubleCacheConcurrencyPolicy11LocklessGetENS7_12KeyGeneratorEL18MemLabelIdentifier113EE9SelectKeyESA_13stl_allocatorIS4_LSE_113ELi16EEE23find_or_insert_noresizeERKS4_
2163:__ZN15dense_hashtableINSt3__24pairIK17ScriptingClassPtrS2_EES2_N11APIUpdating7Caching7TypeKey13HashGeneratorEN14GfxDoubleCacheIS2_S2_S8_NS7_8EqualityEN31GfxDoubleCacheConcurrencyPolicy11LocklessGetENS7_12KeyGeneratorEL18MemLabelIdentifier113EE9SelectKeyESA_13stl_allocatorIS4_LSE_113ELi16EEE12resize_deltaEmm
2164:__ZN15dense_hashtableINSt3__24pairIK17ScriptingClassPtrS2_EES2_N11APIUpdating7Caching7TypeKey13HashGeneratorEN14GfxDoubleCacheIS2_S2_S8_NS7_8EqualityEN31GfxDoubleCacheConcurrencyPolicy11LocklessGetENS7_12KeyGeneratorEL18MemLabelIdentifier113EE9SelectKeyESA_13stl_allocatorIS4_LSE_113ELi16EEE12maybe_shrinkEv
2165:__ZN14DelayedDeletorI15dense_hashtableINSt3__24pairIK17ScriptingClassPtrS3_EES3_N11APIUpdating7Caching7TypeKey13HashGeneratorEN14GfxDoubleCacheIS3_S3_S9_NS8_8EqualityEN31GfxDoubleCacheConcurrencyPolicy11LocklessGetENS8_12KeyGeneratorEL18MemLabelIdentifier113EE9SelectKeyESB_13stl_allocatorIS5_LSF_113ELi16EEEEclEv
2166:__Z38scripting_class_get_system_type_object17ScriptingClassPtr
2167:__ZN9Scripting11UnityEngine10_Scripting11APIUpdating29APIUpdaterRuntimeHelpersProxy26GetObsoleteTypeRedirectionE18ScriptingObjectPtrPS4_S5_S5_P21ScriptingExceptionPtr
2168:__ZNK15dense_hashtableINSt3__24pairIKN11APIUpdating7Caching6FQNKeyE17ScriptingClassPtrEES4_NS4_13HashGeneratorEN14GfxDoubleCacheIS4_S6_S8_NS0_8equal_toIS4_EEN31GfxDoubleCacheConcurrencyPolicy11LocklessGetENS4_12KeyGeneratorEL18MemLabelIdentifier113EE9SelectKeyESB_13stl_allocatorIS7_LSF_113ELi16EEE23find_position_with_hashERS5_m
2169:__ZNK15dense_hashtableINSt3__24pairIKN11APIUpdating7Caching6FQNKeyE17ScriptingClassPtrEES4_NS4_13HashGeneratorEN14GfxDoubleCacheIS4_S6_S8_NS0_8equal_toIS4_EEN31GfxDoubleCacheConcurrencyPolicy11LocklessGetENS4_12KeyGeneratorEL18MemLabelIdentifier113EE9SelectKeyESB_13stl_allocatorIS7_LSF_113ELi16EEE12test_deletedEm
2170:__Z25scripting_image_get_class17ScriptingImagePtri
2171:__ZN14GfxDoubleCacheIN11APIUpdating7Caching6FQNKeyE17ScriptingClassPtrNS2_13HashGeneratorENSt3__28equal_toIS2_EEN31GfxDoubleCacheConcurrencyPolicy11LocklessGetENS2_12KeyGeneratorEL18MemLabelIdentifier113EE3SetERKS2_RKS3_
2172:__ZN15dense_hashtableINSt3__24pairIKN11APIUpdating7Caching6FQNKeyE17ScriptingClassPtrEES4_NS4_13HashGeneratorEN14GfxDoubleCacheIS4_S6_S8_NS0_8equal_toIS4_EEN31GfxDoubleCacheConcurrencyPolicy11LocklessGetENS4_12KeyGeneratorEL18MemLabelIdentifier113EE9SelectKeyESB_13stl_allocatorIS7_LSF_113ELi16EEE23find_or_insert_noresizeERKS7_
2173:__ZN15dense_hashtableINSt3__24pairIKN11APIUpdating7Caching6FQNKeyE17ScriptingClassPtrEES4_NS4_13HashGeneratorEN14GfxDoubleCacheIS4_S6_S8_NS0_8equal_toIS4_EEN31GfxDoubleCacheConcurrencyPolicy11LocklessGetENS4_12KeyGeneratorEL18MemLabelIdentifier113EE9SelectKeyESB_13stl_allocatorIS7_LSF_113ELi16EEE12resize_deltaEmm
2174:__ZN15dense_hashtableINSt3__24pairIKN11APIUpdating7Caching6FQNKeyE17ScriptingClassPtrEES4_NS4_13HashGeneratorEN14GfxDoubleCacheIS4_S6_S8_NS0_8equal_toIS4_EEN31GfxDoubleCacheConcurrencyPolicy11LocklessGetENS4_12KeyGeneratorEL18MemLabelIdentifier113EE9SelectKeyESB_13stl_allocatorIS7_LSF_113ELi16EEE15insert_noresizeERKS7_
2175:__ZN14DelayedDeletorI15dense_hashtableINSt3__24pairIKN11APIUpdating7Caching6FQNKeyE17ScriptingClassPtrEES5_NS5_13HashGeneratorEN14GfxDoubleCacheIS5_S7_S9_NS1_8equal_toIS5_EEN31GfxDoubleCacheConcurrencyPolicy11LocklessGetENS5_12KeyGeneratorEL18MemLabelIdentifier113EE9SelectKeyESC_13stl_allocatorIS8_LSG_113ELi16EEEEclEv
2176:__ZNK16TypeTreeIterator4NameEv
2177:__ZNK16TypeTreeIterator4TypeEv
2178:__ZNK16TypeTreeIterator4NextEv
2179:__ZN15TypeTreeQueries25GenerateTypeTreeSignatureE24TransferInstructionFlagsRK6Object
2180:__ZN8TypeTreeC2E10MemLabelId
2181:__ZN13dynamic_arrayI12TypeTreeNodeLm0EEC2Em10MemLabelId
2182:__ZN17PersistentManager13ProduceObjectER14SerializedFile26SerializedObjectIdentifieri18ObjectCreationModeNS_9LockFlagsE
2183:__ZN4core8hash_mapIi17ThreadedAwakeDataNS_4hashIiEENSt3__28equal_toIiEEE6insertERKiRKS1_
2184:__ZN4core8hash_setINS_4pairIKi17ThreadedAwakeDataLb0EEENS_9hash_pairINS_4hashIiEES2_S3_EENS_10equal_pairINSt3__28equal_toIiEES2_S3_EEE4growEi
2185:__ZN14SerializedFile14GetProduceDataExRPKN5Unity4TypeER31LocalSerializedObjectIdentifierR10MemLabelId
2186:__ZN6Object7ProduceEPKN5Unity4TypeES3_i10MemLabelId18ObjectCreationMode
2187:__ZN17PersistentManager43LocalSerializedObjectIdentifierToInstanceIDEiRK31LocalSerializedObjectIdentifierRiNS_9LockFlagsE
2188:__ZN17PersistentManager22GetFromActivationQueueEiNS_9LockFlagsE
2189:__ZN22SerializableManagedRef19RebuildMonoInstanceEP6Object17ScriptingClassPtr18ScriptingObjectPtrP10MonoScript
2190:__ZN22SerializableManagedRef19SetupScriptingCacheEP6Object17ScriptingClassPtrP10MonoScript
2191:__Z64scripting_unity_engine_object_new_and_invoke_default_constructor17ScriptingClassPtrP6ObjectP21ScriptingExceptionPtr
2192:__ZNK22SerializableManagedRef22GetScriptFullClassNameEv
2193:__ZN9Scripting12LogExceptionE21ScriptingExceptionPtrP6ObjectPKcb
2194:__Z27FindOrCreateMonoScriptCache17ScriptingClassPtr22InitScriptingCacheTypeP6Objecti
2195:__ZN16ScriptingManager18GetMonoScriptCacheEl
2196:__Z18BuildScriptClassId17ScriptingClassPtr
2197:__Z21CreateMonoScriptCacheRKN4core12basic_stringIcNS_20StringStorageDefaultIcEEEE17ScriptingClassPtr22InitScriptingCacheTypeP6Objecti
2198:__Z27scripting_class_get_methods17ScriptingClassPtrRNSt3__26vectorI18ScriptingMethodPtr13stl_allocatorIS2_L18MemLabelIdentifier1ELi16EEEE
2199:__ZN4core8hash_setINS_4pairIKNS_16basic_string_refIcEE18ScriptingMethodPtrLb0EEENS_9hash_pairINS_4hashIS3_EES4_S5_EENS_10equal_pairINSt3__28equal_toIS3_EES4_S5_EEE4growEi
2200:__ZN4core8hash_mapINS_16basic_string_refIcEE18ScriptingMethodPtrNS_4hashIS2_EENSt3__28equal_toIS2_EEEixERKS2_
2201:__ZNK4core8hash_setINS_4pairIKNS_16basic_string_refIcEE18ScriptingMethodPtrLb0EEENS_9hash_pairINS_4hashIS3_EES4_S5_EENS_10equal_pairINSt3__28equal_toIS3_EES4_S5_EEE6lookupIS3_EEPNSG_4nodeERKT_
2202:__ZN16ScriptingManager27NativeTypeForScriptingClassE17ScriptingClassPtr
2203:__ZN9Scripting25GetTypeFromScriptingClassE17ScriptingClassPtr
2204:__ZN23ManagedAttributeManager24GetDefaultExecutionOrderE17ScriptingClassPtr
2205:__ZN21AttributeScannerQuery24UpdateAttributeUsageInfoEj
2206:__ZN16AttributeScannerC2E17ScriptingClassPtrRK21AttributeScannerQuery
2207:__ZN16AttributeScanner4NextEv
2208:__ZN23AttributeCollectionInfo28AllocAttributesArrayIfNeededEv
2209:__ZN23AttributeCollectionInfo20GetAttributeObjectAtEi
2210:__ZN16AttributeScannerD2Ev
2211:__ZN9Scripting34GetScriptingArrayObjectElementImplE17ScriptingArrayPtri
2212:__Z26scripting_class_has_parent17ScriptingClassPtrS_
2213:__Z33scripting_custom_attrs_from_class17ScriptingClassPtr
2214:__Z31scripting_custom_attrs_has_attrP20Il2CppCustomAttrInfo17ScriptingClassPtr
2215:__ZN5Unity4Type14FindTypeByNameEPKcNS0_22CaseSensitivityOptionsE
2216:__ZNK11TypeManager15ClassNameToRTTIEPKcb
2217:__Z33RenderImageFilterValidateCallback18ScriptingMethodPtr17ScriptingClassPtrP6Object
2218:__Z31AudioFilterReadValidateCallback18ScriptingMethodPtr17ScriptingClassPtrP6Object
2219:__Z21CheckMethodParameters18ScriptingMethodPtr17ScriptingClassPtrPS0_jP6ObjectR11MonoManager
2220:__Z26GetScriptClassIdComponents17ScriptingClassPtrRN4core17string_with_labelILi1EEES3_S3_
2221:__ZL21AppendNestedClassName17ScriptingClassPtrRN4core17string_with_labelILi1EEE
2222:__ZN8Remapper23GetOrGenerateInstanceIDERK26SerializedObjectIdentifier
2223:__ZN17PersistentManager25PreallocateObjectThreadedEiNS_9LockFlagsE
2224:__ZN25DiagnosticsUtils_Bindings10ForceCrashENS_19ForcedCrashCategoryEP21ScriptingExceptionPtr
2225:__ZN9Scripting23CreateArgumentExceptionEPKcz
2226:__ZL34CreateManagedExceptionCommonValistPKcS0_S0_Pi
2227:__ZN17PersistentManager22MakeObjectUnpersistentEi13UnpersistMode
2228:__Z28delete_object_internal_step1P6Object
2229:__ZN12EventManager11InvokeEventEP10EventEntryPvi
2230:__ZN12EventManager11RemoveEventEP10EventEntry
2231:__ZN17PersistentManager15DestroyFromFileEi
2232:__ZN8Remapper6RemoveEi
2233:__ZN13dynamic_arrayIxLm0EE4growEv
2234:__ZN17PersistentManager19RemapToAbsolutePathERKN4core12basic_stringIcNS0_20StringStorageDefaultIcEEEE
2235:__Z13IsFileCreatedRKN4core12basic_stringIcNS_20StringStorageDefaultIcEEEE
2236:__ZN14SerializedFile14InitializeReadERKN4core12basic_stringIcNS0_20StringStorageDefaultIcEEEER18ResourceImageGroupjb24TransferInstructionFlagsjj
2237:__ZN14SerializedFile7ReleaseEv
2238:__ZN17PersistentManager31PostLoadStreamNameSpaceInternalER15StreamNameSpacei
2239:__ZNSt3__26vectorINS_4pairIiiEE13stl_allocatorIS2_L18MemLabelIdentifier42ELi16EEE6insertENS_11__wrap_iterIPKS2_EEOS2_
2240:__ZNSt3__214__split_bufferINS_4pairIiiEER13stl_allocatorIS2_L18MemLabelIdentifier42ELi16EEE9push_backEOS2_
2241:__ZN14SerializedFileD2Ev
2242:__ZN18ResourceImageGroup7CleanupEv
2243:__ZN19dynamic_block_arrayI14FileIdentifierLm64EE13clear_deallocEv
2244:__ZN13dynamic_arrayIN14SerializedFile14SerializedTypeELm0EED2Ev
2245:__ZN13dynamic_arrayI14FileIdentifierLm0EED2Ev
2246:__ZN13ResourceImageD2Ev
2247:__ZN14SerializedFile10ReadHeaderEv
2248:__Z28PrintSerializedFileLoadErrorRKN4core12basic_stringIcNS_20StringStorageDefaultIcEEEEm23SerializedFileLoadError
2249:__Z11FormatBytesx
2250:__Z12FormatStringPKcz
2251:__Z12FormatBufferPciPKcPi
2252:__Z13ReadFileCacheR15CacheReaderBasePvmm
2253:__ZN14SerializedFile12ReadMetadataILb0EEEb27SerializedFileFormatVersionjPKhmm
2254:__ZN14SerializedFile12ReadMetadataILb1EEEb27SerializedFileFormatVersionjPKhmm
2255:__ZN14SerializedFile27PatchRemapDeprecatedClassesEv
2256:__ZN5Unity4Type26FindTypeByPersistentTypeIDEi
2257:__ZN5Unity4Type41GetDeserializationStubForPersistentTypeIDEi
2258:__ZL38FindOrCreateSerializedTypeForUnityTypeR13dynamic_arrayIN14SerializedFile14SerializedTypeELm0EEPKN5Unity4TypeEbsi
2259:__ZN14SerializedFile14SerializedTypeC2ERKS0_
2260:__ZN11TypeManager45GetDeserializationRTTIStubForPersistentTypeIDEi
2261:__ZNK11TypeManager22PersistentTypeIDToRTTIEi
2262:__ZN13dynamic_arrayIN14SerializedFile14SerializedTypeELm0EE18resize_initializedEmRKS1_12ResizePolicy
2263:__ZNK12UnityVersionltERKS_
2264:__ZN14SerializedFile14SerializedType8ReadTypeILb1ELb0EEEb27SerializedFileFormatVersionbRPKhS4_Pib
2265:__ZL26ExtractScriptTypeReferenceRK16TypeTreeIteratorjR15CacheReaderBasebR31LocalSerializedObjectIdentifier
2266:__ZN13dynamic_arrayI31LocalSerializedObjectIdentifierLm0EE4growEv
2267:__ZNSt3__26vectorINS_4pairIxN14SerializedFile10ObjectInfoEEENS_9allocatorIS4_EEE21__push_back_slow_pathIS4_EEvOT_
2268:__ZN13dynamic_arrayI31LocalSerializedObjectIdentifierLm0EE21resize_buffer_nocheckEm12ResizePolicy
2269:__ZN19dynamic_block_arrayI14FileIdentifierLm64EE28resize_with_resizer_internalINS1_20ResizerWithNoDefaultEEEvmRKT_
2270:__ZN14SerializedFile14SerializedType8ReadTypeILb1ELb1EEEb27SerializedFileFormatVersionbRPKhS4_Pib
2271:__ZNSt3__26__treeINS_12__value_typeIiiEENS_19__map_value_compareIiS2_NS_4lessIiEELb1EEENS_9allocatorIS2_EEE7destroyEPNS_11__tree_nodeIS2_PvEE
2272:__ZN10TypeTreeIO12ReadTypeTreeER8TypeTreeRPKhS3_27SerializedFileFormatVersionb
2273:__Z22ReadHeaderCacheCheckedILb1EEbRN4core12basic_stringIcNS0_20StringStorageDefaultIcEEEERPKhS8_
2274:__ZN21TypeTreeShareableData8BlobReadERPKhS1_27SerializedFileFormatVersionb
2275:__ZN10TypeTreeIOL16ReadTypeTreeImplILb1EEEbR8TypeTreeRK16TypeTreeIteratorRPKhS7_27SerializedFileFormatVersion
2276:__ZN10TypeTreeIOL16ReadTypeTreeImplILb0EEEbR8TypeTreeRK16TypeTreeIteratorRPKhS7_27SerializedFileFormatVersion
2277:__ZN21TypeTreeShareableData19BlobReadV17AndPriorERPKhS1_27SerializedFileFormatVersionb
2278:__ZN13dynamic_arrayI12TypeTreeNodeLm0EE21resize_buffer_nocheckEm12ResizePolicy
2279:__ZN19dynamic_block_arrayI14FileIdentifierLm64EE4growEm
2280:__ZN13dynamic_arrayI14FileIdentifierLm0EE21resize_buffer_nocheckEm12ResizePolicy
2281:__ZNSt3__26vectorIiNS_9allocatorIiEEE8__appendEmRKi
2282:__ZN14SerializedFile14SerializedType8ReadTypeILb0ELb0EEEb27SerializedFileFormatVersionbRPKhS4_Pib
2283:__ZN14SerializedFile14SerializedType8ReadTypeILb0ELb1EEEb27SerializedFileFormatVersionbRPKhS4_Pib
2284:__ZN14FileCacherReadC2E10MemLabelIdRKN4core12basic_stringIcNS1_20StringStorageDefaultIcEEEEmb
2285:__Z18PathToAbsolutePathRKN4core12basic_stringIcNS_20StringStorageDefaultIcEEEE
2286:__ZN13FileEntryDataD2Ev
2287:__ZN15FileSystemEntryC2EPKc
2288:__ZN15FileSystemEntry3SetEPKc
2289:__Z24ConvertSeparatorsToUnityPc
2290:__ZNK10FileSystem10ToAbsoluteEPKc
2291:__ZN14FileCacherReadD2Ev
2292:__ZN14FileCacherReadD0Ev
2293:__ZN14FileCacherRead10DirectReadEPvmm
2294:__ZN14FileCacherRead14LockCacheBlockEmPPhS1_
2295:__ZN14FileCacherRead16UnlockCacheBlockEm
2296:__ZNK14FileCacherRead12GetCacheSizeEv
2297:__ZNK14FileCacherRead11GetPathNameEv
2298:__ZN15CacheReaderBase18GetAddressOfMemoryEv
2299:__ZN14FileCacherRead12RequestBlockEi
2300:__Z16AsyncReadRequestP16AsyncReadCommand
2301:__ZN13OpenFileCache10OpenCachedERKN4core12basic_stringIcNS0_20StringStorageDefaultIcEEEE
2302:__ZN4File4ReadEyPvm
2303:__ZN12FileAccessor4ReadEyyPvPy
2304:__ZN4File5CloseEv
2305:__ZN4File4OpenERKN4core12basic_stringIcNS0_20StringStorageDefaultIcEEEE14FilePermission16FileAutoBehavior
2306:__ZN4File19OpenFileSystemEntryERK15FileSystemEntry14FilePermission16FileAutoBehavior
2307:__ZN12FileAccessor5CloseEv
2308:__ZN13FileEntryDataaSERKS_
2309:__ZN12FileAccessor4OpenER15FileSystemEntry14FilePermission16FileAutoBehavior
2310:__ZN12FileAccessorC2Ev
2311:__ZN12FileAccessorD2Ev
2312:__ZN12FileAccessorD0Ev
2313:__Z23AsyncReadForceCloseFileRKN4core12basic_stringIcNS_20StringStorageDefaultIcEEEE
2314:__ZN13OpenFileCache10ForceCloseERKN4core12basic_stringIcNS0_20StringStorageDefaultIcEEEE
2315:__ZN14SerializedFileC2E10MemLabelId
2316:__ZNSt3__27__sort4IRNS_6__lessI14ObjectLoadDataS2_EEPS2_EEjT0_S6_S6_S6_T_
2317:__ZNSt3__27__sort5IRNS_6__lessI14ObjectLoadDataS2_EEPS2_EEjT0_S6_S6_S6_S6_T_
2318:__ZNSt3__218__insertion_sort_3IRNS_6__lessI14ObjectLoadDataS2_EEPS2_EEvT0_S6_T_
2319:__ZNSt3__227__insertion_sort_incompleteIRNS_6__lessI14ObjectLoadDataS2_EEPS2_EEbT0_S6_T_
2320:__ZN6Object18RegisterInstanceIDEPS_
2321:__Z16CanDestroyObjectP6Objectb
2322:__Z31DestroyObjectHighLevel_InternalP6Objectb
2323:__ZN10GameObject17GetComponentIndexEPN5Unity9ComponentE
2324:__ZN10GameObject22RemoveComponentAtIndexEi
2325:__ZL19PreDestroyRecursiveR10GameObjectPm
2326:__ZNK10GameObject20QueryComponentByTypeEPKN5Unity4TypeE
2327:__ZN9Transform8GetSceneEv
2328:__ZN10UnityScene19RemoveRootFromSceneER9Transformb
2329:__ZN9Transform16RemoveFromParentENS_20RemoveFromParentModeE
2330:__ZL26DestroyGameObjectRecursiveR10GameObjectR11BatchDelete
2331:__Z17CommitBatchDeleteR11BatchDelete
2332:__Z28delete_object_internal_step2P6Object
2333:__ZN32TransformHierarchyChangeDispatch26DispatchSelfAndAllChildrenE15TransformAccessNS_12InterestTypeE
2334:__ZN17TransformInternal25DestroyTransformHierarchyEP18TransformHierarchy
2335:__ZN17TransformInternal21DetachTransformThreadER18TransformHierarchyjj
2336:__ZN17TransformInternal19FreeTransformThreadER18TransformHierarchyjj
2337:__ZN17TransformInternal27UpdateDeepChildCountUpwardsER18TransformHierarchyii
2338:__ZN32TransformHierarchyChangeDispatch22DispatchSelfAndParentsE15TransformAccessNS_12InterestTypeE
2339:__ZN5Unity9Component14SendMessageAnyERK17MessageIdentifierR11MessageData
2340:__ZN10GameObject14SendMessageAnyERK17MessageIdentifierR11MessageData
2341:__ZN16MessageForwarder13HandleMessageEPviR11MessageData
2342:__ZN23TransformChangeDispatch24RemoveTransformHierarchyER18TransformHierarchy
2343:__ZN10GameObject21WillDestroyGameObjectEv
2344:__Z19CanReplaceComponentRN5Unity9ComponentEPKNS_4TypeEPN4core12basic_stringIcNS5_20StringStorageDefaultIcEEEE
2345:__Z34FindRequiredComponentsForComponentPKN5Unity4TypeE
2346:__Z24GetComponentOrScriptNameRN5Unity9ComponentE
2347:__ZNK22SerializableManagedRef18GetScriptClassNameEv
2348:__Z6AppendRKN4core12basic_stringIcNS_20StringStorageDefaultIcEEEEPKc
2349:__Z25InitComponentRequirementsv
2350:__ZNSt3__26__treeINS_12__value_typeIPKN5Unity4TypeE10vector_setIS5_NS_4lessIS5_EENS_9allocatorIS5_EEEEENS_19__map_value_compareIS5_SC_S8_Lb1EEENS9_ISC_EEE7destroyEPNS_11__tree_nodeISC_PvEE
2351:__Z38InitComponentRequirementsForModuleSpecRK10ModuleSpec
2352:__ZN13ModuleManager3GetEv
2353:__ZNK5Unity4Type21FindAllDerivedClassesER13dynamic_arrayIPKS0_Lm0EENS0_17TypeFilterOptionsE
2354:__ZNSt3__26vectorIPKN5Unity4TypeENS_9allocatorIS4_EEE6assignIPS4_EENS_9enable_ifIXaasr21__is_forward_iteratorIT_EE5valuesr16is_constructibleIS4_NS_15iterator_traitsISB_E9referenceEEE5valueEvE4typeESB_SB_
2355:__ZNSt3__26__sortIRNS_4lessIPKN5Unity4TypeEEEPS5_EEvT0_S9_T_
2356:__ZL23AddConflictingClassIMPLPKN5Unity4TypeES2_
2357:__ZNSt3__26vectorIPKN5Unity4TypeENS_9allocatorIS4_EEE6insertENS_11__wrap_iterIPKS4_EERS9_
2358:__ZNSt3__27__sort5IRNS_4lessIPKN5Unity4TypeEEEPS5_EEjT0_S9_S9_S9_S9_T_
2359:__ZNSt3__227__insertion_sort_incompleteIRNS_4lessIPKN5Unity4TypeEEEPS5_EEbT0_S9_T_
2360:__ZNK11TypeManager23FindAllRTTIDerivedTypesEPK4RTTIR13dynamic_arrayIS2_Lm0EEb
2361:__ZN24StaticInitializeInternal13ConstructTypeI13ModuleManagerLb0EEEPvS2_10MemLabelId
2362:__ZN10UnityScene43RegisterLevelGameManagersWithManagerContextEv
2363:__ZL24StaticInitializeProfilerPv
2364:__ZL21StaticCleanupProfilerPv
2365:__ZN9profiling15ProfilerManager8ShutdownEv
2366:__ZN9profiling15ProfilerManagerD2Ev
2367:__ZN19dynamic_block_arrayIN9profiling15ProfilerManager13MarkerStorageELm1024EE13clear_deallocEv
2368:__ZN9profiling6Marker7DestroyE10MemLabelIdPS0_
2369:__ZN9profiling15ProfilerManager10InitializeEv
2370:__ZN9profiling15ProfilerManager16RegisterBuiltinsEv
2371:__ZN13RuntimeStaticI25GetTimeSinceStartupHelperLb0EE16StaticInitializeEPv
2372:__ZN24StaticInitializeInternal13ConstructTypeI25GetTimeSinceStartupHelperLb0EEEPvS2_10MemLabelId
2373:_Baselib_Timer_GetTimeSinceStartupInSeconds
2374:__ZN13RuntimeStaticI21AssetReferenceStorageLb0EE16StaticInitializeEPv
2375:__ZN13RuntimeStaticI21AssetReferenceStorageLb0EE13StaticDestroyEPv
2376:__ZN22BuiltinResourceManager16StaticInitializeEPv
2377:__ZN22BuiltinResourceManager13StaticDestroyEPv
2378:__ZN21AssetReferenceStorageD2Ev
2379:__ZN21AssetReferenceStorage22GarbageCollectCallbackEPS_R27GarbageCollectorThreadState
2380:__ZN24StaticInitializeInternal13ConstructTypeI21AssetReferenceStorageLb0EEEPvS2_10MemLabelId
2381:__ZN21AssetReferenceStorageC2Ev
2382:__ZN13RuntimeStaticI19EndOfFrameCallbacksLb0EE16StaticInitializeEPv
2383:__ZN13RuntimeStaticI19EndOfFrameCallbacksLb0EE13StaticDestroyEPv
2384:__ZN13RuntimeStaticI19UnityPluginRegistryLb0EE16StaticInitializeEPv
2385:__ZN13RuntimeStaticI19UnityPluginRegistryLb0EE13StaticDestroyEPv
2386:__ZN13RuntimeStaticINSt3__23mapIN4core12basic_stringIcNS2_20StringStorageDefaultIcEEEES6_NS0_4lessIS6_EE13stl_allocatorINS0_4pairIKS6_S6_EEL18MemLabelIdentifier16ELi16EEEELb0EE16StaticInitializeEPv
2387:__ZN13RuntimeStaticINSt3__23mapIN4core12basic_stringIcNS2_20StringStorageDefaultIcEEEES6_NS0_4lessIS6_EE13stl_allocatorINS0_4pairIKS6_S6_EEL18MemLabelIdentifier16ELi16EEEELb0EE13StaticDestroyEPv
2388:__ZNSt3__26__treeINS_12__value_typeIN4core12basic_stringIcNS2_20StringStorageDefaultIcEEEES6_EENS_19__map_value_compareIS6_S7_NS_4lessIS6_EELb1EEE13stl_allocatorIS7_L18MemLabelIdentifier16ELi16EEE7destroyEPNS_11__tree_nodeIS7_PvEE
2389:__ZN24StaticInitializeInternal13ConstructTypeI19UnityPluginRegistryLb0EEEPvS2_10MemLabelId
2390:__ZN19EndOfFrameCallbacks8DequeAllEv
2391:__ZN24StaticInitializeInternal13ConstructTypeI19EndOfFrameCallbacksLb0EEEPvS2_10MemLabelId
2392:__ZN21ComponentRequirements16StaticInitializeEPv
2393:__ZN21ComponentRequirements13StaticDestroyEPv
2394:__Z22CleanupCachingManagersPv
2395:__ZN15FileSystemEntry6DeleteEb
2396:__ZL17InitScriptingRandPv
2397:__ZL20CleanupScriptingRandPv
2398:__ZN4Rand14RandomizeStateEv
2399:__Z24GetCurrentTimeAsDateTimev
2400:__ZN10SpookyHash7Hash128EPKvmPyS2_
2401:__ZN10SpookyHash5ShortEPKvmPyS2_
2402:__ZL30InitializeHalfConversionTablesPv
2403:__ZL30InitializeRegisterDomainReloadPv
2404:__Z27CleanupAllJobReflectionDatav
2405:__ZN13RuntimeStaticI22ThreadSharedObjectPoolI26ScriptableShadowCasterDataELb1EE16StaticInitializeEPv
2406:__ZN13RuntimeStaticI22ThreadSharedObjectPoolI26ScriptableShadowCasterDataELb1EE13StaticDestroyEPv
2407:__ZN22ThreadSharedObjectPoolI26ScriptableShadowCasterDataE5ClearEv
2408:__ZN26ScriptableShadowCasterDataD2Ev
2409:__ZN26ScriptableShadowCasterData14OnReturnToPoolEv
2410:__ZN15RenderNodeQueueD2Ev
2411:__ZN15RenderNodeQueue5ResetEb
2412:__ZN19AtomicPageAllocatorD2Ev
2413:__ZNK15RenderNodeQueue22InvokeCleanupCallbacksEv
2414:__ZN24StaticInitializeInternal13ConstructTypeI22ThreadSharedObjectPoolI26ScriptableShadowCasterDataELb1EEEPvS4_10MemLabelId
2415:__ZN23DefaultMeshVertexFormatC2ERK18VertexChannelsInfo
2416:__ZN13RuntimeStaticI17UniqueIDGeneratorLb0EE16StaticInitializeEPv
2417:__ZN24StaticInitializeInternal13ConstructTypeI17UniqueIDGeneratorLb0EEEPvS2_10MemLabelId
2418:__ZN17UniqueIDGeneratorC2E10MemLabelId
2419:__ZN13RuntimeStaticI23MeshVertexFormatManagerLb0EE16StaticInitializeEPv
2420:__ZN13RuntimeStaticI23MeshVertexFormatManagerLb0EE13StaticDestroyEPv
2421:__ZNSt3__26__treeINS_12__value_typeI18VertexChannelsInfo16MeshVertexFormatEENS_19__map_value_compareIS2_S4_NS_4lessIS2_EELb1EEE13stl_allocatorIS4_L18MemLabelIdentifier20ELi16EEE7destroyEPNS_11__tree_nodeIS4_PvEE
2422:__ZN23DynamicVBOBufferManager26CleanupThreadLocalDataListEPv
2423:__Z25InitializeLODGroupManagerPv
2424:__Z22CleanupLODGroupManagerPv
2425:__ZN15LODGroupManagerD2Ev
2426:__ZN17UniqueIDGenerator7CleanupEv
2427:__ZN23TransformChangeDispatch16UnregisterSystemER27TransformChangeSystemHandle
2428:__ZN17UniqueIDGenerator16DestroyPureIndexEj
2429:__ZN17UniqueIDGenerator15CreatePureIndexEv
2430:__ZN23TransformChangeDispatch14RegisterSystemEPKcNS_12InterestTypeE
2431:__ZN21BillboardBatchManager16StaticInitializeEPv
2432:__ZN21BillboardBatchManager13StaticCleanupEPv
2433:__Z28BuildSingleStreamChannelInfoR18VertexChannelsInfoRK22VertexAttributeFormats17ShaderChannelMaskS4_
2434:__ZN23MeshVertexFormatManager19GetMeshVertexFormatERK18VertexChannelsInfo
2435:__ZN16MeshVertexFormatC2ERK18VertexChannelsInfo
2436:__ZNSt3__26__treeINS_12__value_typeI18VertexChannelsInfo16MeshVertexFormatEENS_19__map_value_compareIS2_S4_NS_4lessIS2_EELb1EEE13stl_allocatorIS4_L18MemLabelIdentifier20ELi16EEE12__find_equalIS2_EERPNS_16__tree_node_baseIPvEENS_21__tree_const_iteratorIS4_PNS_11__tree_nodeIS4_SF_EElEERPNS_15__tree_end_nodeISH_EESI_RKT_
2437:__ZL28InitializeAsyncUploadTexturePv
2438:__ZL26ShutdownAsyncUploadTexturePv
2439:__ZN20DiagnosticSwitchBaseC2EPKcS1_NS_11SwitchFlagsE
2440:__ZN16DiagnosticSwitchIbE18SetValueFromStringEPKc
2441:__ZN16DiagnosticSwitchIbE20ApplyPersistentValueEv
2442:__ZN16DiagnosticSwitchIbE20CollectScriptingInfoERN20DiagnosticSwitchBase13ScriptingInfoE
2443:__ZN16DiagnosticSwitchIbE24UpdateFromScriptingValueE18ScriptingObjectPtrb
2444:__ZN9Scripting26RaiseArgumentNullExceptionEPKc
2445:__ZN9Scripting22RaiseArgumentExceptionEPKcz
2446:__ZL32RaiseSystemExceptionCommonValistPKcS0_Pi
2447:__Z25scripting_raise_exception21ScriptingExceptionPtr
2448:__Z15delete_internalIN21ScriptingExceptionPtr14BurstExceptionEEvPT_10MemLabelIdPKci
2449:__Z11burst_abortPKcS0_
2450:__ZN9Scripting27CreateArgumentNullExceptionEPKc
2451:__Z30CreateBoxedObjectFromPrimitiveb
2452:__ZN16DiagnosticSwitchIbE18GetPersistentValueEv
2453:__Z19scripting_value_box17ScriptingClassPtrPv
2454:__Z14IsStringNumberPKc
2455:__Z14StringToUInt32RKN4core16basic_string_refIcEE
2456:__ZN18ConcurrentFreeListI24TextureUploadInstructionE7CleanUpEv
2457:__ZN18ConcurrentFreeListI24TextureDeleteInstructionE7CleanUpEv
2458:__ZN18AsyncUploadManager16StaticInitializeEPv
2459:__ZN18AsyncUploadManager13StaticDestroyEPv
2460:__ZN13RuntimeStaticIN4core8hash_mapIiiNS0_4hashIiEENSt3__28equal_toIiEEEELb0EE16StaticInitializeEPv
2461:__ZN13RuntimeStaticIN4core8hash_mapIiiNS0_4hashIiEENSt3__28equal_toIiEEEELb0EE13StaticDestroyEPv
2462:__ZN24StaticInitializeInternal13ConstructTypeIN4core8hash_mapIiiNS1_4hashIiEENSt3__28equal_toIiEEEELb0EEEPvS9_10MemLabelId
2463:__ZN18AsyncUploadManagerD2Ev
2464:__ZN14QueueAllocatorD2Ev
2465:__ZN18AsyncUploadManagerC2E10MemLabelId
2466:__ZN13RuntimeStaticI19MemorylessRequesterLb0EE16StaticInitializeEPv
2467:__ZN13RuntimeStaticI19MemorylessRequesterLb0EE13StaticDestroyEPv
2468:__ZN13RuntimeStaticI19MemorylessRequesterLb0EE7DestroyEv
2469:__ZL33MemorylessRequesterDidUnloadScenei
2470:__ZN24StaticInitializeInternal13ConstructTypeI19MemorylessRequesterLb0EEEPvS2_10MemLabelId
2471:__ZN19MemorylessRequesterC2Ev
2472:__ZL38StaticRegister_LightmapSettingsManagerPv
2473:__ZL33StaticUnregister_LightmapSettingsPv
2474:__Z14DidUnloadScenei
2475:__Z21SceneLoadedAfterAwakeiR18AwakeFromLoadQueue16SceneLoadingMode
2476:__Z20DidChangeActiveSceneP10UnitySceneS0_
2477:__ZL12WipeSettingsv
2478:__ZNK10UnityScene19GetLevelGameManagerEi
2479:__ZN16LightmapSettings8CopyFromEPKS_
2480:__ZN13dynamic_arrayI10SceneRangeLm0EE21resize_buffer_nocheckEm12ResizePolicy
2481:__ZN21EnlightenSceneMappingaSERKS_
2482:__ZN16LightmapSettings7RebuildEv
2483:__ZN16LightmapSettings28SetDynamicGILightmapTexturesEPK22RealtimeLightmapIDDatam
2484:__Znam
2485:__ZN13dynamic_arrayI28EnlightenRendererInformationLm0EE21resize_buffer_nocheckEm12ResizePolicy
2486:__ZN13dynamic_arrayI26EnlightenSystemInformationLm0EE21resize_buffer_nocheckEm12ResizePolicy
2487:__ZNSt3__26vectorINS_4pairIijEENS_9allocatorIS2_EEE6assignIPS2_EENS_9enable_ifIXaasr21__is_forward_iteratorIT_EE5valuesr16is_constructibleIS2_NS_15iterator_traitsIS9_E9referenceEEE5valueEvE4typeES9_S9_
2488:__ZN4core8hash_mapIiP16LightmapSettingsNS_4hashIiEENSt3__28equal_toIiEEEixERKi
2489:__ZN16LightmapSettings14GetLightProbesEv
2490:__ZN16LightmapSettings15AppendLightmapsEiRK13dynamic_arrayI12LightmapDataLm0EE
2491:__ZN21EnlightenSceneMapping14SetSceneHandleEi
2492:__ZN21EnlightenSceneMapping6AppendEiRKS_
2493:__ZN18LightProbesManager6AppendEP11LightProbes
2494:__ZN18LightProbesManager5ClearEv
2495:__ZN11LightProbes14LightProbeData5ClearEv
2496:__ZN26ProbeSetTetrahedralization5ClearEv
2497:__Z24InitializeMainSceneRangeiiiR13dynamic_arrayI10SceneRangeLm0EE
2498:__ZN4core8hash_mapI7Hash128iNS_4hashIS1_EENSt3__28equal_toIS1_EEEixERKS1_
2499:__ZN4core8hash_setI7Hash128NS_4hashIS1_EENSt3__28equal_toIS1_EEEaSERKS7_
2500:__ZN13dynamic_arrayI20SphericalHarmonicsL2Lm0EE21resize_buffer_nocheckEm12ResizePolicy
2501:__ZNSt3__26vectorINS_4pairI7Hash128iEE13stl_allocatorIS3_L18MemLabelIdentifier86ELi16EEE6insertENS_11__wrap_iterIPKS3_EERS9_
2502:__ZN4core8hash_setI7Hash128NS_4hashIS1_EENSt3__28equal_toIS1_EEE6insertERKS1_
2503:__ZN4core8hash_setINS_4pairIK7Hash128P11LightProbesLb0EEENS_9hash_pairINS_4hashIS2_EES3_S5_EENS_10equal_pairINSt3__28equal_toIS2_EES3_S5_EEE4growEi
2504:__ZN4core8hash_setI7Hash128NS_4hashIS1_EENSt3__28equal_toIS1_EEE4growEi
2505:__ZN13dynamic_arrayI10SceneRangeLm0EE4growEv
2506:__ZNSt3__26vectorINS_4pairIijEENS_9allocatorIS2_EEE21__push_back_slow_pathIS2_EEvOT_
2507:__ZN13sorted_vectorINSt3__24pairIijEEN10vector_mapIijNS0_4lessIiEENS0_9allocatorIS2_EEE13value_compareES7_E21sort_clear_duplicatesEv
2508:__ZnwmRKSt9nothrow_t
2509:__ZNSt3__213__stable_sortIRN10vector_mapIijNS_4lessIiEENS_9allocatorINS_4pairIijEEEEE13value_compareENS_11__wrap_iterIPS6_EEEEvT0_SE_T_NS_15iterator_traitsISE_E15difference_typeEPNSH_10value_typeEl
2510:__ZNSt3__218__stable_sort_moveIRN10vector_mapIijNS_4lessIiEENS_9allocatorINS_4pairIijEEEEE13value_compareENS_11__wrap_iterIPS6_EEEEvT0_SE_T_NS_15iterator_traitsISE_E15difference_typeEPNSH_10value_typeE
2511:__ZNSt3__215__inplace_mergeIRN10vector_mapIijNS_4lessIiEENS_9allocatorINS_4pairIijEEEEE13value_compareENS_11__wrap_iterIPS6_EEEEvT0_SE_SE_T_NS_15iterator_traitsISE_E15difference_typeESI_PNSH_10value_typeEl
2512:__ZNSt3__224__buffered_inplace_mergeIRN10vector_mapIijNS_4lessIiEENS_9allocatorINS_4pairIijEEEEE13value_compareENS_11__wrap_iterIPS6_EEEEvT0_SE_SE_T_NS_15iterator_traitsISE_E15difference_typeESI_PNSH_10value_typeE
2513:__Z16AppendSceneRangeiiiiiR13dynamic_arrayI10SceneRangeLm0EE
2514:__ZNK19RuntimeSceneManager19GetLoadedSceneCountEv
2515:__ZN18LightProbesManager6RemoveEP11LightProbes
2516:__ZN23LightmapSettingsManager19RemoveSceneSettingsEi
2517:__ZNK21EnlightenSceneMapping14FindSceneIndexEi
2518:__ZN21EnlightenSceneMapping5EraseEi
2519:__ZN16LightmapSettings15RemoveLightmapsEi
2520:__Z26ExtractAllRenderersInSceneR13dynamic_arrayIP8RendererLm0EE
2521:__Z25ExtractAllTerrainsInSceneR13dynamic_arrayIP7TerrainLm0EE
2522:__ZN6Object17FindObjectsOfTypeEPKN5Unity4TypeER13dynamic_arrayIPS_Lm0EEb
2523:__ZL31FindObjectsOfTypeImplementationPN4core8hash_setIP6ObjectNS_4hashIS2_EENSt3__28equal_toIS2_EEEEPKN5Unity4TypeER13dynamic_arrayIS2_Lm0EE
2524:__ZNSt3__26__sortIR17CompareInstanceIDPP6ObjectEEvT0_S6_T_
2525:__ZNSt3__27__sort5IR17CompareInstanceIDPP6ObjectEEjT0_S6_S6_S6_S6_T_
2526:__ZNSt3__227__insertion_sort_incompleteIR17CompareInstanceIDPP6ObjectEEbT0_S6_T_
2527:__Z14FindSceneIndexRK13dynamic_arrayI10SceneRangeLm0EEi
2528:__ZL33StaticRegister_LightProbesManagerPv
2529:__ZL35StaticUnregister_LightProbesManagerPv
2530:__ZN13dynamic_arrayI16LightProbeOffsetLm0EED2Ev
2531:__ZN13RuntimeStaticI17UniqueIDGeneratorLb1EE16StaticInitializeEPv
2532:__Z37InitializeIntermediateRendererManagerPv
2533:__Z34CleanupIntermediateRendererManagerPv
2534:__ZN27IntermediateRendererManagerD2Ev
2535:__ZN27IntermediateRendererManager27RemoveIntermediateRenderersEi
2536:__ZN21IntermediateRenderers5ClearEm
2537:__ZN13dynamic_arrayI4AABBLm0EE21resize_buffer_nocheckEm12ResizePolicy
2538:__ZN24StaticInitializeInternal13ConstructTypeI17UniqueIDGeneratorLb1EEEPvS2_10MemLabelId
2539:__ZN13RuntimeStaticI10WatermarksLb0EE16StaticInitializeEPv
2540:__ZN11MatrixStack5ResetEv
2541:__ZL31InitializeRendererUpdateManagerPv
2542:__ZL28CleanupRendererUpdateManagerPv
2543:__ZN21RendererUpdateManagerD2Ev
2544:__ZN10Matrix4x4f11SetIdentityEv
2545:__ZN24StaticInitializeInternal13ConstructTypeI10WatermarksLb0EEEPvS2_10MemLabelId
2546:__ZN15GlobalCallbacksC2Ev
2547:__ZN17CommonStringTable16StaticInitializeEPv
2548:__ZN17CommonStringTable13StaticCleanupEPv
2549:__ZN17CommonStringTableD2Ev
2550:__ZN17CommonStringTableC2E10MemLabelId
2551:__ZL24CleanupPrepassRenderLoopPv
2552:__ZL17CleanupGUITexturePv
2553:__ZN19CullingGroupManager15InitializeClassEPv
2554:__ZN19CullingGroupManager12CleanupClassEPv
2555:___cxx_global_var_init_1615
2556:___cxx_global_var_init_1_1616
2557:__ZL14CleanupShadowsPv
2558:__ZN9ShaderLab16FastPropertyNameC2EPKc
2559:__ZN11ColorRGBA32C2Ehhhh
2560:__ZNK11ColorRGBA32cv10ColorRGBAfEv
2561:__ZN10ColorRGBAfC2Effff
2562:__ZL25CleanupImageFilterGlobalsPv
2563:__ZN12LightManager15InitializeClassEPv
2564:__ZN12LightManager12CleanupClassEPv
2565:__ZN13RuntimeStaticI13RendererSceneLb0EE16StaticInitializeEPv
2566:__ZN13RuntimeStaticI13RendererSceneLb0EE13StaticDestroyEPv
2567:__ZN13RendererSceneD2Ev
2568:__ZN13RendererScene14RemoveRendererEi
2569:__ZN13RendererScene28SceneAfterCullingOutputReadyEPK9IndexListPK16RendererCullData
2570:__ZN13RendererScene16UpdateVisibilityEPK9IndexList
2571:__ZN24StaticInitializeInternal13ConstructTypeI13RendererSceneLb0EEEPvS2_10MemLabelId
2572:__ZN13RendererSceneC2Ev
2573:__ZN13RuntimeStaticI13dynamic_arrayIP6CameraLm0EELb0EE16StaticInitializeEPv
2574:__ZL33CleanupCubemapGPUUtilityMaterialsPv
2575:__ZN24MeshIntermediateRenderer16StaticInitializeEPv
2576:__ZN24MeshIntermediateRenderer13StaticDestroyEPv
2577:__ZN30ProceduralIntermediateRenderer16StaticInitializeEPv
2578:__ZN30ProceduralIntermediateRenderer13StaticDestroyEPv
2579:__ZN38ProceduralIndirectIntermediateRenderer16StaticInitializeEPv
2580:__ZN38ProceduralIndirectIntermediateRenderer13StaticDestroyEPv
2581:__ZN13RuntimeStaticI33ScriptableRuntimeReflectionSystemLb0EE16StaticInitializeEPv
2582:__ZN13RuntimeStaticI29ScriptingInstanceDirtyWrapperLb0EE16StaticInitializeEPv
2583:__ZN24StaticInitializeInternal13ConstructTypeI29ScriptingInstanceDirtyWrapperLb0EEEPvS2_10MemLabelId
2584:__ZN24StaticInitializeInternal13ConstructTypeI33ScriptableRuntimeReflectionSystemLb0EEEPvS2_10MemLabelId
2585:__ZN21InstancedMeshRenderer16StaticInitializeEPv
2586:__ZN21InstancedMeshRenderer13StaticDestroyEPv
2587:__ZL30PrepareBatchRendererGroupNodesILb0EEvR35RenderNodeQueuePrepareThreadContext
2588:__ZL30PrepareBatchRendererGroupNodesILb1EEvR35RenderNodeQueuePrepareThreadContext
2589:__ZL46PrepareRenderNodeQueueExtractionCullingContextR29RenderNodeQueuePrepareContext_2413
2590:__ZL32PostRenderCleanupCullingContextsPv
2591:__Z34RegisterPrepareRenderNodesCallbackiPFvR35RenderNodeQueuePrepareThreadContextES2_PFPvR29RenderNodeQueuePrepareContextEPFvS3_ES9_
2592:__ZN19SharedObjectFactoryI27BatchRendererCullingOutputsE7DestroyEPS0_10MemLabelId
2593:__Z28QueuePrepareNodeToMainThreadR35RenderNodeQueuePrepareThreadContext
2594:__Z16CalculateLODFadehhf
2595:__ZN12BaseRenderer16FlattenBasicDataERKS_12LODFadeValueR10RenderNode
2596:__ZN12BaseRenderer18FlattenCustomPropsEPKPK19ShaderPropertySheetiR22PerThreadPageAllocatorR10RenderNode
2597:__Z30GetLightProbeProxyVolumeHandleRK28LightProbeProxyVolumeContext4PPtrI21LightProbeProxyVolumeE
2598:__ZN12BaseRenderer16FlattenProbeDataE4PPtrI9TransformERisRK17LightProbeContextR10RenderNode
2599:__ZN12BaseRenderer28CanFlattenSharedMaterialDataILb1EEEbRKS_
2600:__ZN12BaseRenderer25FlattenSharedMaterialDataILb1EEEvRKS_R22PerThreadPageAllocatorR10RenderNode
2601:__ZN22PerThreadPageAllocator14AcquireNewPageEm
2602:__ZN4Mesh14GetMeshBuffersER11MeshBuffersPS_
2603:__Z45DrawSingleMeshIntermediateRendererWithCullingRK15RenderNodeQueuej16VertexInputMasksi
2604:__Z61DrawInstancedMeshIntermediateRendererWithInstancingAndCullingRK15RenderNodeQueueRK18RenderMultipleData16VertexInputMasks
2605:__ZL44CleanupMeshInstancedMeshIntermediateRendererR15RenderNodeQueuej
2606:__ZN21BuiltinInstancingDataD2Ev
2607:__ZN14SharedMeshDataD2Ev
2608:__ZN13dynamic_arrayI17BlendShapeChannelLm0EED2Ev
2609:__ZN10VertexDataD2Ev
2610:__ZN14ConstantStringD2Ev
2611:__ZNK17InstancingBatcher23GetBatchedInstanceCountEjPjS0_S0_S0_
2612:__ZNK17InstancingBatcher15RenderInstancesERK15RenderNodeQueueRK19ShaderPropertySheetRKNS_22RenderInstancesConfigsERK17MeshRenderingDatai16VertexInputMasksiPKiiPKN10Instancing11PropertyMapE
2613:__ZNK17MeshRenderingData11PrepareDrawER9GfxDevice16VertexInputMasksRP17VertexDeclarationR11MeshBuffersR16DrawBuffersRangei
2614:__ZN19ShaderPropertySheet8SetFloatEN9ShaderLab16FastPropertyNameEfNS_8SetFlagsE
2615:__ZZNK17InstancingBatcher15RenderInstancesERK15RenderNodeQueueRK19ShaderPropertySheetRKNS_22RenderInstancesConfigsERK17MeshRenderingDatai16VertexInputMasksiPKiiPKN10Instancing11PropertyMapEEN10CustomData10CbCallbackEjjR8JobFencePPvRKS_SM_
2616:__ZZNK17InstancingBatcher15RenderInstancesERK15RenderNodeQueueRK19ShaderPropertySheetRKNS_22RenderInstancesConfigsERK17MeshRenderingDatai16VertexInputMasksiPKiiPKN10Instancing11PropertyMapEEN10CustomData12DrawCallbackEjjR9GfxDevicePv
2617:__ZNK17InstancingBatcher21CustomRenderInstancesEjPFvjjR8JobFencePPvRKS_S2_EPFvjjR9GfxDeviceS2_ES2_
2618:__ZN19ShaderPropertySheet16SetArrayPropertyEN9ShaderLab16FastPropertyNameE23ShaderPropertySheetTypePKvm
2619:__ZN19ShaderPropertySheet35SetTextureWithNoAuxiliaryPropertiesEN9ShaderLab16FastPropertyNameE9TextureID16TextureDimension14VRTextureUsage
2620:__ZN19ShaderPropertySheet16SetComputeBufferEN9ShaderLab16FastPropertyNameE15ComputeBufferIDNS_8SetFlagsE
2621:__ZN19ShaderPropertySheet27AddNewPropertyUninitializedEN9ShaderLab16FastPropertyNameE23ShaderPropertySheetTypej
2622:__ZN13dynamic_arrayIhLm4EE21resize_buffer_nocheckEm12ResizePolicy
2623:__ZN9ShaderLab6TexEnv14SetTextureInfoE9TextureID16TextureDimension14VRTextureUsage19TextureSamplingTypeRKNS_16FastPropertyNameE
2624:__ZNK9ShaderLab16FastPropertyName7GetNameEv
2625:__ZN10Instancing11DrawAPIArgsD2Ev
2626:__ZNK17InstancingBatcher18MapConstantBuffersER9GfxDeviceR13dynamic_arrayIPvLm0EERS2_I5CbKeyLm0EERS2_ImLm0EEj
2627:__ZNK17InstancingBatcher25FillInstanceBufferWithJobIN10Instancing11DrawAPIArgsEEEvR8JobFencePPvjjRKT_
2628:__ZNK15RenderNodeQueue15AddDependentJobER8JobFence
2629:__ZN10Instancing11DrawAPIArgsaSERKS0_
2630:__ZL17InstanceBufferJobIN10Instancing11DrawAPIArgsEEvP21InstanceBufferJobDataIT_E
2631:__ZNK15InstancingProps35FillInstanceBufferDispatchConstantsIN10Instancing11DrawAPIArgsEEEvPPvjjRK19ShaderPropertySheetRKT_
2632:__ZN19SharedObjectFactoryI21InstanceBufferJobDataIN10Instancing11DrawAPIArgsEEE7DestroyEPS3_10MemLabelId
2633:__Z25InvertMatrix4x4_General3DPKfPf
2634:__ZN10Instancing11DrawAPIArgsC2Ev
2635:__ZN19ShaderPropertySheetD2Ev
2636:__ZN19ShaderPropertySheetD0Ev
2637:__ZN10Instancing11DrawAPIArgsC2ERK19ShaderPropertySheetPKNS_11PropertyMapEPK8Vector4fS9_S9_iiPKi
2638:__Z30AddDefaultStreamsToMeshBuffersR9GfxDeviceR11MeshBuffersj17ShaderChannelMaskS3_
2639:__ZN16MeshVertexFormat20GetVertexDeclarationER9GfxDevice16VertexInputMasksPKS_
2640:__ZNK16MeshVertexFormat28GetVertexDeclarationInternalER9GfxDevice17ShaderChannelMaskPKS_
2641:__ZN9GfxDevice20GetVertexDeclarationERK18VertexChannelsInfoNS_30VertexDeclarationMRUCacheIndexE
2642:__ZN25VertexDeclarationMRUCache13GetVertexDeclER9GfxDeviceRK18VertexChannelsInfo
2643:__ZNK19ShaderPropertySheet24GetMatrixArrayFromScriptEi
2644:__ZN4Mesh10CreateMeshEv
2645:__ZNK15GeometryBuffers14GetMeshBuffersER11MeshBuffers
2646:__ZNK15GeometryBuffers19AppendVertexBuffersER11MeshBuffers
2647:__ZN4Mesh5ClearEb
2648:__ZN4Mesh15UnshareMeshDataEv
2649:__Z27ConvertSubMeshesToTrianglesIjEvR13dynamic_arrayI7SubMeshLm0EERS0_IhLm0EE
2650:__Z27ConvertSubMeshesToTrianglesItEvR13dynamic_arrayI7SubMeshLm0EERS0_IhLm0EE
2651:__ZN15GeometryBuffers26CreateOrUpdateVertexBufferER9GfxDeviceiR13GfxBufferDescPKv20GfxUpdateBufferFlagsPKc
2652:__ZN15GeometryBuffers16FreeVertexBufferEi
2653:__ZN15GeometryBuffers25CreateOrUpdateIndexBufferER9GfxDeviceR13GfxBufferDescPKv20GfxUpdateBufferFlagsPKc
2654:__ZN15GeometryBuffers15FreeIndexBufferEv
2655:__ZN23PerBoneCountSkinBuffers4FreeEv
2656:__ZN13MemoryManager27GetCorrespondingThreadLabelE10MemLabelId
2657:__ZN14SharedMeshDataC2ERKS_
2658:__ZN13dynamic_arrayI7SubMeshLm0EE21resize_buffer_nocheckEm12ResizePolicy
2659:__ZN13dynamic_arrayI10Matrix4x4fLm16EE21resize_buffer_nocheckEm12ResizePolicy
2660:__ZN13dynamic_arrayI12BoneWeights2Lm16EE21resize_buffer_nocheckEm12ResizePolicy
2661:__ZN13dynamic_arrayI12BoneWeights4Lm16EE21resize_buffer_nocheckEm12ResizePolicy
2662:__ZN14BlendShapeDataC2ERKS_
2663:__ZN14ConstantString6assignERKS_
2664:__ZN10VertexDataC2E10MemLabelIdRKS_17ShaderChannelMask
2665:__ZNK14VertexDataInfo22CalculateStreamsLayoutEv
2666:__ZNK14VertexDataInfo19GetAttributeFormatsEv
2667:__ZN14VertexDataInfo12UpdateFormatEm17ShaderChannelMaskS0_RK19VertexStreamsLayoutRK22VertexAttributeFormats
2668:__ZL12CopyChannelsm17ShaderChannelMaskRK11fixed_arrayI16VertexStreamInfoLm4EERK18VertexChannelsInfoPKhS4_S7_Ph
2669:__ZN14VertexDataInfo18UpdateImplicitDataEv
2670:__Z43IsVertexFormatCompatibleWithDynamicBatchingRK14VertexDataInfo
2671:__ZN13dynamic_arrayI7SubMeshLm0EE4growEv
2672:__ZN14SharedMeshData16ClearBlendShapesEv
2673:__Z17SendMessageDirectR6ObjectRK17MessageIdentifierR11MessageData
2674:__ZN4Mesh14ResizeVerticesEm17ShaderChannelMaskS0_RK22VertexAttributeFormats
2675:__ZN14VertexDataInfoC2Ev
2676:__Z4swapR10VertexDataS0_
2677:__ZN4Mesh14ClearSkinCacheEv
2678:__ZN4Mesh16SetChannelsDirtyE17ShaderChannelMaskb15MeshUpdateFlags
2679:__ZN14SharedMeshData22ClearCachedBoneWeightsEv
2680:__ZN10VertexData6ResizeEm17ShaderChannelMaskS0_RK19VertexStreamsLayoutRK22VertexAttributeFormats
2681:__ZN24VariableBoneCountWeights14ResizeVerticesEjj
2682:__ZN19AtomicPageAllocator12AllocatePageEm
2683:__ZNK8Material32AcquireSharedMaterialDataFromJobEv
2684:__ZN8Material25AcquireSharedMaterialDataEv
2685:__ZN8Material15BuildPropertiesEv
2686:__ZN8Material12UpdateHashesEv
2687:__ZN8Material19UnshareMaterialDataEv
2688:__ZNK9ShaderLab4Pass21ComputePassValuesHashERK16ShaderKeywordSetPK19ShaderPropertySheetP6Shader
2689:__ZN9ShaderLab27ComputeStateBlockValuesHashERK13dynamic_arrayIiLm0EEPK19ShaderPropertySheetS6_
2690:__ZN9ShaderLab9IntShader23CreateStateBlocksForKeyEjPK19ShaderPropertySheetS3_
2691:__ZN9ShaderLab11ShaderState15AddDeviceStatesEjPK19ShaderPropertySheetS3_
2692:__ZNK9ShaderLab11ShaderState17BuildDeviceStatesER9GfxDevicePK19ShaderPropertySheetS5_RNS0_12DeviceStatesE
2693:__ZNK9ShaderLab20ShaderBlendStateDesc15ToGfxBlendStateEPK19ShaderPropertySheetS3_R13GfxBlendState
2694:__ZN9ShaderLab11shaderprops8GetFloatEPK19ShaderPropertySheetS3_NS_16FastPropertyNameE
2695:__ZNK9ShaderLab21ShaderRasterStateDesc16ToGfxRasterStateEPK19ShaderPropertySheetS3_R14GfxRasterState
2696:__ZNK9ShaderLab22ShaderStencilStateDesc17ToGfxStencilStateEPK19ShaderPropertySheetS3_RK14GfxRasterStateR15GfxStencilState
2697:__ZNK9ShaderLab7Program21GetMatchingSubProgramEPK6ShaderPKNS_4PassERK16ShaderKeywordSetjPS7_R19ShaderSnippetResultbb
2698:__ZNK20GpuProgramParameters23PrepareOverridingValuesERK19ShaderPropertySheetR13dynamic_arrayIhLm4EE
2699:__ZL22PrepareValueParametersI27OverridingParameterPreparerEvRK13dynamic_arrayIN20GpuProgramParameters14ValueParameterELm0EEjjjRS1_IhLm4EERKT_
2700:__ZNK9ShaderLab6TexEnv11PrepareDataEiibP15GfxTextureParam
2701:__Z35UnityShaderExtPluginKeywordsEnabledRK16ShaderKeywordSet
2702:__Z41UnityShaderExtIsCustomPluginVariantNeededjj
2703:__ZNK15dense_hashtableINSt3__24pairIKN9ShaderLab7Program23ShaderKeywordSetAndHashENS3_21SubProgramLookupEntryEEES4_NS3_24ShaderKeywordHashFunctorEN14dense_hash_mapIS4_S6_S8_NS0_8equal_toIS4_EE13stl_allocatorIS7_L18MemLabelIdentifier71ELi16EEE9SelectKeyESB_SE_E23find_position_with_hashERS5_m
2704:__ZN9ShaderLab32FindBestMatchingShaderKeywordSetERK16ShaderKeywordSetRK13dynamic_arrayIS0_Lm0EEPS5_
2705:__ZN9ShaderLab10SubProgram7CompileEv
2706:__ZNK9ShaderLab7Program24MarkVariantAsUnsupportedERK16ShaderKeywordSet
2707:__ZN15dense_hashtableINSt3__24pairIKN9ShaderLab7Program23ShaderKeywordSetAndHashENS3_21SubProgramLookupEntryEEES4_NS3_24ShaderKeywordHashFunctorEN14dense_hash_mapIS4_S6_S8_NS0_8equal_toIS4_EE13stl_allocatorIS7_L18MemLabelIdentifier71ELi16EEE9SelectKeyESB_SE_E12resize_deltaEmm
2708:__ZN15dense_hashtableINSt3__24pairIKN9ShaderLab7Program23ShaderKeywordSetAndHashENS3_21SubProgramLookupEntryEEES4_NS3_24ShaderKeywordHashFunctorEN14dense_hash_mapIS4_S6_S8_NS0_8equal_toIS4_EE13stl_allocatorIS7_L18MemLabelIdentifier71ELi16EEE9SelectKeyESB_SE_E15insert_noresizeERKS7_
2709:__ZN15dense_hashtableINSt3__24pairIKN9ShaderLab7Program23ShaderKeywordSetAndHashENS3_21SubProgramLookupEntryEEES4_NS3_24ShaderKeywordHashFunctorEN14dense_hash_mapIS4_S6_S8_NS0_8equal_toIS4_EE13stl_allocatorIS7_L18MemLabelIdentifier71ELi16EEE9SelectKeyESB_SE_E12maybe_shrinkEv
2710:__ZN15dense_hashtableINSt3__24pairIKN9ShaderLab7Program23ShaderKeywordSetAndHashENS3_21SubProgramLookupEntryEEES4_NS3_24ShaderKeywordHashFunctorEN14dense_hash_mapIS4_S6_S8_NS0_8equal_toIS4_EE13stl_allocatorIS7_L18MemLabelIdentifier71ELi16EEE9SelectKeyESB_SE_E9copy_fromERKSH_m
2711:__ZN30dense_hashtable_const_iteratorINSt3__24pairIKN9ShaderLab7Program23ShaderKeywordSetAndHashENS3_21SubProgramLookupEntryEEES4_NS3_24ShaderKeywordHashFunctorEN14dense_hash_mapIS4_S6_S8_NS0_8equal_toIS4_EE13stl_allocatorIS7_L18MemLabelIdentifier71ELi16EEE9SelectKeyESB_SE_E30advance_past_empty_and_deletedEv
2712:__ZN13dynamic_arrayI16ShaderKeywordSetLm0EE4growEv
2713:__ZN20GpuProgramParametersaSERKS_
2714:__Z34UnityShaderExtCanCompileGPUProgramRK16ShaderKeywordSet20ShaderGpuProgramType
2715:__ZN16PropertyNamesSet6insertERKS_
2716:__ZN22CreateGpuProgramOutputD2Ev
2717:__ZN13dynamic_arrayIN20GpuProgramParameters14ConstantBufferELm0EED2Ev
2718:__ZN13dynamic_arrayIN20GpuProgramParameters15StructParameterELm0EED2Ev
2719:__ZN13dynamic_arrayIN20GpuProgramParameters14ValueParameterELm0EE21resize_buffer_nocheckEm12ResizePolicy
2720:__ZN13dynamic_arrayIN20GpuProgramParameters14ConstantBufferELm0EE21resize_buffer_nocheckEm12ResizePolicy
2721:__Z30copy_construct_array_autolabelIN20GpuProgramParameters14ConstantBufferEEvPT_mPKS2_10MemLabelId
2722:__ZN13dynamic_arrayIN20GpuProgramParameters15StructParameterELm0EE6assignEPKS1_S4_
2723:__ZN13dynamic_arrayIN20GpuProgramParameters15StructParameterELm0EE21resize_buffer_nocheckEm12ResizePolicy
2724:__ZN22CreateGpuProgramOutputC2Ev
2725:__ZN8keywords19ComputeKeywordMatchERK16ShaderKeywordSetS2_
2726:__ZN18SharedMaterialDataC2ERKS_
2727:__ZN19RenderBufferManager7Buffers17ReleaseTempBufferEP9GfxBuffer
2728:__ZN10MemoryPool8AllocateEm
2729:__ZN4core8hash_mapIN19RenderBufferManager7Buffers3KeyEPNS2_11BufferEntryENS2_9KeyHasherENSt3__28equal_toIS3_EEE6insertERKS3_RKS5_
2730:__ZN4core8hash_setINS_4pairIKN19RenderBufferManager7Buffers3KeyEPNS3_11BufferEntryELb0EEENS_9hash_pairINS3_9KeyHasherES5_S7_EENS_10equal_pairINSt3__28equal_toIS4_EES5_S7_EEE4growEi
2731:__ZN10MemoryPool14AllocNewBubbleEv
2732:__ZN19ShaderPropertySheetC2E10MemLabelIdRKS_
2733:__ZN18SharedMaterialDataD2Ev
2734:__ZN18SharedMaterialDataD0Ev
2735:__ZN24MaterialDisplayListCache20MaterialDisplayLists22InvalidateDisplayListsEv
2736:__ZN24MaterialDisplayListCache16CachedShaderPass10ReleaseAllEv
2737:__ZN6Shader10GetDefaultEv
2738:__ZN19ShaderPropertySheet8CopyFromERKS_
2739:__ZN18UnityPropertySheet20AddNewShaderlabPropsERK19ShaderPropertySheet
2740:__ZN18UnityPropertySheet25AssignDefinedPropertiesToER19ShaderPropertySheet
2741:__ZN8Material10SetTextureEN9ShaderLab16FastPropertyNameEP7Texture
2742:__ZN24MaterialDisplayListCache22InvalidateDisplayListsER18SharedMaterialData
2743:__ZN19ShaderPropertySheet18AddTextureFromInfoERK23FastTexturePropertyNamePKN9ShaderLab25SerializedTexturePropertyE
2744:__ZN19ShaderPropertySheet17UpdateTextureInfoEiRK23FastTexturePropertyNameP7Textureb9TextureID
2745:__ZN8Material28UpdateHashesOnPropertyChangeEN9ShaderLab16FastPropertyNameE
2746:__ZN23TextureStreamingManager14UpdateMaterialER8Material
2747:__ZN20TextureStreamingData15FreeTextureInfoEP17StreamingRenderer
2748:__Z22GetTextureDecodeValues16TextureUsageMode17TextureColorSpace
2749:__ZN19ShaderPropertySheet37CreateTextureAuxPropertyUninitializedEN9ShaderLab16FastPropertyNameES1_PKc
2750:__ZN9ShaderLab6TexEnvC2ERKNS_25SerializedTexturePropertyE
2751:__ZN19ShaderPropertySheet9SetVectorEN9ShaderLab16FastPropertyNameERK8Vector4fNS_8SetFlagsE
2752:__ZN19ShaderPropertySheet23SetTextureWithPlacementERK23FastTexturePropertyNameP7Texture8Vector2fS5_
2753:__ZNK19ShaderPropertySheet24GetFloatValueInsRGBSpaceEi
2754:__ZNK19ShaderPropertySheet25GetVectorValueInsRGBSpaceEi
2755:__ZNK22BuiltinResourceManager11GetResourceEPKN5Unity4TypeERKN4core12basic_stringIcNS4_20StringStorageDefaultIcEEEE
2756:__ZNK13sorted_vectorIN22BuiltinResourceManager8ResourceENSt3__24lessIS1_EENS2_9allocatorIS1_EEE4findIS1_EENS2_11__wrap_iterIPKS1_EERKT_
2757:__ZNK28ReflectionProbeAnchorManager35FindCachedReflectionProbeFromAnchorEPK9TransformRK4AABBRS3_RsS7_
2758:__ZNK28ReflectionProbeAnchorManager28GetCachedProbeAnchorPositionERK9Transform
2759:__Z38CalculateLightProbeSamplingCoordinatesRK17LightProbeContextRK8Vector3fiR29LightProbeSamplingCoordinates
2760:__ZNK11LightProbes14LightProbeData33GetLightProbeInterpolationWeightsERK8Vector3fRiR8Vector4f
2761:__Z37GetBarycentricCoordinatesForOuterCellPPK8Vector3fRK13dynamic_arrayIS_Lm0EERS0_RK11TetrahedronR8Vector4f
2762:__ZN15LightProbeUtils32BarycentricCoordinates3DTriangleEPK8Vector3fRS1_
2763:__ZN28ReflectionProbeAnchorManager37FindReflectionProbeFromAnchorInternalEPK9Transform8Vector3fRK4AABBRS4_RsS8_
2764:__ZNK10GameObject25QueryComponentByExactTypeEPKN5Unity4TypeE
2765:__ZN12BaseRenderer25FlattenSharedMaterialDataILb0EEEvRKS_R22PerThreadPageAllocatorR10RenderNode
2766:__ZN13RuntimeStaticI20BurstCompilerServiceLb0EE16StaticInitializeEPv
2767:__ZN13RuntimeStaticI20BurstCompilerServiceLb0EE13StaticDestroyEPv
2768:__ZL44DelegateCache_InitializeRegisterDomainReloadPv
2769:__ZL25CleanupAllCachedDelegatesv
2770:__ZN20BurstCompilerService12InternalDataD2Ev
2771:__ZN24StaticInitializeInternal13ConstructTypeI20BurstCompilerServiceLb0EEEPvS2_10MemLabelId
2772:__ZN20BurstCompilerServiceC2Ev
2773:__ZN20BurstCompilerService40NativeGetExternalFunctionPointerCallbackEPKc
2774:__ZL22RegisterICallWithBurstPKcPKv
2775:__Z41scripting_add_icall_registration_callbackPFvPKcPKvE
2776:__ZN4core8hash_mapINS_12basic_stringIcNS_20StringStorageDefaultIcEEEEPKvNS_4hashIS4_EENSt3__28equal_toIS4_EEEixERKS4_
2777:__Z23burst_get_dispatch_infov
2778:__ZN17BaseObjectManager16StaticInitializeEPv
2779:__ZN17BaseObjectManager13StaticDestroyEPv
2780:__ZN6Object13StaticDestroyEv
2781:__ZN11TypeManager21CleanupGlobalInstanceEv
2782:__ZN11TypeManagerD2Ev
2783:__ZNSt3__26__treeINS_12__value_typeIiN11TypeManager18TypeCallbackStructEEENS_19__map_value_compareIiS4_NS_4lessIiEELb1EEENS_9allocatorIS4_EEE7destroyEPNS_11__tree_nodeIS4_PvEE
2784:__ZN11TypeManager24InitializeGlobalInstanceEv
2785:__ZN6Object16StaticInitializeEv
2786:__ZN11TypeManager12RegisterTypeERK20TypeRegistrationDesc
2787:__ZN11TypeManager36FatalErrorOnPersistentTypeIDConflictEiPKc
2788:__ZN4core8hash_mapIPKcPK4RTTIN11TypeManager23ConstCharPtrHashFunctorENS6_19ConstCharPtrEqualToEEixERKS2_
2789:__ZN13RuntimeStaticI12EventManagerLb1EE16StaticInitializeEPv
2790:__ZN13RuntimeStaticI12EventManagerLb1EE13StaticDestroyEPv
2791:__ZN13RuntimeStaticI14MessageHandlerLb0EE16StaticInitializeEPv
2792:__ZN13RuntimeStaticI14MessageHandlerLb0EE13StaticDestroyEPv
2793:__ZN13RuntimeStaticI14MessageHandlerLb0EE7DestroyEv
2794:__ZN24StaticInitializeInternal13ConstructTypeI14MessageHandlerLb0EEEPvS2_10MemLabelId
2795:__ZN24StaticInitializeInternal13ConstructTypeI12EventManagerLb1EEEPvS2_10MemLabelId
2796:__ZL39CreateRegisteredMessageIdentifiersArrayPv
2797:__ZL40DestroyRegisteredMessageIdentifiersArrayPv
2798:__ZN13RuntimeStaticI12AdsIdHandlerLb0EE16StaticInitializeEPv
2799:__ZN13RuntimeStaticI12AdsIdHandlerLb0EE13StaticDestroyEPv
2800:__ZN13RuntimeStaticI15ApplicationInfoLb0EE16StaticInitializeEPv
2801:__ZN13RuntimeStaticI15ApplicationInfoLb0EE13StaticDestroyEPv
2802:__ZN24StaticInitializeInternal13ConstructTypeI15ApplicationInfoLb0EEEPvS2_10MemLabelId
2803:__ZN12AdsIdHandlerD2Ev
2804:__ZN24StaticInitializeInternal13ConstructTypeI12AdsIdHandlerLb0EEEPvS2_10MemLabelId
2805:__ZN13RuntimeStaticI18SpriteAtlasManagerLb1EE16StaticInitializeEPv
2806:__ZN24StaticInitializeInternal13ConstructTypeI18SpriteAtlasManagerLb1EEEPvS2_10MemLabelId
2807:__ZZN18SpriteAtlasManagerC1E10MemLabelIdEN46EarlyUpdateSpriteAtlasManagerUpdateRegistrator7ForwardEv
2808:__ZN18SpriteAtlasManager21CleanupInvalidAtlasesEv
2809:__ZN18SpriteAtlasManager21RequestAtlasViaScriptEv
2810:__ZN13sorted_vectorIN4core12basic_stringIcNS0_20StringStorageDefaultIcEEEENSt3__24lessIS4_EE13stl_allocatorIS4_L18MemLabelIdentifier85ELi16EEE21sort_clear_duplicatesEv
2811:__ZN18ScriptingArguments9AddStringEPKc
2812:__Z13FormatOrderedPKcz
2813:__ZL20FormatOrderedProcessPKcP17FormatOrderedDataPc
2814:__ZNSt3__213__stable_sortIRNS_4lessIN4core12basic_stringIcNS2_20StringStorageDefaultIcEEEEEENS_11__wrap_iterIPS6_EEEEvT0_SC_T_NS_15iterator_traitsISC_E15difference_typeEPNSF_10value_typeEl
2815:__Z17remove_duplicatesINSt3__211__wrap_iterIPN4core12basic_stringIcNS2_20StringStorageDefaultIcEEEEEENS0_4lessIS6_EEET_SB_SB_T0_
2816:__ZNSt3__216__insertion_sortIRNS_4lessIN4core12basic_stringIcNS2_20StringStorageDefaultIcEEEEEENS_11__wrap_iterIPS6_EEEEvT0_SC_T_
2817:__ZNSt3__218__stable_sort_moveIRNS_4lessIN4core12basic_stringIcNS2_20StringStorageDefaultIcEEEEEENS_11__wrap_iterIPS6_EEEEvT0_SC_T_NS_15iterator_traitsISC_E15difference_typeEPNSF_10value_typeE
2818:__ZNSt3__219__merge_move_assignIRNS_4lessIN4core12basic_stringIcNS2_20StringStorageDefaultIcEEEEEEPS6_S9_NS_11__wrap_iterIS9_EEEEvT0_SC_T1_SD_T2_T_
2819:__ZNSt3__215__inplace_mergeIRNS_4lessIN4core12basic_stringIcNS2_20StringStorageDefaultIcEEEEEENS_11__wrap_iterIPS6_EEEEvT0_SC_SC_T_NS_15iterator_traitsISC_E15difference_typeESG_PNSF_10value_typeEl
2820:__ZNSt3__224__buffered_inplace_mergeIRNS_4lessIN4core12basic_stringIcNS2_20StringStorageDefaultIcEEEEEENS_11__wrap_iterIPS6_EEEEvT0_SC_SC_T_NS_15iterator_traitsISC_E15difference_typeESG_PNSF_10value_typeE
2821:__ZNSt3__216__rotate_forwardINS_11__wrap_iterIPN4core12basic_stringIcNS2_20StringStorageDefaultIcEEEEEEEET_S9_S9_S9_
2822:__ZNSt3__221__insertion_sort_moveIRNS_4lessIN4core12basic_stringIcNS2_20StringStorageDefaultIcEEEEEENS_11__wrap_iterIPS6_EEEEvT0_SC_PNS_15iterator_traitsISC_E10value_typeET_
2823:__ZNSt3__222__merge_move_constructIRNS_4lessIN4core12basic_stringIcNS2_20StringStorageDefaultIcEEEEEENS_11__wrap_iterIPS6_EESB_EEvT0_SC_T1_SD_PNS_15iterator_traitsISC_E10value_typeET_
2824:__ZN18SpriteAtlasManagerD2Ev
2825:__ZN18SpriteAtlasManagerD0Ev
2826:__Z29InitializeSortingGroupManagerPv
2827:__Z26CleanupSortingGroupManagerPv
2828:__ZZ29InitializeSortingGroupManagerPvEN44PostLateUpdateSortingGroupsUpdateRegistrator7ForwardEv
2829:__ZN19SortingGroupManager6UpdateEv
2830:__ZNK9Transform11GetPositionEv
2831:__ZN19SpriteRendererGroup16StaticInitializeEPv
2832:__ZL29PrepareSpriteGroupRenderNodesILb0EEvR35RenderNodeQueuePrepareThreadContext
2833:__ZL29PrepareSpriteGroupRenderNodesILb1EEvR35RenderNodeQueuePrepareThreadContext
2834:__ZL46PrepareRenderNodeQueueExtractionCullingContextR29RenderNodeQueuePrepareContext
2835:__ZL10DrawSpriteRK15RenderNodeQueuej16VertexInputMasksi
2836:__ZN26SpriteIntermediateRenderer15CleanupCallbackER15RenderNodeQueuej
2837:__ZN26SpriteIntermediateRenderer20PrepareSpriteBatchedERK15RenderNodeQueueRK18RenderMultipleData16VertexInputMasks
2838:__ZN8DrawUtil26ApplySharedNodeCustomPropsER9GfxDeviceRK10RenderNodei
2839:__ZN19ShaderPropertySheet20ReservePropertyCountEm
2840:__ZL17DrawSpriteBatchedRK15RenderNodeQueuePK17BatchInstanceDatammm16VertexInputMasks
2841:__Z29CalculateDefaultChannelsToAdd17ShaderChannelMaskS_
2842:__Z40BuildSingleStreamChannelInfoWithDefaultsR18VertexChannelsInfoRK22VertexAttributeFormats17ShaderChannelMaskS4_S4_
2843:__ZN9GfxDevice13GetDynamicVBOEv
2844:__Z20GetSpriteDeviceColorRK10ColorRGBAf
2845:__Z16TransformIndicesPtPKvmmmmb
2846:__Z17TransformVerticesPhRK10Matrix4x4fPKhmm26GfxTransformVerticesParams25GfxTransformVerticesFlagsjS4_
2847:__Z27TransformVerticesStridedREFPhRK10Matrix4x4fjPKhiS4_ii25GfxTransformVerticesFlagsj
2848:__ZN10Matrix3x3f15InvertTransposeEv
2849:__Z26TransformVerticesInnerLoopILb0ELb0ELb0EEvPhRK10Matrix4x4fRK10Matrix3x3fbjPKhiS8_ii25GfxTransformVerticesFlagsj
2850:__Z26TransformVerticesInnerLoopILb1ELb0ELb0EEvPhRK10Matrix4x4fRK10Matrix3x3fbjPKhiS8_ii25GfxTransformVerticesFlagsj
2851:__Z26TransformVerticesInnerLoopILb0ELb1ELb0EEvPhRK10Matrix4x4fRK10Matrix3x3fbjPKhiS8_ii25GfxTransformVerticesFlagsj
2852:__Z26TransformVerticesInnerLoopILb1ELb1ELb0EEvPhRK10Matrix4x4fRK10Matrix3x3fbjPKhiS8_ii25GfxTransformVerticesFlagsj
2853:__Z26TransformVerticesInnerLoopILb0ELb0ELb1EEvPhRK10Matrix4x4fRK10Matrix3x3fbjPKhiS8_ii25GfxTransformVerticesFlagsj
2854:__Z26TransformVerticesInnerLoopILb1ELb0ELb1EEvPhRK10Matrix4x4fRK10Matrix3x3fbjPKhiS8_ii25GfxTransformVerticesFlagsj
2855:__Z26TransformVerticesInnerLoopILb0ELb1ELb1EEvPhRK10Matrix4x4fRK10Matrix3x3fbjPKhiS8_ii25GfxTransformVerticesFlagsj
2856:__Z26TransformVerticesInnerLoopILb1ELb1ELb1EEvPhRK10Matrix4x4fRK10Matrix3x3fbjPKhiS8_ii25GfxTransformVerticesFlagsj
2857:__ZN10Matrix4x4f5ScaleERK8Vector3f
2858:__Z20InvertMatrix4x4_FullPKfPf
2859:__ZN10Matrix4x4fC2ERK10Matrix3x3f
2860:__ZN10Matrix3x3fC2ERK10Matrix4x4f
2861:__ZN10DynamicVBOC2ER9GfxDevice
2862:__ZN10DynamicVBOD2Ev
2863:__ZN10DynamicVBOD0Ev
2864:__ZN10DynamicVBO8GetChunkEjjjj16GfxPrimitiveTypeP16DynamicVBOMemory
2865:__ZN10DynamicVBO12ReleaseChunkEjj
2866:__ZN10DynamicVBO9DrawChunkEP17VertexDeclaration
2867:__ZN10DynamicVBO20CleanupBufferManagerEv
2868:__ZN23DynamicVBOBufferManager23CleanupPerThreadBuffersER9GfxDevice
2869:__ZN10DynamicVBO19FillQuadIndexBufferEv
2870:__ZN13RuntimeStaticI15GUIEventManagerLb0EE16StaticInitializeEPv
2871:__ZN13RuntimeStaticI15GUIEventManagerLb0EE13StaticDestroyEPv
2872:__ZN13RuntimeStaticI22VirtualJoystickManagerLb0EE16StaticInitializeEPv
2873:__ZN13RuntimeStaticI22VirtualJoystickManagerLb0EE13StaticDestroyEPv
2874:__ZN13RuntimeStaticI22VirtualJoystickManagerLb0EE7DestroyEv
2875:__ZN24StaticInitializeInternal13ConstructTypeI22VirtualJoystickManagerLb0EEEPvS2_10MemLabelId
2876:__ZN13RuntimeStaticI15GUIEventManagerLb0EE7DestroyEv
2877:__ZNSt3__212__deque_baseI10InputEventNS_9allocatorIS1_EEE5clearEv
2878:__ZN10InputEventD2Ev
2879:__ZN24StaticInitializeInternal13ConstructTypeI15GUIEventManagerLb0EEEPvS2_10MemLabelId
2880:__ZN13RuntimeStaticINSt3__23mapI9TextureID21SparseTextureInfoGLESNS0_4lessIS2_EENS0_9allocatorINS0_4pairIKS2_S3_EEEEEELb0EE16StaticInitializeEPv
2881:__ZN13RuntimeStaticINSt3__23mapI9TextureID21SparseTextureInfoGLESNS0_4lessIS2_EENS0_9allocatorINS0_4pairIKS2_S3_EEEEEELb0EE13StaticDestroyEPv
2882:__ZNSt3__26__treeINS_12__value_typeI9TextureID21SparseTextureInfoGLESEENS_19__map_value_compareIS2_S4_NS_4lessIS2_EELb1EEENS_9allocatorIS4_EEE7destroyEPNS_11__tree_nodeIS4_PvEE
2883:__ZN9Scripting5Unity11CollectionsL50__ManagedRegistrationHelperFunction_AllocatorProxyEPv
2884:__ZN9Scripting5Unity11CollectionsL75__ManagedRegistrationHelperFunction_DeallocateOnJobCompletionAttributeProxyEPv
2885:__ZN9Scripting5Unity11Collections8LowLevel6UnsafeL65__ManagedRegistrationHelperFunction_NativeContainerAttributeProxyEPv
2886:__ZN9Scripting5Unity11Collections8LowLevel6UnsafeL82__ManagedRegistrationHelperFunction_NativeContainerIsAtomicWriteOnlyAttributeProxyEPv
2887:__ZN9Scripting5Unity11Collections8LowLevel6UnsafeL75__ManagedRegistrationHelperFunction_NativeContainerIsReadOnlyAttributeProxyEPv
2888:__ZN9Scripting5Unity11Collections8LowLevel6UnsafeL81__ManagedRegistrationHelperFunction_NativeContainerNeedsThreadIndexAttributeProxyEPv
2889:__ZN9Scripting5Unity11Collections8LowLevel6UnsafeL98__ManagedRegistrationHelperFunction_NativeContainerSupportsDeallocateOnJobCompletionAttributeProxyEPv
2890:__ZN9Scripting5Unity11Collections8LowLevel6UnsafeL90__ManagedRegistrationHelperFunction_NativeContainerSupportsDeferredConvertListToArrayProxyEPv
2891:__ZN9Scripting5Unity11Collections8LowLevel6UnsafeL95__ManagedRegistrationHelperFunction_NativeContainerSupportsMinMaxWriteRestrictionAttributeProxyEPv
2892:__ZN9Scripting5Unity11Collections8LowLevel6UnsafeL89__ManagedRegistrationHelperFunction_NativeDisableContainerSafetyRestrictionAttributeProxyEPv
2893:__ZN9Scripting5Unity11Collections8LowLevel6UnsafeL83__ManagedRegistrationHelperFunction_NativeDisableUnsafePtrRestrictionAttributeProxyEPv
2894:__ZN9Scripting5Unity11Collections8LowLevel6UnsafeL84__ManagedRegistrationHelperFunction_NativeSetClassTypeToNullOnScheduleAttributeProxyEPv
2895:__ZN9Scripting5Unity11Collections8LowLevel6UnsafeL70__ManagedRegistrationHelperFunction_NativeSetThreadIndexAttributeProxyEPv
2896:__ZN9Scripting5Unity11CollectionsL85__ManagedRegistrationHelperFunction_NativeDisableParallelForRestrictionAttributeProxyEPv
2897:__ZN9Scripting5Unity11CollectionsL67__ManagedRegistrationHelperFunction_NativeFixedLengthAttributeProxyEPv
2898:__ZN9Scripting5Unity11CollectionsL80__ManagedRegistrationHelperFunction_NativeMatchesParallelForLengthAttributeProxyEPv
2899:__ZN9Scripting5Unity11CollectionsL58__ManagedRegistrationHelperFunction_ReadOnlyAttributeProxyEPv
2900:__ZN9Scripting5Unity11CollectionsL59__ManagedRegistrationHelperFunction_WriteOnlyAttributeProxyEPv
2901:__ZN9Scripting5Unity9ProfilingL55__ManagedRegistrationHelperFunction_ProfilerMarkerProxyEPv
2902:__ZN9Scripting5Unity9Profiling14ProfilerMarkerL50__ManagedRegistrationHelperFunction_AutoScopeProxyEPv
2903:__ZN9Scripting11UnityEngine10_Scripting11APIUpdatingL65__ManagedRegistrationHelperFunction_APIUpdaterRuntimeHelpersProxyEPv
2904:__ZN9Scripting11UnityEngine7AndroidL51__ManagedRegistrationHelperFunction_PermissionProxyEPv
2905:__ZN9Scripting11UnityEngineL55__ManagedRegistrationHelperFunction_AnimationCurveProxyEPv
2906:__ZN9Scripting11UnityEngineL52__ManagedRegistrationHelperFunction_ApplicationProxyEPv
2907:__ZN9Scripting11UnityEngineL65__ManagedRegistrationHelperFunction_AssemblyIsEditorAssemblyProxyEPv
2908:__ZN9Scripting11UnityEngineL57__ManagedRegistrationHelperFunction_YieldInstructionProxyEPv
2909:__ZN9Scripting11UnityEngineL55__ManagedRegistrationHelperFunction_AsyncOperationProxyEPv
2910:__ZN9Scripting11UnityEngineL62__ManagedRegistrationHelperFunction_AttributeHelperEngineProxyEPv
2911:__ZN9Scripting11UnityEngineL47__ManagedRegistrationHelperFunction_ObjectProxyEPv
2912:__ZN9Scripting11UnityEngineL50__ManagedRegistrationHelperFunction_ComponentProxyEPv
2913:__ZN9Scripting11UnityEngineL50__ManagedRegistrationHelperFunction_BehaviourProxyEPv
2914:__ZN9Scripting11UnityEngineL51__ManagedRegistrationHelperFunction_BoneWeightProxyEPv
2915:__ZN9Scripting11UnityEngineL52__ManagedRegistrationHelperFunction_BoneWeight1ProxyEPv
2916:__ZN9Scripting11UnityEngineL55__ManagedRegistrationHelperFunction_BootConfigDataProxyEPv
2917:__ZN9Scripting11UnityEngineL48__ManagedRegistrationHelperFunction_Vector3ProxyEPv
2918:__ZN9Scripting11UnityEngineL47__ManagedRegistrationHelperFunction_BoundsProxyEPv
2919:__ZN9Scripting11UnityEngineL50__ManagedRegistrationHelperFunction_BoundsIntProxyEPv
2920:__ZN9Scripting11UnityEngineL58__ManagedRegistrationHelperFunction_CachedAssetBundleProxyEPv
2921:__ZN9Scripting11UnityEngineL51__ManagedRegistrationHelperFunction_CacheIndexProxyEPv
2922:__ZN9Scripting11UnityEngineL47__ManagedRegistrationHelperFunction_CameraProxyEPv
2923:__ZN9Scripting11UnityEngineL64__ManagedRegistrationHelperFunction_ClassLibraryInitializerProxyEPv
2924:__ZN9Scripting11UnityEngineL46__ManagedRegistrationHelperFunction_ColorProxyEPv
2925:__ZN9Scripting11UnityEngineL48__ManagedRegistrationHelperFunction_Color32ProxyEPv
2926:__ZN9Scripting11UnityEngineL51__ManagedRegistrationHelperFunction_ColorGamutProxyEPv
2927:__ZN9Scripting11UnityEngineL54__ManagedRegistrationHelperFunction_ComputeBufferProxyEPv
2928:__ZN9Scripting11UnityEngineL54__ManagedRegistrationHelperFunction_ComputeShaderProxyEPv
2929:__ZN9Scripting11UnityEngineL52__ManagedRegistrationHelperFunction_ContextMenuProxyEPv
2930:__ZN9Scripting11UnityEngineL50__ManagedRegistrationHelperFunction_CoroutineProxyEPv
2931:__ZN9Scripting11UnityEngineL48__ManagedRegistrationHelperFunction_TextureProxyEPv
2932:__ZN9Scripting11UnityEngineL48__ManagedRegistrationHelperFunction_CubemapProxyEPv
2933:__ZN9Scripting11UnityEngineL53__ManagedRegistrationHelperFunction_CubemapArrayProxyEPv
2934:__ZN9Scripting11UnityEngineL53__ManagedRegistrationHelperFunction_CullingGroupProxyEPv
2935:__ZN9Scripting11UnityEngineL54__ManagedRegistrationHelperFunction_RenderTextureProxyEPv
2936:__ZN9Scripting11UnityEngineL60__ManagedRegistrationHelperFunction_CustomRenderTextureProxyEPv
2937:__ZN9Scripting11UnityEngineL70__ManagedRegistrationHelperFunction_CustomRenderTextureUpdateZoneProxyEPv
2938:__ZN9Scripting11UnityEngineL46__ManagedRegistrationHelperFunction_DebugProxyEPv
2939:__ZN9Scripting11UnityEngineL62__ManagedRegistrationHelperFunction_DefaultExecutionOrderProxyEPv
2940:__ZN9Scripting11UnityEngineL57__ManagedRegistrationHelperFunction_DiagnosticSwitchProxyEPv
2941:__ZN9Scripting11UnityEngineL66__ManagedRegistrationHelperFunction_DisallowMultipleComponentProxyEPv
2942:__ZN9Scripting11UnityEngineL48__ManagedRegistrationHelperFunction_DisplayProxyEPv
2943:__ZN9Scripting11UnityEngineL49__ManagedRegistrationHelperFunction_EnumInfoProxyEPv
2944:__ZN9Scripting11UnityEngine6EventsL55__ManagedRegistrationHelperFunction_UnityEventBaseProxyEPv
2945:__ZN9Scripting11UnityEngine6EventsL51__ManagedRegistrationHelperFunction_UnityEventProxyEPv
2946:__ZN9Scripting11UnityEngine6EventsL53__ManagedRegistrationHelperFunction_UnityEvent_1ProxyEPv
2947:__ZN9Scripting11UnityEngine6EventsL53__ManagedRegistrationHelperFunction_UnityEvent_2ProxyEPv
2948:__ZN9Scripting11UnityEngine6EventsL53__ManagedRegistrationHelperFunction_UnityEvent_3ProxyEPv
2949:__ZN9Scripting11UnityEngine6EventsL53__ManagedRegistrationHelperFunction_UnityEvent_4ProxyEPv
2950:__ZN9Scripting11UnityEngineL74__ManagedRegistrationHelperFunction_ExcludeFromObjectFactoryAttributeProxyEPv
2951:__ZN9Scripting11UnityEngineL67__ManagedRegistrationHelperFunction_ExcludeFromPresetAttributeProxyEPv
2952:__ZN9Scripting11UnityEngineL54__ManagedRegistrationHelperFunction_ExecuteAlwaysProxyEPv
2953:__ZN9Scripting11UnityEngineL58__ManagedRegistrationHelperFunction_ExecuteInEditModeProxyEPv
2954:__ZN9Scripting11UnityEngine12Experimental18GlobalIlluminationL52__ManagedRegistrationHelperFunction_LightDataGIProxyEPv
2955:__ZN9Scripting11UnityEngine12Experimental18GlobalIlluminationL53__ManagedRegistrationHelperFunction_LightmappingProxyEPv
2956:__ZN9Scripting11UnityEngine12Experimental9PlayablesL55__ManagedRegistrationHelperFunction_CameraPlayableProxyEPv
2957:__ZN9Scripting11UnityEngine12Experimental9PlayablesL63__ManagedRegistrationHelperFunction_MaterialEffectPlayableProxyEPv
2958:__ZN9Scripting11UnityEngine12Experimental9PlayablesL61__ManagedRegistrationHelperFunction_TextureMixerPlayableProxyEPv
2959:__ZN9Scripting11UnityEngine12Experimental9PlayablesL62__ManagedRegistrationHelperFunction_TexturePlayableOutputProxyEPv
2960:__ZN9Scripting11UnityEngine12Experimental9RenderingL71__ManagedRegistrationHelperFunction_BuiltinRuntimeReflectionSystemProxyEPv
2961:__ZN9Scripting11UnityEngine12Experimental9RenderingL72__ManagedRegistrationHelperFunction_RayTracingAccelerationStructureProxyEPv
2962:__ZN9Scripting11UnityEngine12Experimental9RenderingL82__ManagedRegistrationHelperFunction_ScriptableRuntimeReflectionSystemSettingsProxyEPv
2963:__ZN9Scripting11UnityEngine12Experimental9RenderingL81__ManagedRegistrationHelperFunction_ScriptableRuntimeReflectionSystemWrapperProxyEPv
2964:__ZN9Scripting11UnityEngine12Experimental3U2DL71__ManagedRegistrationHelperFunction_SpriteIntermediateRendererInfoProxyEPv
2965:__ZN9Scripting11UnityEngine12Experimental3U2DL60__ManagedRegistrationHelperFunction_SpriteRendererGroupProxyEPv
2966:__ZN9Scripting11UnityEngineL59__ManagedRegistrationHelperFunction_ExposedReference_1ProxyEPv
2967:__ZN9Scripting11UnityEngineL72__ManagedRegistrationHelperFunction_ExtensionOfNativeClassAttributeProxyEPv
2968:__ZN9Scripting11UnityEngineL65__ManagedRegistrationHelperFunction_FailedToLoadScriptObjectProxyEPv
2969:__ZN9Scripting11UnityEngineL51__ManagedRegistrationHelperFunction_GameObjectProxyEPv
2970:__ZN9Scripting11UnityEngineL49__ManagedRegistrationHelperFunction_GradientProxyEPv
2971:__ZN9Scripting11UnityEngineL57__ManagedRegistrationHelperFunction_GradientAlphaKeyProxyEPv
2972:__ZN9Scripting11UnityEngineL57__ManagedRegistrationHelperFunction_GradientColorKeyProxyEPv
2973:__ZN9Scripting11UnityEngineL55__ManagedRegistrationHelperFunction_GraphicsBufferProxyEPv
2974:__ZN9Scripting11UnityEngineL48__ManagedRegistrationHelperFunction_Hash128ProxyEPv
2975:__ZN9Scripting11UnityEngineL57__ManagedRegistrationHelperFunction_HelpURLAttributeProxyEPv
2976:__ZN9Scripting11UnityEngineL56__ManagedRegistrationHelperFunction_HideInInspectorProxyEPv
2977:__ZN9Scripting11UnityEngineL62__ManagedRegistrationHelperFunction_ImageEffectAfterScaleProxyEPv
2978:__ZN9Scripting11UnityEngineL58__ManagedRegistrationHelperFunction_ImageEffectOpaqueProxyEPv
2979:__ZN9Scripting11UnityEngineL67__ManagedRegistrationHelperFunction_ImageEffectTransformsToLDRProxyEPv
2980:__ZN9Scripting11UnityEngineL69__ManagedRegistrationHelperFunction_ImageEffectUsesCommandBufferProxyEPv
2981:__ZN9Scripting11UnityEngineL49__ManagedRegistrationHelperFunction_KeyframeProxyEPv
2982:__ZN9Scripting11UnityEngineL50__ManagedRegistrationHelperFunction_LayerMaskProxyEPv
2983:__ZN9Scripting11UnityEngineL53__ManagedRegistrationHelperFunction_LightmapDataProxyEPv
2984:__ZN9Scripting11UnityEngineL44__ManagedRegistrationHelperFunction_LODProxyEPv
2985:__ZN9Scripting11UnityEngineL60__ManagedRegistrationHelperFunction_LowerResBlitTextureProxyEPv
2986:__ZN9Scripting11UnityEngine8LowLevelL65__ManagedRegistrationHelperFunction_PlayerLoopSystemInternalProxyEPv
2987:__ZN9Scripting11UnityEngineL61__ManagedRegistrationHelperFunction_ManagedStreamHelpersProxyEPv
2988:__ZN9Scripting11UnityEngineL49__ManagedRegistrationHelperFunction_MaterialProxyEPv
2989:__ZN9Scripting11UnityEngineL50__ManagedRegistrationHelperFunction_Matrix4x4ProxyEPv
2990:__ZN9Scripting11UnityEngineL45__ManagedRegistrationHelperFunction_MeshProxyEPv
2991:__ZN9Scripting11UnityEngineL51__ManagedRegistrationHelperFunction_MeshFilterProxyEPv
2992:__ZN9Scripting11UnityEngineL49__ManagedRegistrationHelperFunction_RendererProxyEPv
2993:__ZN9Scripting11UnityEngineL53__ManagedRegistrationHelperFunction_MeshRendererProxyEPv
2994:__ZN9Scripting11UnityEngineL54__ManagedRegistrationHelperFunction_MonoBehaviourProxyEPv
2995:__ZN9Scripting11UnityEngineL57__ManagedRegistrationHelperFunction_ScriptableObjectProxyEPv
2996:__ZN9Scripting11UnityEngine10Networking16PlayerConnectionL57__ManagedRegistrationHelperFunction_PlayerConnectionProxyEPv
2997:__ZN9Scripting11UnityEngineL46__ManagedRegistrationHelperFunction_PlaneProxyEPv
2998:__ZN9Scripting11UnityEngine9PlayablesL49__ManagedRegistrationHelperFunction_PlayableProxyEPv
2999:__ZN9Scripting11UnityEngine9PlayablesL54__ManagedRegistrationHelperFunction_PlayableAssetProxyEPv
3000:__ZN9Scripting11UnityEngine9PlayablesL58__ManagedRegistrationHelperFunction_PlayableBehaviourProxyEPv
3001:__ZN9Scripting11UnityEngine9PlayablesL54__ManagedRegistrationHelperFunction_PlayableGraphProxyEPv
3002:__ZN9Scripting11UnityEngine9PlayablesL55__ManagedRegistrationHelperFunction_PlayableHandleProxyEPv
3003:__ZN9Scripting11UnityEngine9PlayablesL55__ManagedRegistrationHelperFunction_PlayableOutputProxyEPv
3004:__ZN9Scripting11UnityEngine9PlayablesL61__ManagedRegistrationHelperFunction_PlayableOutputHandleProxyEPv
3005:__ZN9Scripting11UnityEngine9PlayablesL61__ManagedRegistrationHelperFunction_ScriptPlayableOutputProxyEPv
3006:__ZN9Scripting11UnityEngine10PlayerLoopL52__ManagedRegistrationHelperFunction_EarlyUpdateProxyEPv
3007:__ZN9Scripting11UnityEngine10PlayerLoop11EarlyUpdateL65__ManagedRegistrationHelperFunction_AnalyticsCoreStatsUpdateProxyEPv
3008:__ZN9Scripting11UnityEngine10PlayerLoop11EarlyUpdateL67__ManagedRegistrationHelperFunction_ClearIntermediateRenderersProxyEPv
3009:__ZN9Scripting11UnityEngine10PlayerLoop11EarlyUpdateL51__ManagedRegistrationHelperFunction_ClearLinesProxyEPv
3010:__ZN9Scripting11UnityEngine10PlayerLoop11EarlyUpdateL65__ManagedRegistrationHelperFunction_DeliverIosPlatformEventsProxyEPv
3011:__ZN9Scripting11UnityEngine10PlayerLoop11EarlyUpdateL65__ManagedRegistrationHelperFunction_DispatchEventQueueEventsProxyEPv
3012:__ZN9Scripting11UnityEngine10PlayerLoop11EarlyUpdateL62__ManagedRegistrationHelperFunction_ExecuteMainThreadJobsProxyEPv
3013:__ZN9Scripting11UnityEngine10PlayerLoop11EarlyUpdateL53__ManagedRegistrationHelperFunction_GpuTimestampProxyEPv
3014:__ZN9Scripting11UnityEngine10PlayerLoop11EarlyUpdateL67__ManagedRegistrationHelperFunction_PerformanceAnalyticsUpdateProxyEPv
3015:__ZN9Scripting11UnityEngine10PlayerLoop11EarlyUpdateL82__ManagedRegistrationHelperFunction_PhysicsResetInterpolatedTransformPositionProxyEPv
3016:__ZN9Scripting11UnityEngine10PlayerLoop11EarlyUpdateL64__ManagedRegistrationHelperFunction_PlayerCleanupCachedDataProxyEPv
3017:__ZN9Scripting11UnityEngine10PlayerLoop11EarlyUpdateL65__ManagedRegistrationHelperFunction_PollHtcsPlayerConnectionProxyEPv
3018:__ZN9Scripting11UnityEngine10PlayerLoop11EarlyUpdateL61__ManagedRegistrationHelperFunction_PollPlayerConnectionProxyEPv
3019:__ZN9Scripting11UnityEngine10PlayerLoop11EarlyUpdateL60__ManagedRegistrationHelperFunction_PresentBeforeUpdateProxyEPv
3020:__ZN9Scripting11UnityEngine10PlayerLoop11EarlyUpdateL61__ManagedRegistrationHelperFunction_ProcessMouseInWindowProxyEPv
3021:__ZN9Scripting11UnityEngine10PlayerLoop11EarlyUpdateL59__ManagedRegistrationHelperFunction_ProcessRemoteInputProxyEPv
3022:__ZN9Scripting11UnityEngine10PlayerLoop11EarlyUpdateL59__ManagedRegistrationHelperFunction_ProfilerStartFrameProxyEPv
3023:__ZN9Scripting11UnityEngine10PlayerLoop11EarlyUpdateL64__ManagedRegistrationHelperFunction_RendererNotifyInvisibleProxyEPv
3024:__ZN9Scripting11UnityEngine10PlayerLoop11EarlyUpdateL68__ManagedRegistrationHelperFunction_ResetFrameStatsAfterPresentProxyEPv
3025:__ZN9Scripting11UnityEngine10PlayerLoop11EarlyUpdateL69__ManagedRegistrationHelperFunction_ScriptRunDelayedStartupFrameProxyEPv
3026:__ZN9Scripting11UnityEngine10PlayerLoop11EarlyUpdateL65__ManagedRegistrationHelperFunction_SpriteAtlasManagerUpdateProxyEPv
3027:__ZN9Scripting11UnityEngine10PlayerLoop11EarlyUpdateL52__ManagedRegistrationHelperFunction_TangoUpdateProxyEPv
3028:__ZN9Scripting11UnityEngine10PlayerLoop11EarlyUpdateL62__ManagedRegistrationHelperFunction_UnityWebRequestUpdateProxyEPv
3029:__ZN9Scripting11UnityEngine10PlayerLoop11EarlyUpdateL67__ManagedRegistrationHelperFunction_UpdateAsyncReadbackManagerProxyEPv
3030:__ZN9Scripting11UnityEngine10PlayerLoop11EarlyUpdateL66__ManagedRegistrationHelperFunction_UpdateCanvasRectTransformProxyEPv
3031:__ZN9Scripting11UnityEngine10PlayerLoop11EarlyUpdateL59__ManagedRegistrationHelperFunction_UpdateInputManagerProxyEPv
3032:__ZN9Scripting11UnityEngine10PlayerLoop11EarlyUpdateL53__ManagedRegistrationHelperFunction_UpdateKinectProxyEPv
3033:__ZN9Scripting11UnityEngine10PlayerLoop11EarlyUpdateL63__ManagedRegistrationHelperFunction_UpdateMainGameViewRectProxyEPv
3034:__ZN9Scripting11UnityEngine10PlayerLoop11EarlyUpdateL57__ManagedRegistrationHelperFunction_UpdatePreloadingProxyEPv
3035:__ZN9Scripting11UnityEngine10PlayerLoop11EarlyUpdateL63__ManagedRegistrationHelperFunction_UpdateStreamingManagerProxyEPv
3036:__ZN9Scripting11UnityEngine10PlayerLoop11EarlyUpdateL70__ManagedRegistrationHelperFunction_UpdateTextureStreamingManagerProxyEPv
3037:__ZN9Scripting11UnityEngine10PlayerLoop11EarlyUpdateL49__ManagedRegistrationHelperFunction_XRUpdateProxyEPv
3038:__ZN9Scripting11UnityEngine10PlayerLoopL52__ManagedRegistrationHelperFunction_FixedUpdateProxyEPv
3039:__ZN9Scripting11UnityEngine10PlayerLoop11FixedUpdateL57__ManagedRegistrationHelperFunction_AudioFixedUpdateProxyEPv
3040:__ZN9Scripting11UnityEngine10PlayerLoop11FixedUpdateL51__ManagedRegistrationHelperFunction_ClearLinesProxyEPv
3041:__ZN9Scripting11UnityEngine10PlayerLoop11FixedUpdateL64__ManagedRegistrationHelperFunction_DirectorFixedSampleTimeProxyEPv
3042:__ZN9Scripting11UnityEngine10PlayerLoop11FixedUpdateL60__ManagedRegistrationHelperFunction_DirectorFixedUpdateProxyEPv
3043:__ZN9Scripting11UnityEngine10PlayerLoop11FixedUpdateL71__ManagedRegistrationHelperFunction_DirectorFixedUpdatePostPhysicsProxyEPv
3044:__ZN9Scripting11UnityEngine10PlayerLoop11FixedUpdateL67__ManagedRegistrationHelperFunction_LegacyFixedAnimationUpdateProxyEPv
3045:__ZN9Scripting11UnityEngine10PlayerLoop11FixedUpdateL60__ManagedRegistrationHelperFunction_NewInputFixedUpdateProxyEPv
3046:__ZN9Scripting11UnityEngine10PlayerLoop11FixedUpdateL61__ManagedRegistrationHelperFunction_Physics2DFixedUpdateProxyEPv
3047:__ZN9Scripting11UnityEngine10PlayerLoop11FixedUpdateL59__ManagedRegistrationHelperFunction_PhysicsFixedUpdateProxyEPv
3048:__ZN9Scripting11UnityEngine10PlayerLoop11FixedUpdateL70__ManagedRegistrationHelperFunction_ScriptRunBehaviourFixedUpdateProxyEPv
3049:__ZN9Scripting11UnityEngine10PlayerLoop11FixedUpdateL71__ManagedRegistrationHelperFunction_ScriptRunDelayedFixedFrameRateProxyEPv
3050:__ZN9Scripting11UnityEngine10PlayerLoop11FixedUpdateL54__ManagedRegistrationHelperFunction_XRFixedUpdateProxyEPv
3051:__ZN9Scripting11UnityEngine10PlayerLoopL55__ManagedRegistrationHelperFunction_InitializationProxyEPv
3052:__ZN9Scripting11UnityEngine10PlayerLoop14InitializationL68__ManagedRegistrationHelperFunction_AsyncUploadTimeSlicedUpdateProxyEPv
3053:__ZN9Scripting11UnityEngine10PlayerLoop14InitializationL59__ManagedRegistrationHelperFunction_DirectorSampleTimeProxyEPv
3054:__ZN9Scripting11UnityEngine10PlayerLoop14InitializationL57__ManagedRegistrationHelperFunction_PlayerUpdateTimeProxyEPv
3055:__ZN9Scripting11UnityEngine10PlayerLoop14InitializationL58__ManagedRegistrationHelperFunction_SynchronizeInputsProxyEPv
3056:__ZN9Scripting11UnityEngine10PlayerLoop14InitializationL57__ManagedRegistrationHelperFunction_SynchronizeStateProxyEPv
3057:__ZN9Scripting11UnityEngine10PlayerLoop14InitializationL54__ManagedRegistrationHelperFunction_XREarlyUpdateProxyEPv
3058:__ZN9Scripting11UnityEngine10PlayerLoopL55__ManagedRegistrationHelperFunction_PostLateUpdateProxyEPv
3059:__ZN9Scripting11UnityEngine10PlayerLoop14PostLateUpdateL56__ManagedRegistrationHelperFunction_BatchModeUpdateProxyEPv
3060:__ZN9Scripting11UnityEngine10PlayerLoop14PostLateUpdateL64__ManagedRegistrationHelperFunction_ClearImmediateRenderersProxyEPv
3061:__ZN9Scripting11UnityEngine10PlayerLoop14PostLateUpdateL59__ManagedRegistrationHelperFunction_DirectorLateUpdateProxyEPv
3062:__ZN9Scripting11UnityEngine10PlayerLoop14PostLateUpdateL60__ManagedRegistrationHelperFunction_DirectorRenderImageProxyEPv
3063:__ZN9Scripting11UnityEngine10PlayerLoop14PostLateUpdateL77__ManagedRegistrationHelperFunction_EndGraphicsJobsAfterScriptLateUpdateProxyEPv
3064:__ZN9Scripting11UnityEngine10PlayerLoop14PostLateUpdateL63__ManagedRegistrationHelperFunction_EnlightenRuntimeUpdateProxyEPv
3065:__ZN9Scripting11UnityEngine10PlayerLoop14PostLateUpdateL67__ManagedRegistrationHelperFunction_ExecuteGameCenterCallbacksProxyEPv
3066:__ZN9Scripting11UnityEngine10PlayerLoop14PostLateUpdateL61__ManagedRegistrationHelperFunction_FinishFrameRenderingProxyEPv
3067:__ZN9Scripting11UnityEngine10PlayerLoop14PostLateUpdateL55__ManagedRegistrationHelperFunction_GUIClearEventsProxyEPv
3068:__ZN9Scripting11UnityEngine10PlayerLoop14PostLateUpdateL54__ManagedRegistrationHelperFunction_InputEndFrameProxyEPv
3069:__ZN9Scripting11UnityEngine10PlayerLoop14PostLateUpdateL63__ManagedRegistrationHelperFunction_MemoryFrameMaintenanceProxyEPv
3070:__ZN9Scripting11UnityEngine10PlayerLoop14PostLateUpdateL67__ManagedRegistrationHelperFunction_ParticleSystemEndUpdateAllProxyEPv
3071:__ZN9Scripting11UnityEngine10PlayerLoop14PostLateUpdateL71__ManagedRegistrationHelperFunction_PhysicsSkinnedClothBeginUpdateProxyEPv
3072:__ZN9Scripting11UnityEngine10PlayerLoop14PostLateUpdateL72__ManagedRegistrationHelperFunction_PhysicsSkinnedClothFinishUpdateProxyEPv
3073:__ZN9Scripting11UnityEngine10PlayerLoop14PostLateUpdateL65__ManagedRegistrationHelperFunction_PlayerEmitCanvasGeometryProxyEPv
3074:__ZN9Scripting11UnityEngine10PlayerLoop14PostLateUpdateL64__ManagedRegistrationHelperFunction_PlayerSendFrameCompleteProxyEPv
3075:__ZN9Scripting11UnityEngine10PlayerLoop14PostLateUpdateL67__ManagedRegistrationHelperFunction_PlayerSendFramePostPresentProxyEPv
3076:__ZN9Scripting11UnityEngine10PlayerLoop14PostLateUpdateL63__ManagedRegistrationHelperFunction_PlayerSendFrameStartedProxyEPv
3077:__ZN9Scripting11UnityEngine10PlayerLoop14PostLateUpdateL61__ManagedRegistrationHelperFunction_PlayerUpdateCanvasesProxyEPv
3078:__ZN9Scripting11UnityEngine10PlayerLoop14PostLateUpdateL57__ManagedRegistrationHelperFunction_PresentAfterDrawProxyEPv
3079:__ZN9Scripting11UnityEngine10PlayerLoop14PostLateUpdateL63__ManagedRegistrationHelperFunction_ProcessWebSendMessagesProxyEPv
3080:__ZN9Scripting11UnityEngine10PlayerLoop14PostLateUpdateL57__ManagedRegistrationHelperFunction_ProfilerEndFrameProxyEPv
3081:__ZN9Scripting11UnityEngine10PlayerLoop14PostLateUpdateL65__ManagedRegistrationHelperFunction_ProfilerSynchronizeStatsProxyEPv
3082:__ZN9Scripting11UnityEngine10PlayerLoop14PostLateUpdateL55__ManagedRegistrationHelperFunction_ResetInputAxisProxyEPv
3083:__ZN9Scripting11UnityEngine10PlayerLoop14PostLateUpdateL73__ManagedRegistrationHelperFunction_ScriptRunDelayedDynamicFrameRateProxyEPv
3084:__ZN9Scripting11UnityEngine10PlayerLoop14PostLateUpdateL59__ManagedRegistrationHelperFunction_ShaderHandleErrorsProxyEPv
3085:__ZN9Scripting11UnityEngine10PlayerLoop14PostLateUpdateL60__ManagedRegistrationHelperFunction_SortingGroupsUpdateProxyEPv
3086:__ZN9Scripting11UnityEngine10PlayerLoop14PostLateUpdateL61__ManagedRegistrationHelperFunction_ThreadedLoadingDebugProxyEPv
3087:__ZN9Scripting11UnityEngine10PlayerLoop14PostLateUpdateL67__ManagedRegistrationHelperFunction_TriggerEndOfFrameCallbacksProxyEPv
3088:__ZN9Scripting11UnityEngine10PlayerLoop14PostLateUpdateL59__ManagedRegistrationHelperFunction_UpdateAllRenderersProxyEPv
3089:__ZN9Scripting11UnityEngine10PlayerLoop14PostLateUpdateL63__ManagedRegistrationHelperFunction_UpdateAllSkinnedMeshesProxyEPv
3090:__ZN9Scripting11UnityEngine10PlayerLoop14PostLateUpdateL52__ManagedRegistrationHelperFunction_UpdateAudioProxyEPv
3091:__ZN9Scripting11UnityEngine10PlayerLoop14PostLateUpdateL66__ManagedRegistrationHelperFunction_UpdateCanvasRectTransformProxyEPv
3092:__ZN9Scripting11UnityEngine10PlayerLoop14PostLateUpdateL64__ManagedRegistrationHelperFunction_UpdateCaptureScreenshotProxyEPv
3093:__ZN9Scripting11UnityEngine10PlayerLoop14PostLateUpdateL67__ManagedRegistrationHelperFunction_UpdateCustomRenderTexturesProxyEPv
3094:__ZN9Scripting11UnityEngine10PlayerLoop14PostLateUpdateL60__ManagedRegistrationHelperFunction_UpdateRectTransformProxyEPv
3095:__ZN9Scripting11UnityEngine10PlayerLoop14PostLateUpdateL57__ManagedRegistrationHelperFunction_UpdateResolutionProxyEPv
3096:__ZN9Scripting11UnityEngine10PlayerLoop14PostLateUpdateL56__ManagedRegistrationHelperFunction_UpdateSubstanceProxyEPv
3097:__ZN9Scripting11UnityEngine10PlayerLoop14PostLateUpdateL52__ManagedRegistrationHelperFunction_UpdateVideoProxyEPv
3098:__ZN9Scripting11UnityEngine10PlayerLoop14PostLateUpdateL60__ManagedRegistrationHelperFunction_UpdateVideoTexturesProxyEPv
3099:__ZN9Scripting11UnityEngine10PlayerLoop14PostLateUpdateL50__ManagedRegistrationHelperFunction_VFXUpdateProxyEPv
3100:__ZN9Scripting11UnityEngine10PlayerLoop14PostLateUpdateL54__ManagedRegistrationHelperFunction_XRPostPresentProxyEPv
3101:__ZN9Scripting11UnityEngine10PlayerLoopL54__ManagedRegistrationHelperFunction_PreLateUpdateProxyEPv
3102:__ZN9Scripting11UnityEngine10PlayerLoop13PreLateUpdateL59__ManagedRegistrationHelperFunction_AIUpdatePostScriptProxyEPv
3103:__ZN9Scripting11UnityEngine10PlayerLoop13PreLateUpdateL64__ManagedRegistrationHelperFunction_ConstraintManagerUpdateProxyEPv
3104:__ZN9Scripting11UnityEngine10PlayerLoop13PreLateUpdateL65__ManagedRegistrationHelperFunction_DirectorDeferredEvaluateProxyEPv
3105:__ZN9Scripting11UnityEngine10PlayerLoop13PreLateUpdateL69__ManagedRegistrationHelperFunction_DirectorUpdateAnimationBeginProxyEPv
3106:__ZN9Scripting11UnityEngine10PlayerLoop13PreLateUpdateL67__ManagedRegistrationHelperFunction_DirectorUpdateAnimationEndProxyEPv
3107:__ZN9Scripting11UnityEngine10PlayerLoop13PreLateUpdateL73__ManagedRegistrationHelperFunction_EndGraphicsJobsAfterScriptUpdateProxyEPv
3108:__ZN9Scripting11UnityEngine10PlayerLoop13PreLateUpdateL62__ManagedRegistrationHelperFunction_LegacyAnimationUpdateProxyEPv
3109:__ZN9Scripting11UnityEngine10PlayerLoop13PreLateUpdateL69__ManagedRegistrationHelperFunction_ParticleSystemBeginUpdateAllProxyEPv
3110:__ZN9Scripting11UnityEngine10PlayerLoop13PreLateUpdateL69__ManagedRegistrationHelperFunction_ScriptRunBehaviourLateUpdateProxyEPv
3111:__ZN9Scripting11UnityEngine10PlayerLoop13PreLateUpdateL51__ManagedRegistrationHelperFunction_UNetUpdateProxyEPv
3112:__ZN9Scripting11UnityEngine10PlayerLoop13PreLateUpdateL68__ManagedRegistrationHelperFunction_UpdateMasterServerInterfaceProxyEPv
3113:__ZN9Scripting11UnityEngine10PlayerLoop13PreLateUpdateL61__ManagedRegistrationHelperFunction_UpdateNetworkManagerProxyEPv
3114:__ZN9Scripting11UnityEngine10PlayerLoopL50__ManagedRegistrationHelperFunction_PreUpdateProxyEPv
3115:__ZN9Scripting11UnityEngine10PlayerLoop9PreUpdateL49__ManagedRegistrationHelperFunction_AIUpdateProxyEPv
3116:__ZN9Scripting11UnityEngine10PlayerLoop9PreUpdateL59__ManagedRegistrationHelperFunction_CheckTexFieldInputProxyEPv
3117:__ZN9Scripting11UnityEngine10PlayerLoop9PreUpdateL62__ManagedRegistrationHelperFunction_IMGUISendQueuedEventsProxyEPv
3118:__ZN9Scripting11UnityEngine10PlayerLoop9PreUpdateL55__ManagedRegistrationHelperFunction_NewInputUpdateProxyEPv
3119:__ZN9Scripting11UnityEngine10PlayerLoop9PreUpdateL56__ManagedRegistrationHelperFunction_Physics2DUpdateProxyEPv
3120:__ZN9Scripting11UnityEngine10PlayerLoop9PreUpdateL54__ManagedRegistrationHelperFunction_PhysicsUpdateProxyEPv
3121:__ZN9Scripting11UnityEngine10PlayerLoop9PreUpdateL56__ManagedRegistrationHelperFunction_SendMouseEventsProxyEPv
3122:__ZN9Scripting11UnityEngine10PlayerLoop9PreUpdateL52__ManagedRegistrationHelperFunction_UpdateVideoProxyEPv
3123:__ZN9Scripting11UnityEngine10PlayerLoop9PreUpdateL51__ManagedRegistrationHelperFunction_WindUpdateProxyEPv
3124:__ZN9Scripting11UnityEngine10PlayerLoopL47__ManagedRegistrationHelperFunction_UpdateProxyEPv
3125:__ZN9Scripting11UnityEngine10PlayerLoop6UpdateL55__ManagedRegistrationHelperFunction_DirectorUpdateProxyEPv
3126:__ZN9Scripting11UnityEngine10PlayerLoop6UpdateL65__ManagedRegistrationHelperFunction_ScriptRunBehaviourUpdateProxyEPv
3127:__ZN9Scripting11UnityEngine10PlayerLoop6UpdateL73__ManagedRegistrationHelperFunction_ScriptRunDelayedDynamicFrameRateProxyEPv
3128:__ZN9Scripting11UnityEngine10PlayerLoop6UpdateL62__ManagedRegistrationHelperFunction_ScriptRunDelayedTasksProxyEPv
3129:__ZN9Scripting11UnityEngineL66__ManagedRegistrationHelperFunction_PreferBinarySerializationProxyEPv
3130:__ZN9Scripting11UnityEngineL52__ManagedRegistrationHelperFunction_PreloadDataProxyEPv
3131:__ZN9Scripting11UnityEngine9ProfilingL48__ManagedRegistrationHelperFunction_SamplerProxyEPv
3132:__ZN9Scripting11UnityEngine9ProfilingL54__ManagedRegistrationHelperFunction_CustomSamplerProxyEPv
3133:__ZN9Scripting11UnityEngine9Profiling6Memory12ExperimentalL55__ManagedRegistrationHelperFunction_MemoryProfilerProxyEPv
3134:__ZN9Scripting11UnityEngine9ProfilingL49__ManagedRegistrationHelperFunction_ProfilerProxyEPv
3135:__ZN9Scripting11UnityEngine9ProfilingL49__ManagedRegistrationHelperFunction_RecorderProxyEPv
3136:__ZN9Scripting11UnityEngineL53__ManagedRegistrationHelperFunction_PropertyNameProxyEPv
3137:__ZN9Scripting11UnityEngineL51__ManagedRegistrationHelperFunction_QuaternionProxyEPv
3138:__ZN9Scripting11UnityEngineL45__ManagedRegistrationHelperFunction_RectProxyEPv
3139:__ZN9Scripting11UnityEngineL48__ManagedRegistrationHelperFunction_RectIntProxyEPv
3140:__ZN9Scripting11UnityEngineL51__ManagedRegistrationHelperFunction_RectOffsetProxyEPv
3141:__ZN9Scripting11UnityEngineL50__ManagedRegistrationHelperFunction_TransformProxyEPv
3142:__ZN9Scripting11UnityEngineL54__ManagedRegistrationHelperFunction_RectTransformProxyEPv
3143:__ZN9Scripting11UnityEngineL56__ManagedRegistrationHelperFunction_ReflectionProbeProxyEPv
3144:__ZN9Scripting11UnityEngine9RenderingL64__ManagedRegistrationHelperFunction_AsyncGPUReadbackRequestProxyEPv
3145:__ZN9Scripting11UnityEngine9RenderingL68__ManagedRegistrationHelperFunction_AsyncRequestNativeArrayDataProxyEPv
3146:__ZN9Scripting11UnityEngine9RenderingL60__ManagedRegistrationHelperFunction_BatchCullingContextProxyEPv
3147:__ZN9Scripting11UnityEngine9RenderingL67__ManagedRegistrationHelperFunction_BatchRendererCullingOutputProxyEPv
3148:__ZN9Scripting11UnityEngine9RenderingL59__ManagedRegistrationHelperFunction_BatchRendererGroupProxyEPv
3149:__ZN9Scripting11UnityEngine9RenderingL57__ManagedRegistrationHelperFunction_CameraPropertiesProxyEPv
3150:__ZN9Scripting11UnityEngine9RenderingL54__ManagedRegistrationHelperFunction_CommandBufferProxyEPv
3151:__ZN9Scripting11UnityEngine9RenderingL57__ManagedRegistrationHelperFunction_CoreCameraValuesProxyEPv
3152:__ZN9Scripting11UnityEngine9RenderingL59__ManagedRegistrationHelperFunction_GraphicsDeviceTypeProxyEPv
3153:__ZN9Scripting11UnityEngine9RenderingL54__ManagedRegistrationHelperFunction_GraphicsFenceProxyEPv
3154:__ZN9Scripting11UnityEngine9RenderingL58__ManagedRegistrationHelperFunction_OnDemandRenderingProxyEPv
3155:__ZN9Scripting11UnityEngine9RenderingL59__ManagedRegistrationHelperFunction_PlatformKeywordSetProxyEPv
3156:__ZN9Scripting11UnityEngine9RenderingL65__ManagedRegistrationHelperFunction_ReflectionProbeBlendInfoProxyEPv
3157:__ZN9Scripting11UnityEngine9RenderingL62__ManagedRegistrationHelperFunction_RenderPipelineManagerProxyEPv
3158:__ZN9Scripting11UnityEngine9RenderingL68__ManagedRegistrationHelperFunction_ScriptableCullingParametersProxyEPv
3159:__ZN9Scripting11UnityEngine9RenderingL54__ManagedRegistrationHelperFunction_ShaderKeywordProxyEPv
3160:__ZN9Scripting11UnityEngine9RenderingL57__ManagedRegistrationHelperFunction_ShaderKeywordSetProxyEPv
3161:__ZN9Scripting11UnityEngine9RenderingL58__ManagedRegistrationHelperFunction_ShaderKeywordTypeProxyEPv
3162:__ZN9Scripting11UnityEngine9RenderingL62__ManagedRegistrationHelperFunction_ShadowDrawingSettingsProxyEPv
3163:__ZN9Scripting11UnityEngine9RenderingL56__ManagedRegistrationHelperFunction_ShadowSplitDataProxyEPv
3164:__ZN9Scripting11UnityEngine9RenderingL61__ManagedRegistrationHelperFunction_SphericalHarmonicsL2ProxyEPv
3165:__ZN9Scripting11UnityEngine9RenderingL67__ManagedRegistrationHelperFunction_SupportedRenderingFeaturesProxyEPv
3166:__ZN9Scripting11UnityEngine9RenderingL66__ManagedRegistrationHelperFunction_VertexAttributeDescriptorProxyEPv
3167:__ZN9Scripting11UnityEngine9RenderingL53__ManagedRegistrationHelperFunction_VisibleLightProxyEPv
3168:__ZN9Scripting11UnityEngine9RenderingL63__ManagedRegistrationHelperFunction_VisibleReflectionProbeProxyEPv
3169:__ZN9Scripting11UnityEngineL57__ManagedRegistrationHelperFunction_RequireComponentProxyEPv
3170:__ZN9Scripting11UnityEngineL51__ManagedRegistrationHelperFunction_ResolutionProxyEPv
3171:__ZN9Scripting11UnityEngineL56__ManagedRegistrationHelperFunction_ResourceRequestProxyEPv
3172:__ZN9Scripting11UnityEngine9ScriptingL58__ManagedRegistrationHelperFunction_PreserveAttributeProxyEPv
3173:__ZN9Scripting11UnityEngineL79__ManagedRegistrationHelperFunction_RuntimeInitializeOnLoadMethodAttributeProxyEPv
3174:__ZN9Scripting11UnityEngine15SceneManagementL53__ManagedRegistrationHelperFunction_SceneManagerProxyEPv
3175:__ZN9Scripting11UnityEngineL57__ManagedRegistrationHelperFunction_ScriptingUtilityProxyEPv
3176:__ZN9Scripting11UnityEngine13SerializationL70__ManagedRegistrationHelperFunction_FormerlySerializedAsAttributeProxyEPv
3177:__ZN9Scripting11UnityEngineL55__ManagedRegistrationHelperFunction_SerializeFieldProxyEPv
3178:__ZN9Scripting11UnityEngineL66__ManagedRegistrationHelperFunction_SerializePrivateVariablesProxyEPv
3179:__ZN9Scripting11UnityEngineL59__ManagedRegistrationHelperFunction_SerializeReferenceProxyEPv
3180:__ZN9Scripting11UnityEngineL55__ManagedRegistrationHelperFunction_SetupCoroutineProxyEPv
3181:__ZN9Scripting11UnityEngineL47__ManagedRegistrationHelperFunction_SpriteProxyEPv
3182:__ZN9Scripting11UnityEngineL58__ManagedRegistrationHelperFunction_StackTraceUtilityProxyEPv
3183:__ZN9Scripting11UnityEngine9TestToolsL69__ManagedRegistrationHelperFunction_ExcludeFromCoverageAttributeProxyEPv
3184:__ZN9Scripting11UnityEngineL50__ManagedRegistrationHelperFunction_Texture2DProxyEPv
3185:__ZN9Scripting11UnityEngineL55__ManagedRegistrationHelperFunction_Texture2DArrayProxyEPv
3186:__ZN9Scripting11UnityEngineL50__ManagedRegistrationHelperFunction_Texture3DProxyEPv
3187:__ZN9Scripting11UnityEngineL57__ManagedRegistrationHelperFunction_TrackedReferenceProxyEPv
3188:__ZN9Scripting11UnityEngine3U2DL59__ManagedRegistrationHelperFunction_SpriteAtlasManagerProxyEPv
3189:__ZN9Scripting11UnityEngine3U2DL51__ManagedRegistrationHelperFunction_SpriteBoneProxyEPv
3190:__ZN9Scripting11UnityEngineL66__ManagedRegistrationHelperFunction_UnhandledExceptionHandlerProxyEPv
3191:__ZN9Scripting11UnityEngineL55__ManagedRegistrationHelperFunction_UnityExceptionProxyEPv
3192:__ZN9Scripting11UnityEngineL68__ManagedRegistrationHelperFunction_UnitySynchronizationContextProxyEPv
3193:__ZN9Scripting11UnityEngineL48__ManagedRegistrationHelperFunction_Vector2ProxyEPv
3194:__ZN9Scripting11UnityEngineL51__ManagedRegistrationHelperFunction_Vector2IntProxyEPv
3195:__ZN9Scripting11UnityEngineL51__ManagedRegistrationHelperFunction_Vector3IntProxyEPv
3196:__ZN9Scripting11UnityEngineL48__ManagedRegistrationHelperFunction_Vector4ProxyEPv
3197:__ZN9Scripting11UnityEngineL58__ManagedRegistrationHelperFunction_WaitForEndOfFrameProxyEPv
3198:__ZN9Scripting11UnityEngineL59__ManagedRegistrationHelperFunction_WaitForFixedUpdateProxyEPv
3199:__ZN9Scripting11UnityEngineL55__ManagedRegistrationHelperFunction_WaitForSecondsProxyEPv
3200:__ZN9Scripting11UnityEngine19WaitForSecondsProxy9InitProxyEv
3201:__ZN9Scripting11UnityEngine19WaitForSecondsProxy12CleanupProxyEv
3202:__ZN35ScriptingManagedObjectProxyRegistry13RegisterProxyEPKcPFvvES3_
3203:__Z19scripting_array_new17ScriptingClassPtrmm
3204:__ZN17ScriptingGCHandle13AcquireStrongE18ScriptingObjectPtr
3205:__ZN9Scripting11UnityEngine23WaitForFixedUpdateProxy9InitProxyEv
3206:__ZN9Scripting11UnityEngine23WaitForFixedUpdateProxy12CleanupProxyEv
3207:__ZN9Scripting11UnityEngine22WaitForEndOfFrameProxy9InitProxyEv
3208:__ZN9Scripting11UnityEngine22WaitForEndOfFrameProxy12CleanupProxyEv
3209:__ZN9Scripting11UnityEngine12Vector4Proxy9InitProxyEv
3210:__ZN9Scripting11UnityEngine12Vector4Proxy12CleanupProxyEv
3211:__ZN9Scripting11UnityEngine15Vector3IntProxy9InitProxyEv
3212:__ZN9Scripting11UnityEngine15Vector3IntProxy12CleanupProxyEv
3213:__ZN9Scripting11UnityEngine15Vector2IntProxy9InitProxyEv
3214:__ZN9Scripting11UnityEngine15Vector2IntProxy12CleanupProxyEv
3215:__ZN9Scripting11UnityEngine12Vector2Proxy9InitProxyEv
3216:__ZN9Scripting11UnityEngine12Vector2Proxy12CleanupProxyEv
3217:__ZN9Scripting11UnityEngine32UnitySynchronizationContextProxy9InitProxyEv
3218:__ZN9Scripting11UnityEngine32UnitySynchronizationContextProxy12CleanupProxyEv
3219:__ZN9Scripting11UnityEngine19UnityExceptionProxy9InitProxyEv
3220:__ZN9Scripting11UnityEngine19UnityExceptionProxy12CleanupProxyEv
3221:__ZN9Scripting11UnityEngine30UnhandledExceptionHandlerProxy9InitProxyEv
3222:__ZN9Scripting11UnityEngine30UnhandledExceptionHandlerProxy12CleanupProxyEv
3223:__ZN9Scripting11UnityEngine3U2D15SpriteBoneProxy9InitProxyEv
3224:__ZN9Scripting11UnityEngine3U2D15SpriteBoneProxy12CleanupProxyEv
3225:__ZN9Scripting11UnityEngine3U2D23SpriteAtlasManagerProxy9InitProxyEv
3226:__ZN9Scripting11UnityEngine3U2D23SpriteAtlasManagerProxy12CleanupProxyEv
3227:__ZN9Scripting11UnityEngine21TrackedReferenceProxy9InitProxyEv
3228:__ZN9Scripting11UnityEngine21TrackedReferenceProxy12CleanupProxyEv
3229:__ZN9Scripting11UnityEngine14Texture3DProxy9InitProxyEv
3230:__ZN9Scripting11UnityEngine14Texture3DProxy12CleanupProxyEv
3231:__ZN9Scripting11UnityEngine19Texture2DArrayProxy9InitProxyEv
3232:__ZN9Scripting11UnityEngine19Texture2DArrayProxy12CleanupProxyEv
3233:__ZN9Scripting11UnityEngine14Texture2DProxy9InitProxyEv
3234:__ZN9Scripting11UnityEngine14Texture2DProxy12CleanupProxyEv
3235:__ZN9Scripting11UnityEngine9TestTools33ExcludeFromCoverageAttributeProxy9InitProxyEv
3236:__ZN9Scripting11UnityEngine9TestTools33ExcludeFromCoverageAttributeProxy12CleanupProxyEv
3237:__ZN9Scripting11UnityEngine22StackTraceUtilityProxy9InitProxyEv
3238:__ZN9Scripting11UnityEngine22StackTraceUtilityProxy12CleanupProxyEv
3239:__ZN9Scripting11UnityEngine11SpriteProxy9InitProxyEv
3240:__ZN9Scripting11UnityEngine11SpriteProxy12CleanupProxyEv
3241:__ZN9Scripting11UnityEngine19SetupCoroutineProxy9InitProxyEv
3242:__ZN9Scripting11UnityEngine19SetupCoroutineProxy12CleanupProxyEv
3243:__ZN9Scripting11UnityEngine23SerializeReferenceProxy9InitProxyEv
3244:__ZN9Scripting11UnityEngine23SerializeReferenceProxy12CleanupProxyEv
3245:__ZN9Scripting11UnityEngine30SerializePrivateVariablesProxy9InitProxyEv
3246:__ZN9Scripting11UnityEngine30SerializePrivateVariablesProxy12CleanupProxyEv
3247:__ZN9Scripting11UnityEngine19SerializeFieldProxy9InitProxyEv
3248:__ZN9Scripting11UnityEngine19SerializeFieldProxy12CleanupProxyEv
3249:__ZN9Scripting11UnityEngine13Serialization34FormerlySerializedAsAttributeProxy9InitProxyEv
3250:__ZN9Scripting11UnityEngine13Serialization34FormerlySerializedAsAttributeProxy12CleanupProxyEv
3251:__ZN9Scripting11UnityEngine21ScriptingUtilityProxy9InitProxyEv
3252:__ZN9Scripting11UnityEngine21ScriptingUtilityProxy12CleanupProxyEv
3253:__ZN9Scripting11UnityEngine15SceneManagement17SceneManagerProxy9InitProxyEv
3254:__ZN9Scripting11UnityEngine15SceneManagement17SceneManagerProxy12CleanupProxyEv
3255:__ZN9Scripting11UnityEngine43RuntimeInitializeOnLoadMethodAttributeProxy9InitProxyEv
3256:__ZN9Scripting11UnityEngine43RuntimeInitializeOnLoadMethodAttributeProxy12CleanupProxyEv
3257:__ZN9Scripting11UnityEngine9Scripting22PreserveAttributeProxy9InitProxyEv
3258:__ZN9Scripting11UnityEngine9Scripting22PreserveAttributeProxy12CleanupProxyEv
3259:__ZN9Scripting11UnityEngine20ResourceRequestProxy9InitProxyEv
3260:__ZN9Scripting11UnityEngine20ResourceRequestProxy12CleanupProxyEv
3261:__ZN9Scripting11UnityEngine15ResolutionProxy9InitProxyEv
3262:__ZN9Scripting11UnityEngine15ResolutionProxy12CleanupProxyEv
3263:__ZN9Scripting11UnityEngine21RequireComponentProxy9InitProxyEv
3264:__ZN9Scripting11UnityEngine21RequireComponentProxy12CleanupProxyEv
3265:__ZN9Scripting11UnityEngine9Rendering27VisibleReflectionProbeProxy9InitProxyEv
3266:__ZN9Scripting11UnityEngine9Rendering27VisibleReflectionProbeProxy12CleanupProxyEv
3267:__ZN9Scripting11UnityEngine9Rendering17VisibleLightProxy9InitProxyEv
3268:__ZN9Scripting11UnityEngine9Rendering17VisibleLightProxy12CleanupProxyEv
3269:__ZN9Scripting11UnityEngine9Rendering30VertexAttributeDescriptorProxy9InitProxyEv
3270:__ZN9Scripting11UnityEngine9Rendering30VertexAttributeDescriptorProxy12CleanupProxyEv
3271:__ZN9Scripting11UnityEngine9Rendering31SupportedRenderingFeaturesProxy9InitProxyEv
3272:__ZN9Scripting11UnityEngine9Rendering31SupportedRenderingFeaturesProxy12CleanupProxyEv
3273:__ZN9Scripting11UnityEngine9Rendering25SphericalHarmonicsL2Proxy9InitProxyEv
3274:__ZN9Scripting11UnityEngine9Rendering25SphericalHarmonicsL2Proxy12CleanupProxyEv
3275:__ZN9Scripting11UnityEngine9Rendering20ShadowSplitDataProxy9InitProxyEv
3276:__ZN9Scripting11UnityEngine9Rendering20ShadowSplitDataProxy12CleanupProxyEv
3277:__ZN9Scripting11UnityEngine9Rendering26ShadowDrawingSettingsProxy9InitProxyEv
3278:__ZN9Scripting11UnityEngine9Rendering26ShadowDrawingSettingsProxy12CleanupProxyEv
3279:__ZN9Scripting11UnityEngine9Rendering22ShaderKeywordTypeProxy9InitProxyEv
3280:__ZN9Scripting11UnityEngine9Rendering22ShaderKeywordTypeProxy12CleanupProxyEv
3281:__ZN9Scripting11UnityEngine9Rendering21ShaderKeywordSetProxy9InitProxyEv
3282:__ZN9Scripting11UnityEngine9Rendering21ShaderKeywordSetProxy12CleanupProxyEv
3283:__ZN9Scripting11UnityEngine9Rendering18ShaderKeywordProxy9InitProxyEv
3284:__ZN9Scripting11UnityEngine9Rendering18ShaderKeywordProxy12CleanupProxyEv
3285:__ZN9Scripting11UnityEngine9Rendering32ScriptableCullingParametersProxy9InitProxyEv
3286:__ZN9Scripting11UnityEngine9Rendering32ScriptableCullingParametersProxy12CleanupProxyEv
3287:__ZN9Scripting11UnityEngine9Rendering26RenderPipelineManagerProxy9InitProxyEv
3288:__ZN9Scripting11UnityEngine9Rendering26RenderPipelineManagerProxy12CleanupProxyEv
3289:__ZN9Scripting11UnityEngine9Rendering29ReflectionProbeBlendInfoProxy9InitProxyEv
3290:__ZN9Scripting11UnityEngine9Rendering29ReflectionProbeBlendInfoProxy12CleanupProxyEv
3291:__ZN9Scripting11UnityEngine9Rendering23PlatformKeywordSetProxy9InitProxyEv
3292:__ZN9Scripting11UnityEngine9Rendering23PlatformKeywordSetProxy12CleanupProxyEv
3293:__ZN9Scripting11UnityEngine9Rendering22OnDemandRenderingProxy9InitProxyEv
3294:__ZN9Scripting11UnityEngine9Rendering22OnDemandRenderingProxy12CleanupProxyEv
3295:__ZN9Scripting11UnityEngine9Rendering18GraphicsFenceProxy9InitProxyEv
3296:__ZN9Scripting11UnityEngine9Rendering18GraphicsFenceProxy12CleanupProxyEv
3297:__ZN9Scripting11UnityEngine9Rendering23GraphicsDeviceTypeProxy9InitProxyEv
3298:__ZN9Scripting11UnityEngine9Rendering23GraphicsDeviceTypeProxy12CleanupProxyEv
3299:__ZN9Scripting11UnityEngine9Rendering21CoreCameraValuesProxy9InitProxyEv
3300:__ZN9Scripting11UnityEngine9Rendering21CoreCameraValuesProxy12CleanupProxyEv
3301:__ZN9Scripting11UnityEngine9Rendering18CommandBufferProxy9InitProxyEv
3302:__ZN9Scripting11UnityEngine9Rendering18CommandBufferProxy12CleanupProxyEv
3303:__ZN9Scripting11UnityEngine9Rendering21CameraPropertiesProxy9InitProxyEv
3304:__ZN9Scripting11UnityEngine9Rendering21CameraPropertiesProxy12CleanupProxyEv
3305:__ZN9Scripting11UnityEngine9Rendering23BatchRendererGroupProxy9InitProxyEv
3306:__ZN9Scripting11UnityEngine9Rendering23BatchRendererGroupProxy12CleanupProxyEv
3307:__ZN9Scripting11UnityEngine9Rendering31BatchRendererCullingOutputProxy9InitProxyEv
3308:__ZN9Scripting11UnityEngine9Rendering31BatchRendererCullingOutputProxy12CleanupProxyEv
3309:__ZN9Scripting11UnityEngine9Rendering24BatchCullingContextProxy9InitProxyEv
3310:__ZN9Scripting11UnityEngine9Rendering24BatchCullingContextProxy12CleanupProxyEv
3311:__ZN9Scripting11UnityEngine9Rendering32AsyncRequestNativeArrayDataProxy9InitProxyEv
3312:__ZN9Scripting11UnityEngine9Rendering32AsyncRequestNativeArrayDataProxy12CleanupProxyEv
3313:__ZN9Scripting11UnityEngine9Rendering28AsyncGPUReadbackRequestProxy9InitProxyEv
3314:__ZN9Scripting11UnityEngine9Rendering28AsyncGPUReadbackRequestProxy12CleanupProxyEv
3315:__ZN9Scripting11UnityEngine20ReflectionProbeProxy9InitProxyEv
3316:__ZN9Scripting11UnityEngine20ReflectionProbeProxy12CleanupProxyEv
3317:__ZN9Scripting11UnityEngine18RectTransformProxy9InitProxyEv
3318:__ZN9Scripting11UnityEngine18RectTransformProxy12CleanupProxyEv
3319:__ZN9Scripting11UnityEngine14TransformProxy9InitProxyEv
3320:__ZN9Scripting11UnityEngine14TransformProxy12CleanupProxyEv
3321:__ZN9Scripting11UnityEngine15RectOffsetProxy9InitProxyEv
3322:__ZN9Scripting11UnityEngine15RectOffsetProxy12CleanupProxyEv
3323:__ZN9Scripting11UnityEngine12RectIntProxy9InitProxyEv
3324:__ZN9Scripting11UnityEngine12RectIntProxy12CleanupProxyEv
3325:__ZN9Scripting11UnityEngine9RectProxy9InitProxyEv
3326:__ZN9Scripting11UnityEngine9RectProxy12CleanupProxyEv
3327:__ZN9Scripting11UnityEngine15QuaternionProxy9InitProxyEv
3328:__ZN9Scripting11UnityEngine15QuaternionProxy12CleanupProxyEv
3329:__ZN9Scripting11UnityEngine17PropertyNameProxy9InitProxyEv
3330:__ZN9Scripting11UnityEngine17PropertyNameProxy12CleanupProxyEv
3331:__ZN9Scripting11UnityEngine9Profiling13RecorderProxy9InitProxyEv
3332:__ZN9Scripting11UnityEngine9Profiling13RecorderProxy12CleanupProxyEv
3333:__ZN9Scripting11UnityEngine9Profiling13ProfilerProxy9InitProxyEv
3334:__ZN9Scripting11UnityEngine9Profiling13ProfilerProxy12CleanupProxyEv
3335:__ZN9Scripting11UnityEngine9Profiling6Memory12Experimental19MemoryProfilerProxy9InitProxyEv
3336:__ZN9Scripting11UnityEngine9Profiling6Memory12Experimental19MemoryProfilerProxy12CleanupProxyEv
3337:__ZN9Scripting11UnityEngine9Profiling18CustomSamplerProxy9InitProxyEv
3338:__ZN9Scripting11UnityEngine9Profiling18CustomSamplerProxy12CleanupProxyEv
3339:__ZN9Scripting11UnityEngine9Profiling12SamplerProxy9InitProxyEv
3340:__ZN9Scripting11UnityEngine9Profiling12SamplerProxy12CleanupProxyEv
3341:__ZN9Scripting11UnityEngine16PreloadDataProxy9InitProxyEv
3342:__ZN9Scripting11UnityEngine16PreloadDataProxy12CleanupProxyEv
3343:__ZN9Scripting11UnityEngine30PreferBinarySerializationProxy9InitProxyEv
3344:__ZN9Scripting11UnityEngine30PreferBinarySerializationProxy12CleanupProxyEv
3345:__ZN9Scripting11UnityEngine10PlayerLoop6Update26ScriptRunDelayedTasksProxy9InitProxyEv
3346:__ZN9Scripting11UnityEngine10PlayerLoop6Update26ScriptRunDelayedTasksProxy12CleanupProxyEv
3347:__ZN9Scripting11UnityEngine10PlayerLoop6Update37ScriptRunDelayedDynamicFrameRateProxy9InitProxyEv
3348:__ZN9Scripting11UnityEngine10PlayerLoop6Update37ScriptRunDelayedDynamicFrameRateProxy12CleanupProxyEv
3349:__ZN9Scripting11UnityEngine10PlayerLoop6Update29ScriptRunBehaviourUpdateProxy9InitProxyEv
3350:__ZN9Scripting11UnityEngine10PlayerLoop6Update29ScriptRunBehaviourUpdateProxy12CleanupProxyEv
3351:__ZN9Scripting11UnityEngine10PlayerLoop6Update19DirectorUpdateProxy9InitProxyEv
3352:__ZN9Scripting11UnityEngine10PlayerLoop6Update19DirectorUpdateProxy12CleanupProxyEv
3353:__ZN9Scripting11UnityEngine10PlayerLoop11UpdateProxy9InitProxyEv
3354:__ZN9Scripting11UnityEngine10PlayerLoop11UpdateProxy12CleanupProxyEv
3355:__ZN9Scripting11UnityEngine10PlayerLoop9PreUpdate15WindUpdateProxy9InitProxyEv
3356:__ZN9Scripting11UnityEngine10PlayerLoop9PreUpdate15WindUpdateProxy12CleanupProxyEv
3357:__ZN9Scripting11UnityEngine10PlayerLoop9PreUpdate16UpdateVideoProxy9InitProxyEv
3358:__ZN9Scripting11UnityEngine10PlayerLoop9PreUpdate16UpdateVideoProxy12CleanupProxyEv
3359:__ZN9Scripting11UnityEngine10PlayerLoop9PreUpdate20SendMouseEventsProxy9InitProxyEv
3360:__ZN9Scripting11UnityEngine10PlayerLoop9PreUpdate20SendMouseEventsProxy12CleanupProxyEv
3361:__ZN9Scripting11UnityEngine10PlayerLoop9PreUpdate18PhysicsUpdateProxy9InitProxyEv
3362:__ZN9Scripting11UnityEngine10PlayerLoop9PreUpdate18PhysicsUpdateProxy12CleanupProxyEv
3363:__ZN9Scripting11UnityEngine10PlayerLoop9PreUpdate20Physics2DUpdateProxy9InitProxyEv
3364:__ZN9Scripting11UnityEngine10PlayerLoop9PreUpdate20Physics2DUpdateProxy12CleanupProxyEv
3365:__ZN9Scripting11UnityEngine10PlayerLoop9PreUpdate19NewInputUpdateProxy9InitProxyEv
3366:__ZN9Scripting11UnityEngine10PlayerLoop9PreUpdate19NewInputUpdateProxy12CleanupProxyEv
3367:__ZN9Scripting11UnityEngine10PlayerLoop9PreUpdate26IMGUISendQueuedEventsProxy9InitProxyEv
3368:__ZN9Scripting11UnityEngine10PlayerLoop9PreUpdate26IMGUISendQueuedEventsProxy12CleanupProxyEv
3369:__ZN9Scripting11UnityEngine10PlayerLoop9PreUpdate23CheckTexFieldInputProxy9InitProxyEv
3370:__ZN9Scripting11UnityEngine10PlayerLoop9PreUpdate23CheckTexFieldInputProxy12CleanupProxyEv
3371:__ZN9Scripting11UnityEngine10PlayerLoop9PreUpdate13AIUpdateProxy9InitProxyEv
3372:__ZN9Scripting11UnityEngine10PlayerLoop9PreUpdate13AIUpdateProxy12CleanupProxyEv
3373:__ZN9Scripting11UnityEngine10PlayerLoop14PreUpdateProxy9InitProxyEv
3374:__ZN9Scripting11UnityEngine10PlayerLoop14PreUpdateProxy12CleanupProxyEv
3375:__ZN9Scripting11UnityEngine10PlayerLoop13PreLateUpdate25UpdateNetworkManagerProxy9InitProxyEv
3376:__ZN9Scripting11UnityEngine10PlayerLoop13PreLateUpdate25UpdateNetworkManagerProxy12CleanupProxyEv
3377:__ZN9Scripting11UnityEngine10PlayerLoop13PreLateUpdate32UpdateMasterServerInterfaceProxy9InitProxyEv
3378:__ZN9Scripting11UnityEngine10PlayerLoop13PreLateUpdate32UpdateMasterServerInterfaceProxy12CleanupProxyEv
3379:__ZN9Scripting11UnityEngine10PlayerLoop13PreLateUpdate15UNetUpdateProxy9InitProxyEv
3380:__ZN9Scripting11UnityEngine10PlayerLoop13PreLateUpdate15UNetUpdateProxy12CleanupProxyEv
3381:__ZN9Scripting11UnityEngine10PlayerLoop13PreLateUpdate33ScriptRunBehaviourLateUpdateProxy9InitProxyEv
3382:__ZN9Scripting11UnityEngine10PlayerLoop13PreLateUpdate33ScriptRunBehaviourLateUpdateProxy12CleanupProxyEv
3383:__ZN9Scripting11UnityEngine10PlayerLoop13PreLateUpdate33ParticleSystemBeginUpdateAllProxy9InitProxyEv
3384:__ZN9Scripting11UnityEngine10PlayerLoop13PreLateUpdate33ParticleSystemBeginUpdateAllProxy12CleanupProxyEv
3385:__ZN9Scripting11UnityEngine10PlayerLoop13PreLateUpdate26LegacyAnimationUpdateProxy9InitProxyEv
3386:__ZN9Scripting11UnityEngine10PlayerLoop13PreLateUpdate26LegacyAnimationUpdateProxy12CleanupProxyEv
3387:__ZN9Scripting11UnityEngine10PlayerLoop13PreLateUpdate37EndGraphicsJobsAfterScriptUpdateProxy9InitProxyEv
3388:__ZN9Scripting11UnityEngine10PlayerLoop13PreLateUpdate37EndGraphicsJobsAfterScriptUpdateProxy12CleanupProxyEv
3389:__ZN9Scripting11UnityEngine10PlayerLoop13PreLateUpdate31DirectorUpdateAnimationEndProxy9InitProxyEv
3390:__ZN9Scripting11UnityEngine10PlayerLoop13PreLateUpdate31DirectorUpdateAnimationEndProxy12CleanupProxyEv
3391:__ZN9Scripting11UnityEngine10PlayerLoop13PreLateUpdate33DirectorUpdateAnimationBeginProxy9InitProxyEv
3392:__ZN9Scripting11UnityEngine10PlayerLoop13PreLateUpdate33DirectorUpdateAnimationBeginProxy12CleanupProxyEv
3393:__ZN9Scripting11UnityEngine10PlayerLoop13PreLateUpdate29DirectorDeferredEvaluateProxy9InitProxyEv
3394:__ZN9Scripting11UnityEngine10PlayerLoop13PreLateUpdate29DirectorDeferredEvaluateProxy12CleanupProxyEv
3395:__ZN9Scripting11UnityEngine10PlayerLoop13PreLateUpdate28ConstraintManagerUpdateProxy9InitProxyEv
3396:__ZN9Scripting11UnityEngine10PlayerLoop13PreLateUpdate28ConstraintManagerUpdateProxy12CleanupProxyEv
3397:__ZN9Scripting11UnityEngine10PlayerLoop13PreLateUpdate23AIUpdatePostScriptProxy9InitProxyEv
3398:__ZN9Scripting11UnityEngine10PlayerLoop13PreLateUpdate23AIUpdatePostScriptProxy12CleanupProxyEv
3399:__ZN9Scripting11UnityEngine10PlayerLoop18PreLateUpdateProxy9InitProxyEv
3400:__ZN9Scripting11UnityEngine10PlayerLoop18PreLateUpdateProxy12CleanupProxyEv
3401:__ZN9Scripting11UnityEngine10PlayerLoop14PostLateUpdate18XRPostPresentProxy9InitProxyEv
3402:__ZN9Scripting11UnityEngine10PlayerLoop14PostLateUpdate18XRPostPresentProxy12CleanupProxyEv
3403:__ZN9Scripting11UnityEngine10PlayerLoop14PostLateUpdate14VFXUpdateProxy9InitProxyEv
3404:__ZN9Scripting11UnityEngine10PlayerLoop14PostLateUpdate14VFXUpdateProxy12CleanupProxyEv
3405:__ZN9Scripting11UnityEngine10PlayerLoop14PostLateUpdate24UpdateVideoTexturesProxy9InitProxyEv
3406:__ZN9Scripting11UnityEngine10PlayerLoop14PostLateUpdate24UpdateVideoTexturesProxy12CleanupProxyEv
3407:__ZN9Scripting11UnityEngine10PlayerLoop14PostLateUpdate16UpdateVideoProxy9InitProxyEv
3408:__ZN9Scripting11UnityEngine10PlayerLoop14PostLateUpdate16UpdateVideoProxy12CleanupProxyEv
3409:__ZN9Scripting11UnityEngine10PlayerLoop14PostLateUpdate20UpdateSubstanceProxy9InitProxyEv
3410:__ZN9Scripting11UnityEngine10PlayerLoop14PostLateUpdate20UpdateSubstanceProxy12CleanupProxyEv
3411:__ZN9Scripting11UnityEngine10PlayerLoop14PostLateUpdate21UpdateResolutionProxy9InitProxyEv
3412:__ZN9Scripting11UnityEngine10PlayerLoop14PostLateUpdate21UpdateResolutionProxy12CleanupProxyEv
3413:__ZN9Scripting11UnityEngine10PlayerLoop14PostLateUpdate24UpdateRectTransformProxy9InitProxyEv
3414:__ZN9Scripting11UnityEngine10PlayerLoop14PostLateUpdate24UpdateRectTransformProxy12CleanupProxyEv
3415:__ZN9Scripting11UnityEngine10PlayerLoop14PostLateUpdate31UpdateCustomRenderTexturesProxy9InitProxyEv
3416:__ZN9Scripting11UnityEngine10PlayerLoop14PostLateUpdate31UpdateCustomRenderTexturesProxy12CleanupProxyEv
3417:__ZN9Scripting11UnityEngine10PlayerLoop14PostLateUpdate28UpdateCaptureScreenshotProxy9InitProxyEv
3418:__ZN9Scripting11UnityEngine10PlayerLoop14PostLateUpdate28UpdateCaptureScreenshotProxy12CleanupProxyEv
3419:__ZN9Scripting11UnityEngine10PlayerLoop14PostLateUpdate30UpdateCanvasRectTransformProxy9InitProxyEv
3420:__ZN9Scripting11UnityEngine10PlayerLoop14PostLateUpdate30UpdateCanvasRectTransformProxy12CleanupProxyEv
3421:__ZN9Scripting11UnityEngine10PlayerLoop14PostLateUpdate16UpdateAudioProxy9InitProxyEv
3422:__ZN9Scripting11UnityEngine10PlayerLoop14PostLateUpdate16UpdateAudioProxy12CleanupProxyEv
3423:__ZN9Scripting11UnityEngine10PlayerLoop14PostLateUpdate27UpdateAllSkinnedMeshesProxy9InitProxyEv
3424:__ZN9Scripting11UnityEngine10PlayerLoop14PostLateUpdate27UpdateAllSkinnedMeshesProxy12CleanupProxyEv
3425:__ZN9Scripting11UnityEngine10PlayerLoop14PostLateUpdate23UpdateAllRenderersProxy9InitProxyEv
3426:__ZN9Scripting11UnityEngine10PlayerLoop14PostLateUpdate23UpdateAllRenderersProxy12CleanupProxyEv
3427:__ZN9Scripting11UnityEngine10PlayerLoop14PostLateUpdate31TriggerEndOfFrameCallbacksProxy9InitProxyEv
3428:__ZN9Scripting11UnityEngine10PlayerLoop14PostLateUpdate31TriggerEndOfFrameCallbacksProxy12CleanupProxyEv
3429:__ZN9Scripting11UnityEngine10PlayerLoop14PostLateUpdate25ThreadedLoadingDebugProxy9InitProxyEv
3430:__ZN9Scripting11UnityEngine10PlayerLoop14PostLateUpdate25ThreadedLoadingDebugProxy12CleanupProxyEv
3431:__ZN9Scripting11UnityEngine10PlayerLoop14PostLateUpdate24SortingGroupsUpdateProxy9InitProxyEv
3432:__ZN9Scripting11UnityEngine10PlayerLoop14PostLateUpdate24SortingGroupsUpdateProxy12CleanupProxyEv
3433:__ZN9Scripting11UnityEngine10PlayerLoop14PostLateUpdate23ShaderHandleErrorsProxy9InitProxyEv
3434:__ZN9Scripting11UnityEngine10PlayerLoop14PostLateUpdate23ShaderHandleErrorsProxy12CleanupProxyEv
3435:__ZN9Scripting11UnityEngine10PlayerLoop14PostLateUpdate37ScriptRunDelayedDynamicFrameRateProxy9InitProxyEv
3436:__ZN9Scripting11UnityEngine10PlayerLoop14PostLateUpdate37ScriptRunDelayedDynamicFrameRateProxy12CleanupProxyEv
3437:__ZN9Scripting11UnityEngine10PlayerLoop14PostLateUpdate19ResetInputAxisProxy9InitProxyEv
3438:__ZN9Scripting11UnityEngine10PlayerLoop14PostLateUpdate19ResetInputAxisProxy12CleanupProxyEv
3439:__ZN9Scripting11UnityEngine10PlayerLoop14PostLateUpdate29ProfilerSynchronizeStatsProxy9InitProxyEv
3440:__ZN9Scripting11UnityEngine10PlayerLoop14PostLateUpdate29ProfilerSynchronizeStatsProxy12CleanupProxyEv
3441:__ZN9Scripting11UnityEngine10PlayerLoop14PostLateUpdate21ProfilerEndFrameProxy9InitProxyEv
3442:__ZN9Scripting11UnityEngine10PlayerLoop14PostLateUpdate21ProfilerEndFrameProxy12CleanupProxyEv
3443:__ZN9Scripting11UnityEngine10PlayerLoop14PostLateUpdate27ProcessWebSendMessagesProxy9InitProxyEv
3444:__ZN9Scripting11UnityEngine10PlayerLoop14PostLateUpdate27ProcessWebSendMessagesProxy12CleanupProxyEv
3445:__ZN9Scripting11UnityEngine10PlayerLoop14PostLateUpdate21PresentAfterDrawProxy9InitProxyEv
3446:__ZN9Scripting11UnityEngine10PlayerLoop14PostLateUpdate21PresentAfterDrawProxy12CleanupProxyEv
3447:__ZN9Scripting11UnityEngine10PlayerLoop14PostLateUpdate25PlayerUpdateCanvasesProxy9InitProxyEv
3448:__ZN9Scripting11UnityEngine10PlayerLoop14PostLateUpdate25PlayerUpdateCanvasesProxy12CleanupProxyEv
3449:__ZN9Scripting11UnityEngine10PlayerLoop14PostLateUpdate27PlayerSendFrameStartedProxy9InitProxyEv
3450:__ZN9Scripting11UnityEngine10PlayerLoop14PostLateUpdate27PlayerSendFrameStartedProxy12CleanupProxyEv
3451:__ZN9Scripting11UnityEngine10PlayerLoop14PostLateUpdate31PlayerSendFramePostPresentProxy9InitProxyEv
3452:__ZN9Scripting11UnityEngine10PlayerLoop14PostLateUpdate31PlayerSendFramePostPresentProxy12CleanupProxyEv
3453:__ZN9Scripting11UnityEngine10PlayerLoop14PostLateUpdate28PlayerSendFrameCompleteProxy9InitProxyEv
3454:__ZN9Scripting11UnityEngine10PlayerLoop14PostLateUpdate28PlayerSendFrameCompleteProxy12CleanupProxyEv
3455:__ZN9Scripting11UnityEngine10PlayerLoop14PostLateUpdate29PlayerEmitCanvasGeometryProxy9InitProxyEv
3456:__ZN9Scripting11UnityEngine10PlayerLoop14PostLateUpdate29PlayerEmitCanvasGeometryProxy12CleanupProxyEv
3457:__ZN9Scripting11UnityEngine10PlayerLoop14PostLateUpdate36PhysicsSkinnedClothFinishUpdateProxy9InitProxyEv
3458:__ZN9Scripting11UnityEngine10PlayerLoop14PostLateUpdate36PhysicsSkinnedClothFinishUpdateProxy12CleanupProxyEv
3459:__ZN9Scripting11UnityEngine10PlayerLoop14PostLateUpdate35PhysicsSkinnedClothBeginUpdateProxy9InitProxyEv
3460:__ZN9Scripting11UnityEngine10PlayerLoop14PostLateUpdate35PhysicsSkinnedClothBeginUpdateProxy12CleanupProxyEv
3461:__ZN9Scripting11UnityEngine10PlayerLoop14PostLateUpdate31ParticleSystemEndUpdateAllProxy9InitProxyEv
3462:__ZN9Scripting11UnityEngine10PlayerLoop14PostLateUpdate31ParticleSystemEndUpdateAllProxy12CleanupProxyEv
3463:__ZN9Scripting11UnityEngine10PlayerLoop14PostLateUpdate27MemoryFrameMaintenanceProxy9InitProxyEv
3464:__ZN9Scripting11UnityEngine10PlayerLoop14PostLateUpdate27MemoryFrameMaintenanceProxy12CleanupProxyEv
3465:__ZN9Scripting11UnityEngine10PlayerLoop14PostLateUpdate18InputEndFrameProxy9InitProxyEv
3466:__ZN9Scripting11UnityEngine10PlayerLoop14PostLateUpdate18InputEndFrameProxy12CleanupProxyEv
3467:__ZN9Scripting11UnityEngine10PlayerLoop14PostLateUpdate19GUIClearEventsProxy9InitProxyEv
3468:__ZN9Scripting11UnityEngine10PlayerLoop14PostLateUpdate19GUIClearEventsProxy12CleanupProxyEv
3469:__ZN9Scripting11UnityEngine10PlayerLoop14PostLateUpdate25FinishFrameRenderingProxy9InitProxyEv
3470:__ZN9Scripting11UnityEngine10PlayerLoop14PostLateUpdate25FinishFrameRenderingProxy12CleanupProxyEv
3471:__ZN9Scripting11UnityEngine10PlayerLoop14PostLateUpdate31ExecuteGameCenterCallbacksProxy9InitProxyEv
3472:__ZN9Scripting11UnityEngine10PlayerLoop14PostLateUpdate31ExecuteGameCenterCallbacksProxy12CleanupProxyEv
3473:__ZN9Scripting11UnityEngine10PlayerLoop14PostLateUpdate27EnlightenRuntimeUpdateProxy9InitProxyEv
3474:__ZN9Scripting11UnityEngine10PlayerLoop14PostLateUpdate27EnlightenRuntimeUpdateProxy12CleanupProxyEv
3475:__ZN9Scripting11UnityEngine10PlayerLoop14PostLateUpdate41EndGraphicsJobsAfterScriptLateUpdateProxy9InitProxyEv
3476:__ZN9Scripting11UnityEngine10PlayerLoop14PostLateUpdate41EndGraphicsJobsAfterScriptLateUpdateProxy12CleanupProxyEv
3477:__ZN9Scripting11UnityEngine10PlayerLoop14PostLateUpdate24DirectorRenderImageProxy9InitProxyEv
3478:__ZN9Scripting11UnityEngine10PlayerLoop14PostLateUpdate24DirectorRenderImageProxy12CleanupProxyEv
3479:__ZN9Scripting11UnityEngine10PlayerLoop14PostLateUpdate23DirectorLateUpdateProxy9InitProxyEv
3480:__ZN9Scripting11UnityEngine10PlayerLoop14PostLateUpdate23DirectorLateUpdateProxy12CleanupProxyEv
3481:__ZN9Scripting11UnityEngine10PlayerLoop14PostLateUpdate28ClearImmediateRenderersProxy9InitProxyEv
3482:__ZN9Scripting11UnityEngine10PlayerLoop14PostLateUpdate28ClearImmediateRenderersProxy12CleanupProxyEv
3483:__ZN9Scripting11UnityEngine10PlayerLoop14PostLateUpdate20BatchModeUpdateProxy9InitProxyEv
3484:__ZN9Scripting11UnityEngine10PlayerLoop14PostLateUpdate20BatchModeUpdateProxy12CleanupProxyEv
3485:__ZN9Scripting11UnityEngine10PlayerLoop19PostLateUpdateProxy9InitProxyEv
3486:__ZN9Scripting11UnityEngine10PlayerLoop19PostLateUpdateProxy12CleanupProxyEv
3487:__ZN9Scripting11UnityEngine10PlayerLoop14Initialization18XREarlyUpdateProxy9InitProxyEv
3488:__ZN9Scripting11UnityEngine10PlayerLoop14Initialization18XREarlyUpdateProxy12CleanupProxyEv
3489:__ZN9Scripting11UnityEngine10PlayerLoop14Initialization21SynchronizeStateProxy9InitProxyEv
3490:__ZN9Scripting11UnityEngine10PlayerLoop14Initialization21SynchronizeStateProxy12CleanupProxyEv
3491:__ZN9Scripting11UnityEngine10PlayerLoop14Initialization22SynchronizeInputsProxy9InitProxyEv
3492:__ZN9Scripting11UnityEngine10PlayerLoop14Initialization22SynchronizeInputsProxy12CleanupProxyEv
3493:__ZN9Scripting11UnityEngine10PlayerLoop14Initialization21PlayerUpdateTimeProxy9InitProxyEv
3494:__ZN9Scripting11UnityEngine10PlayerLoop14Initialization21PlayerUpdateTimeProxy12CleanupProxyEv
3495:__ZN9Scripting11UnityEngine10PlayerLoop14Initialization23DirectorSampleTimeProxy9InitProxyEv
3496:__ZN9Scripting11UnityEngine10PlayerLoop14Initialization23DirectorSampleTimeProxy12CleanupProxyEv
3497:__ZN9Scripting11UnityEngine10PlayerLoop14Initialization32AsyncUploadTimeSlicedUpdateProxy9InitProxyEv
3498:__ZN9Scripting11UnityEngine10PlayerLoop14Initialization32AsyncUploadTimeSlicedUpdateProxy12CleanupProxyEv
3499:__ZN9Scripting11UnityEngine10PlayerLoop19InitializationProxy9InitProxyEv
3500:__ZN9Scripting11UnityEngine10PlayerLoop19InitializationProxy12CleanupProxyEv
3501:__ZN9Scripting11UnityEngine10PlayerLoop11FixedUpdate18XRFixedUpdateProxy9InitProxyEv
3502:__ZN9Scripting11UnityEngine10PlayerLoop11FixedUpdate18XRFixedUpdateProxy12CleanupProxyEv
3503:__ZN9Scripting11UnityEngine10PlayerLoop11FixedUpdate35ScriptRunDelayedFixedFrameRateProxy9InitProxyEv
3504:__ZN9Scripting11UnityEngine10PlayerLoop11FixedUpdate35ScriptRunDelayedFixedFrameRateProxy12CleanupProxyEv
3505:__ZN9Scripting11UnityEngine10PlayerLoop11FixedUpdate34ScriptRunBehaviourFixedUpdateProxy9InitProxyEv
3506:__ZN9Scripting11UnityEngine10PlayerLoop11FixedUpdate34ScriptRunBehaviourFixedUpdateProxy12CleanupProxyEv
3507:__ZN9Scripting11UnityEngine10PlayerLoop11FixedUpdate23PhysicsFixedUpdateProxy9InitProxyEv
3508:__ZN9Scripting11UnityEngine10PlayerLoop11FixedUpdate23PhysicsFixedUpdateProxy12CleanupProxyEv
3509:__ZN9Scripting11UnityEngine10PlayerLoop11FixedUpdate25Physics2DFixedUpdateProxy9InitProxyEv
3510:__ZN9Scripting11UnityEngine10PlayerLoop11FixedUpdate25Physics2DFixedUpdateProxy12CleanupProxyEv
3511:__ZN9Scripting11UnityEngine10PlayerLoop11FixedUpdate24NewInputFixedUpdateProxy9InitProxyEv
3512:__ZN9Scripting11UnityEngine10PlayerLoop11FixedUpdate24NewInputFixedUpdateProxy12CleanupProxyEv
3513:__ZN9Scripting11UnityEngine10PlayerLoop11FixedUpdate31LegacyFixedAnimationUpdateProxy9InitProxyEv
3514:__ZN9Scripting11UnityEngine10PlayerLoop11FixedUpdate31LegacyFixedAnimationUpdateProxy12CleanupProxyEv
3515:__ZN9Scripting11UnityEngine10PlayerLoop11FixedUpdate35DirectorFixedUpdatePostPhysicsProxy9InitProxyEv
3516:__ZN9Scripting11UnityEngine10PlayerLoop11FixedUpdate35DirectorFixedUpdatePostPhysicsProxy12CleanupProxyEv
3517:__ZN9Scripting11UnityEngine10PlayerLoop11FixedUpdate24DirectorFixedUpdateProxy9InitProxyEv
3518:__ZN9Scripting11UnityEngine10PlayerLoop11FixedUpdate24DirectorFixedUpdateProxy12CleanupProxyEv
3519:__ZN9Scripting11UnityEngine10PlayerLoop11FixedUpdate28DirectorFixedSampleTimeProxy9InitProxyEv
3520:__ZN9Scripting11UnityEngine10PlayerLoop11FixedUpdate28DirectorFixedSampleTimeProxy12CleanupProxyEv
3521:__ZN9Scripting11UnityEngine10PlayerLoop11FixedUpdate15ClearLinesProxy9InitProxyEv
3522:__ZN9Scripting11UnityEngine10PlayerLoop11FixedUpdate15ClearLinesProxy12CleanupProxyEv
3523:__ZN9Scripting11UnityEngine10PlayerLoop11FixedUpdate21AudioFixedUpdateProxy9InitProxyEv
3524:__ZN9Scripting11UnityEngine10PlayerLoop11FixedUpdate21AudioFixedUpdateProxy12CleanupProxyEv
3525:__ZN9Scripting11UnityEngine10PlayerLoop16FixedUpdateProxy9InitProxyEv
3526:__ZN9Scripting11UnityEngine10PlayerLoop16FixedUpdateProxy12CleanupProxyEv
3527:__ZN9Scripting11UnityEngine10PlayerLoop11EarlyUpdate13XRUpdateProxy9InitProxyEv
3528:__ZN9Scripting11UnityEngine10PlayerLoop11EarlyUpdate13XRUpdateProxy12CleanupProxyEv
3529:__ZN9Scripting11UnityEngine10PlayerLoop11EarlyUpdate34UpdateTextureStreamingManagerProxy9InitProxyEv
3530:__ZN9Scripting11UnityEngine10PlayerLoop11EarlyUpdate34UpdateTextureStreamingManagerProxy12CleanupProxyEv
3531:__ZN9Scripting11UnityEngine10PlayerLoop11EarlyUpdate27UpdateStreamingManagerProxy9InitProxyEv
3532:__ZN9Scripting11UnityEngine10PlayerLoop11EarlyUpdate27UpdateStreamingManagerProxy12CleanupProxyEv
3533:__ZN9Scripting11UnityEngine10PlayerLoop11EarlyUpdate21UpdatePreloadingProxy9InitProxyEv
3534:__ZN9Scripting11UnityEngine10PlayerLoop11EarlyUpdate21UpdatePreloadingProxy12CleanupProxyEv
3535:__ZN9Scripting11UnityEngine10PlayerLoop11EarlyUpdate27UpdateMainGameViewRectProxy9InitProxyEv
3536:__ZN9Scripting11UnityEngine10PlayerLoop11EarlyUpdate27UpdateMainGameViewRectProxy12CleanupProxyEv
3537:__ZN9Scripting11UnityEngine10PlayerLoop11EarlyUpdate17UpdateKinectProxy9InitProxyEv
3538:__ZN9Scripting11UnityEngine10PlayerLoop11EarlyUpdate17UpdateKinectProxy12CleanupProxyEv
3539:__ZN9Scripting11UnityEngine10PlayerLoop11EarlyUpdate23UpdateInputManagerProxy9InitProxyEv
3540:__ZN9Scripting11UnityEngine10PlayerLoop11EarlyUpdate23UpdateInputManagerProxy12CleanupProxyEv
3541:__ZN9Scripting11UnityEngine10PlayerLoop11EarlyUpdate30UpdateCanvasRectTransformProxy9InitProxyEv
3542:__ZN9Scripting11UnityEngine10PlayerLoop11EarlyUpdate30UpdateCanvasRectTransformProxy12CleanupProxyEv
3543:__ZN9Scripting11UnityEngine10PlayerLoop11EarlyUpdate31UpdateAsyncReadbackManagerProxy9InitProxyEv
3544:__ZN9Scripting11UnityEngine10PlayerLoop11EarlyUpdate31UpdateAsyncReadbackManagerProxy12CleanupProxyEv
3545:__ZN9Scripting11UnityEngine10PlayerLoop11EarlyUpdate26UnityWebRequestUpdateProxy9InitProxyEv
3546:__ZN9Scripting11UnityEngine10PlayerLoop11EarlyUpdate26UnityWebRequestUpdateProxy12CleanupProxyEv
3547:__ZN9Scripting11UnityEngine10PlayerLoop11EarlyUpdate16TangoUpdateProxy9InitProxyEv
3548:__ZN9Scripting11UnityEngine10PlayerLoop11EarlyUpdate16TangoUpdateProxy12CleanupProxyEv
3549:__ZN9Scripting11UnityEngine10PlayerLoop11EarlyUpdate29SpriteAtlasManagerUpdateProxy9InitProxyEv
3550:__ZN9Scripting11UnityEngine10PlayerLoop11EarlyUpdate29SpriteAtlasManagerUpdateProxy12CleanupProxyEv
3551:__ZN9Scripting11UnityEngine10PlayerLoop11EarlyUpdate33ScriptRunDelayedStartupFrameProxy9InitProxyEv
3552:__ZN9Scripting11UnityEngine10PlayerLoop11EarlyUpdate33ScriptRunDelayedStartupFrameProxy12CleanupProxyEv
3553:__ZN9Scripting11UnityEngine10PlayerLoop11EarlyUpdate32ResetFrameStatsAfterPresentProxy9InitProxyEv
3554:__ZN9Scripting11UnityEngine10PlayerLoop11EarlyUpdate32ResetFrameStatsAfterPresentProxy12CleanupProxyEv
3555:__ZN9Scripting11UnityEngine10PlayerLoop11EarlyUpdate28RendererNotifyInvisibleProxy9InitProxyEv
3556:__ZN9Scripting11UnityEngine10PlayerLoop11EarlyUpdate28RendererNotifyInvisibleProxy12CleanupProxyEv
3557:__ZN9Scripting11UnityEngine10PlayerLoop11EarlyUpdate23ProfilerStartFrameProxy9InitProxyEv
3558:__ZN9Scripting11UnityEngine10PlayerLoop11EarlyUpdate23ProfilerStartFrameProxy12CleanupProxyEv
3559:__ZN9Scripting11UnityEngine10PlayerLoop11EarlyUpdate23ProcessRemoteInputProxy9InitProxyEv
3560:__ZN9Scripting11UnityEngine10PlayerLoop11EarlyUpdate23ProcessRemoteInputProxy12CleanupProxyEv
3561:__ZN9Scripting11UnityEngine10PlayerLoop11EarlyUpdate25ProcessMouseInWindowProxy9InitProxyEv
3562:__ZN9Scripting11UnityEngine10PlayerLoop11EarlyUpdate25ProcessMouseInWindowProxy12CleanupProxyEv
3563:__ZN9Scripting11UnityEngine10PlayerLoop11EarlyUpdate24PresentBeforeUpdateProxy9InitProxyEv
3564:__ZN9Scripting11UnityEngine10PlayerLoop11EarlyUpdate24PresentBeforeUpdateProxy12CleanupProxyEv
3565:__ZN9Scripting11UnityEngine10PlayerLoop11EarlyUpdate25PollPlayerConnectionProxy9InitProxyEv
3566:__ZN9Scripting11UnityEngine10PlayerLoop11EarlyUpdate25PollPlayerConnectionProxy12CleanupProxyEv
3567:__ZN9Scripting11UnityEngine10PlayerLoop11EarlyUpdate29PollHtcsPlayerConnectionProxy9InitProxyEv
3568:__ZN9Scripting11UnityEngine10PlayerLoop11EarlyUpdate29PollHtcsPlayerConnectionProxy12CleanupProxyEv
3569:__ZN9Scripting11UnityEngine10PlayerLoop11EarlyUpdate28PlayerCleanupCachedDataProxy9InitProxyEv
3570:__ZN9Scripting11UnityEngine10PlayerLoop11EarlyUpdate28PlayerCleanupCachedDataProxy12CleanupProxyEv
3571:__ZN9Scripting11UnityEngine10PlayerLoop11EarlyUpdate46PhysicsResetInterpolatedTransformPositionProxy9InitProxyEv
3572:__ZN9Scripting11UnityEngine10PlayerLoop11EarlyUpdate46PhysicsResetInterpolatedTransformPositionProxy12CleanupProxyEv
3573:__ZN9Scripting11UnityEngine10PlayerLoop11EarlyUpdate31PerformanceAnalyticsUpdateProxy9InitProxyEv
3574:__ZN9Scripting11UnityEngine10PlayerLoop11EarlyUpdate31PerformanceAnalyticsUpdateProxy12CleanupProxyEv
3575:__ZN9Scripting11UnityEngine10PlayerLoop11EarlyUpdate17GpuTimestampProxy9InitProxyEv
3576:__ZN9Scripting11UnityEngine10PlayerLoop11EarlyUpdate17GpuTimestampProxy12CleanupProxyEv
3577:__ZN9Scripting11UnityEngine10PlayerLoop11EarlyUpdate26ExecuteMainThreadJobsProxy9InitProxyEv
3578:__ZN9Scripting11UnityEngine10PlayerLoop11EarlyUpdate26ExecuteMainThreadJobsProxy12CleanupProxyEv
3579:__ZN9Scripting11UnityEngine10PlayerLoop11EarlyUpdate29DispatchEventQueueEventsProxy9InitProxyEv
3580:__ZN9Scripting11UnityEngine10PlayerLoop11EarlyUpdate29DispatchEventQueueEventsProxy12CleanupProxyEv
3581:__ZN9Scripting11UnityEngine10PlayerLoop11EarlyUpdate29DeliverIosPlatformEventsProxy9InitProxyEv
3582:__ZN9Scripting11UnityEngine10PlayerLoop11EarlyUpdate29DeliverIosPlatformEventsProxy12CleanupProxyEv
3583:__ZN9Scripting11UnityEngine10PlayerLoop11EarlyUpdate15ClearLinesProxy9InitProxyEv
3584:__ZN9Scripting11UnityEngine10PlayerLoop11EarlyUpdate15ClearLinesProxy12CleanupProxyEv
3585:__ZN9Scripting11UnityEngine10PlayerLoop11EarlyUpdate31ClearIntermediateRenderersProxy9InitProxyEv
3586:__ZN9Scripting11UnityEngine10PlayerLoop11EarlyUpdate31ClearIntermediateRenderersProxy12CleanupProxyEv
3587:__ZN9Scripting11UnityEngine10PlayerLoop11EarlyUpdate29AnalyticsCoreStatsUpdateProxy9InitProxyEv
3588:__ZN9Scripting11UnityEngine10PlayerLoop11EarlyUpdate29AnalyticsCoreStatsUpdateProxy12CleanupProxyEv
3589:__ZN9Scripting11UnityEngine10PlayerLoop16EarlyUpdateProxy9InitProxyEv
3590:__ZN9Scripting11UnityEngine10PlayerLoop16EarlyUpdateProxy12CleanupProxyEv
3591:__ZN9Scripting11UnityEngine9Playables25ScriptPlayableOutputProxy9InitProxyEv
3592:__ZN9Scripting11UnityEngine9Playables25ScriptPlayableOutputProxy12CleanupProxyEv
3593:__ZN9Scripting11UnityEngine9Playables25PlayableOutputHandleProxy9InitProxyEv
3594:__ZN9Scripting11UnityEngine9Playables25PlayableOutputHandleProxy12CleanupProxyEv
3595:__ZN9Scripting11UnityEngine9Playables19PlayableOutputProxy9InitProxyEv
3596:__ZN9Scripting11UnityEngine9Playables19PlayableOutputProxy12CleanupProxyEv
3597:__ZN9Scripting11UnityEngine9Playables19PlayableHandleProxy9InitProxyEv
3598:__ZN9Scripting11UnityEngine9Playables19PlayableHandleProxy12CleanupProxyEv
3599:__ZN9Scripting11UnityEngine9Playables18PlayableGraphProxy9InitProxyEv
3600:__ZN9Scripting11UnityEngine9Playables18PlayableGraphProxy12CleanupProxyEv
3601:__ZN9Scripting11UnityEngine9Playables22PlayableBehaviourProxy9InitProxyEv
3602:__ZN9Scripting11UnityEngine9Playables22PlayableBehaviourProxy12CleanupProxyEv
3603:__ZN9Scripting11UnityEngine9Playables18PlayableAssetProxy9InitProxyEv
3604:__ZN9Scripting11UnityEngine9Playables18PlayableAssetProxy12CleanupProxyEv
3605:__ZN9Scripting11UnityEngine9Playables13PlayableProxy9InitProxyEv
3606:__ZN9Scripting11UnityEngine9Playables13PlayableProxy12CleanupProxyEv
3607:__ZN9Scripting11UnityEngine10PlaneProxy9InitProxyEv
3608:__ZN9Scripting11UnityEngine10PlaneProxy12CleanupProxyEv
3609:__ZN9Scripting11UnityEngine10Networking16PlayerConnection21PlayerConnectionProxy9InitProxyEv
3610:__ZN9Scripting11UnityEngine10Networking16PlayerConnection21PlayerConnectionProxy12CleanupProxyEv
3611:__ZN9Scripting11UnityEngine21ScriptableObjectProxy9InitProxyEv
3612:__ZN9Scripting11UnityEngine21ScriptableObjectProxy12CleanupProxyEv
3613:__ZN9Scripting11UnityEngine18MonoBehaviourProxy9InitProxyEv
3614:__ZN9Scripting11UnityEngine18MonoBehaviourProxy12CleanupProxyEv
3615:__ZN9Scripting11UnityEngine17MeshRendererProxy9InitProxyEv
3616:__ZN9Scripting11UnityEngine17MeshRendererProxy12CleanupProxyEv
3617:__ZN9Scripting11UnityEngine13RendererProxy9InitProxyEv
3618:__ZN9Scripting11UnityEngine13RendererProxy12CleanupProxyEv
3619:__ZN9Scripting11UnityEngine15MeshFilterProxy9InitProxyEv
3620:__ZN9Scripting11UnityEngine15MeshFilterProxy12CleanupProxyEv
3621:__ZN9Scripting11UnityEngine9MeshProxy9InitProxyEv
3622:__ZN9Scripting11UnityEngine9MeshProxy12CleanupProxyEv
3623:__ZN9Scripting11UnityEngine14Matrix4x4Proxy9InitProxyEv
3624:__ZN9Scripting11UnityEngine14Matrix4x4Proxy12CleanupProxyEv
3625:__ZN9Scripting11UnityEngine13MaterialProxy9InitProxyEv
3626:__ZN9Scripting11UnityEngine13MaterialProxy12CleanupProxyEv
3627:__ZN9Scripting11UnityEngine25ManagedStreamHelpersProxy9InitProxyEv
3628:__ZN9Scripting11UnityEngine25ManagedStreamHelpersProxy12CleanupProxyEv
3629:__ZN9Scripting11UnityEngine8LowLevel29PlayerLoopSystemInternalProxy9InitProxyEv
3630:__ZN9Scripting11UnityEngine8LowLevel29PlayerLoopSystemInternalProxy12CleanupProxyEv
3631:__ZN9Scripting11UnityEngine24LowerResBlitTextureProxy9InitProxyEv
3632:__ZN9Scripting11UnityEngine24LowerResBlitTextureProxy12CleanupProxyEv
3633:__ZN9Scripting11UnityEngine8LODProxy9InitProxyEv
3634:__ZN9Scripting11UnityEngine8LODProxy12CleanupProxyEv
3635:__ZN9Scripting11UnityEngine17LightmapDataProxy9InitProxyEv
3636:__ZN9Scripting11UnityEngine17LightmapDataProxy12CleanupProxyEv
3637:__ZN9Scripting11UnityEngine14LayerMaskProxy9InitProxyEv
3638:__ZN9Scripting11UnityEngine14LayerMaskProxy12CleanupProxyEv
3639:__ZN9Scripting11UnityEngine13KeyframeProxy9InitProxyEv
3640:__ZN9Scripting11UnityEngine13KeyframeProxy12CleanupProxyEv
3641:__ZN9Scripting11UnityEngine33ImageEffectUsesCommandBufferProxy9InitProxyEv
3642:__ZN9Scripting11UnityEngine33ImageEffectUsesCommandBufferProxy12CleanupProxyEv
3643:__ZN9Scripting11UnityEngine31ImageEffectTransformsToLDRProxy9InitProxyEv
3644:__ZN9Scripting11UnityEngine31ImageEffectTransformsToLDRProxy12CleanupProxyEv
3645:__ZN9Scripting11UnityEngine22ImageEffectOpaqueProxy9InitProxyEv
3646:__ZN9Scripting11UnityEngine22ImageEffectOpaqueProxy12CleanupProxyEv
3647:__ZN9Scripting11UnityEngine26ImageEffectAfterScaleProxy9InitProxyEv
3648:__ZN9Scripting11UnityEngine26ImageEffectAfterScaleProxy12CleanupProxyEv
3649:__ZN9Scripting11UnityEngine20HideInInspectorProxy9InitProxyEv
3650:__ZN9Scripting11UnityEngine20HideInInspectorProxy12CleanupProxyEv
3651:__ZN9Scripting11UnityEngine21HelpURLAttributeProxy9InitProxyEv
3652:__ZN9Scripting11UnityEngine21HelpURLAttributeProxy12CleanupProxyEv
3653:__ZN9Scripting11UnityEngine12Hash128Proxy9InitProxyEv
3654:__ZN9Scripting11UnityEngine12Hash128Proxy12CleanupProxyEv
3655:__ZN9Scripting11UnityEngine19GraphicsBufferProxy9InitProxyEv
3656:__ZN9Scripting11UnityEngine19GraphicsBufferProxy12CleanupProxyEv
3657:__ZN9Scripting11UnityEngine21GradientColorKeyProxy9InitProxyEv
3658:__ZN9Scripting11UnityEngine21GradientColorKeyProxy12CleanupProxyEv
3659:__ZN9Scripting11UnityEngine21GradientAlphaKeyProxy9InitProxyEv
3660:__ZN9Scripting11UnityEngine21GradientAlphaKeyProxy12CleanupProxyEv
3661:__ZN9Scripting11UnityEngine13GradientProxy9InitProxyEv
3662:__ZN9Scripting11UnityEngine13GradientProxy12CleanupProxyEv
3663:__ZN9Scripting11UnityEngine15GameObjectProxy9InitProxyEv
3664:__ZN9Scripting11UnityEngine15GameObjectProxy12CleanupProxyEv
3665:__ZN9Scripting11UnityEngine29FailedToLoadScriptObjectProxy9InitProxyEv
3666:__ZN9Scripting11UnityEngine29FailedToLoadScriptObjectProxy12CleanupProxyEv
3667:__ZN9Scripting11UnityEngine36ExtensionOfNativeClassAttributeProxy9InitProxyEv
3668:__ZN9Scripting11UnityEngine36ExtensionOfNativeClassAttributeProxy12CleanupProxyEv
3669:__ZN9Scripting11UnityEngine23ExposedReference_1Proxy9InitProxyEv
3670:__ZN9Scripting11UnityEngine23ExposedReference_1Proxy12CleanupProxyEv
3671:__ZN9Scripting11UnityEngine12Experimental3U2D24SpriteRendererGroupProxy9InitProxyEv
3672:__ZN9Scripting11UnityEngine12Experimental3U2D24SpriteRendererGroupProxy12CleanupProxyEv
3673:__ZN9Scripting11UnityEngine12Experimental3U2D35SpriteIntermediateRendererInfoProxy9InitProxyEv
3674:__ZN9Scripting11UnityEngine12Experimental3U2D35SpriteIntermediateRendererInfoProxy12CleanupProxyEv
3675:__ZN9Scripting11UnityEngine12Experimental9Rendering45ScriptableRuntimeReflectionSystemWrapperProxy9InitProxyEv
3676:__ZN9Scripting11UnityEngine12Experimental9Rendering45ScriptableRuntimeReflectionSystemWrapperProxy12CleanupProxyEv
3677:__ZN9Scripting11UnityEngine12Experimental9Rendering46ScriptableRuntimeReflectionSystemSettingsProxy9InitProxyEv
3678:__ZN9Scripting11UnityEngine12Experimental9Rendering46ScriptableRuntimeReflectionSystemSettingsProxy12CleanupProxyEv
3679:__ZN9Scripting11UnityEngine12Experimental9Rendering36RayTracingAccelerationStructureProxy9InitProxyEv
3680:__ZN9Scripting11UnityEngine12Experimental9Rendering36RayTracingAccelerationStructureProxy12CleanupProxyEv
3681:__ZN9Scripting11UnityEngine12Experimental9Rendering35BuiltinRuntimeReflectionSystemProxy9InitProxyEv
3682:__ZN9Scripting11UnityEngine12Experimental9Rendering35BuiltinRuntimeReflectionSystemProxy12CleanupProxyEv
3683:__ZN9Scripting11UnityEngine12Experimental9Playables26TexturePlayableOutputProxy9InitProxyEv
3684:__ZN9Scripting11UnityEngine12Experimental9Playables26TexturePlayableOutputProxy12CleanupProxyEv
3685:__ZN9Scripting11UnityEngine12Experimental9Playables25TextureMixerPlayableProxy9InitProxyEv
3686:__ZN9Scripting11UnityEngine12Experimental9Playables25TextureMixerPlayableProxy12CleanupProxyEv
3687:__ZN9Scripting11UnityEngine12Experimental9Playables27MaterialEffectPlayableProxy9InitProxyEv
3688:__ZN9Scripting11UnityEngine12Experimental9Playables27MaterialEffectPlayableProxy12CleanupProxyEv
3689:__ZN9Scripting11UnityEngine12Experimental9Playables19CameraPlayableProxy9InitProxyEv
3690:__ZN9Scripting11UnityEngine12Experimental9Playables19CameraPlayableProxy12CleanupProxyEv
3691:__ZN9Scripting11UnityEngine12Experimental18GlobalIllumination17LightmappingProxy9InitProxyEv
3692:__ZN9Scripting11UnityEngine12Experimental18GlobalIllumination17LightmappingProxy12CleanupProxyEv
3693:__ZN9Scripting11UnityEngine12Experimental18GlobalIllumination16LightDataGIProxy9InitProxyEv
3694:__ZN9Scripting11UnityEngine12Experimental18GlobalIllumination16LightDataGIProxy12CleanupProxyEv
3695:__ZN9Scripting11UnityEngine22ExecuteInEditModeProxy9InitProxyEv
3696:__ZN9Scripting11UnityEngine22ExecuteInEditModeProxy12CleanupProxyEv
3697:__ZN9Scripting11UnityEngine18ExecuteAlwaysProxy9InitProxyEv
3698:__ZN9Scripting11UnityEngine18ExecuteAlwaysProxy12CleanupProxyEv
3699:__ZN9Scripting11UnityEngine31ExcludeFromPresetAttributeProxy9InitProxyEv
3700:__ZN9Scripting11UnityEngine31ExcludeFromPresetAttributeProxy12CleanupProxyEv
3701:__ZN9Scripting11UnityEngine38ExcludeFromObjectFactoryAttributeProxy9InitProxyEv
3702:__ZN9Scripting11UnityEngine38ExcludeFromObjectFactoryAttributeProxy12CleanupProxyEv
3703:__ZN9Scripting11UnityEngine6Events17UnityEvent_4Proxy9InitProxyEv
3704:__ZN9Scripting11UnityEngine6Events17UnityEvent_4Proxy12CleanupProxyEv
3705:__ZN9Scripting11UnityEngine6Events17UnityEvent_3Proxy9InitProxyEv
3706:__ZN9Scripting11UnityEngine6Events17UnityEvent_3Proxy12CleanupProxyEv
3707:__ZN9Scripting11UnityEngine6Events17UnityEvent_2Proxy9InitProxyEv
3708:__ZN9Scripting11UnityEngine6Events17UnityEvent_2Proxy12CleanupProxyEv
3709:__ZN9Scripting11UnityEngine6Events17UnityEvent_1Proxy9InitProxyEv
3710:__ZN9Scripting11UnityEngine6Events17UnityEvent_1Proxy12CleanupProxyEv
3711:__ZN9Scripting11UnityEngine6Events15UnityEventProxy9InitProxyEv
3712:__ZN9Scripting11UnityEngine6Events15UnityEventProxy12CleanupProxyEv
3713:__ZN9Scripting11UnityEngine6Events19UnityEventBaseProxy9InitProxyEv
3714:__ZN9Scripting11UnityEngine6Events19UnityEventBaseProxy12CleanupProxyEv
3715:__ZN9Scripting11UnityEngine13EnumInfoProxy9InitProxyEv
3716:__ZN9Scripting11UnityEngine13EnumInfoProxy12CleanupProxyEv
3717:__ZN9Scripting11UnityEngine12DisplayProxy9InitProxyEv
3718:__ZN9Scripting11UnityEngine12DisplayProxy12CleanupProxyEv
3719:__ZN9Scripting11UnityEngine30DisallowMultipleComponentProxy9InitProxyEv
3720:__ZN9Scripting11UnityEngine30DisallowMultipleComponentProxy12CleanupProxyEv
3721:__ZN9Scripting11UnityEngine21DiagnosticSwitchProxy9InitProxyEv
3722:__ZN9Scripting11UnityEngine21DiagnosticSwitchProxy12CleanupProxyEv
3723:__ZN9Scripting11UnityEngine26DefaultExecutionOrderProxy9InitProxyEv
3724:__ZN9Scripting11UnityEngine26DefaultExecutionOrderProxy12CleanupProxyEv
3725:__ZN9Scripting11UnityEngine10DebugProxy9InitProxyEv
3726:__ZN9Scripting11UnityEngine10DebugProxy12CleanupProxyEv
3727:__ZN9Scripting11UnityEngine34CustomRenderTextureUpdateZoneProxy9InitProxyEv
3728:__ZN9Scripting11UnityEngine34CustomRenderTextureUpdateZoneProxy12CleanupProxyEv
3729:__ZN9Scripting11UnityEngine24CustomRenderTextureProxy9InitProxyEv
3730:__ZN9Scripting11UnityEngine24CustomRenderTextureProxy12CleanupProxyEv
3731:__ZN9Scripting11UnityEngine18RenderTextureProxy9InitProxyEv
3732:__ZN9Scripting11UnityEngine18RenderTextureProxy12CleanupProxyEv
3733:__ZN9Scripting11UnityEngine17CullingGroupProxy9InitProxyEv
3734:__ZN9Scripting11UnityEngine17CullingGroupProxy12CleanupProxyEv
3735:__ZN9Scripting11UnityEngine17CubemapArrayProxy9InitProxyEv
3736:__ZN9Scripting11UnityEngine17CubemapArrayProxy12CleanupProxyEv
3737:__ZN9Scripting11UnityEngine12CubemapProxy9InitProxyEv
3738:__ZN9Scripting11UnityEngine12CubemapProxy12CleanupProxyEv
3739:__ZN9Scripting11UnityEngine12TextureProxy9InitProxyEv
3740:__ZN9Scripting11UnityEngine12TextureProxy12CleanupProxyEv
3741:__ZN9Scripting11UnityEngine14CoroutineProxy9InitProxyEv
3742:__ZN9Scripting11UnityEngine14CoroutineProxy12CleanupProxyEv
3743:__ZN9Scripting11UnityEngine16ContextMenuProxy9InitProxyEv
3744:__ZN9Scripting11UnityEngine16ContextMenuProxy12CleanupProxyEv
3745:__ZN9Scripting11UnityEngine18ComputeShaderProxy9InitProxyEv
3746:__ZN9Scripting11UnityEngine18ComputeShaderProxy12CleanupProxyEv
3747:__ZN9Scripting11UnityEngine18ComputeBufferProxy9InitProxyEv
3748:__ZN9Scripting11UnityEngine18ComputeBufferProxy12CleanupProxyEv
3749:__ZN9Scripting11UnityEngine15ColorGamutProxy9InitProxyEv
3750:__ZN9Scripting11UnityEngine15ColorGamutProxy12CleanupProxyEv
3751:__ZN9Scripting11UnityEngine12Color32Proxy9InitProxyEv
3752:__ZN9Scripting11UnityEngine12Color32Proxy12CleanupProxyEv
3753:__ZN9Scripting11UnityEngine10ColorProxy9InitProxyEv
3754:__ZN9Scripting11UnityEngine10ColorProxy12CleanupProxyEv
3755:__ZN9Scripting11UnityEngine28ClassLibraryInitializerProxy9InitProxyEv
3756:__ZN9Scripting11UnityEngine28ClassLibraryInitializerProxy12CleanupProxyEv
3757:__ZN9Scripting11UnityEngine11CameraProxy9InitProxyEv
3758:__ZN9Scripting11UnityEngine11CameraProxy12CleanupProxyEv
3759:__ZN9Scripting11UnityEngine15CacheIndexProxy9InitProxyEv
3760:__ZN9Scripting11UnityEngine15CacheIndexProxy12CleanupProxyEv
3761:__ZN9Scripting11UnityEngine22CachedAssetBundleProxy9InitProxyEv
3762:__ZN9Scripting11UnityEngine22CachedAssetBundleProxy12CleanupProxyEv
3763:__ZN9Scripting11UnityEngine14BoundsIntProxy9InitProxyEv
3764:__ZN9Scripting11UnityEngine14BoundsIntProxy12CleanupProxyEv
3765:__ZN9Scripting11UnityEngine11BoundsProxy9InitProxyEv
3766:__ZN9Scripting11UnityEngine11BoundsProxy12CleanupProxyEv
3767:__ZN9Scripting11UnityEngine12Vector3Proxy9InitProxyEv
3768:__ZN9Scripting11UnityEngine12Vector3Proxy12CleanupProxyEv
3769:__ZN9Scripting11UnityEngine19BootConfigDataProxy9InitProxyEv
3770:__ZN9Scripting11UnityEngine19BootConfigDataProxy12CleanupProxyEv
3771:__ZN9Scripting11UnityEngine16BoneWeight1Proxy9InitProxyEv
3772:__ZN9Scripting11UnityEngine16BoneWeight1Proxy12CleanupProxyEv
3773:__ZN9Scripting11UnityEngine15BoneWeightProxy9InitProxyEv
3774:__ZN9Scripting11UnityEngine15BoneWeightProxy12CleanupProxyEv
3775:__ZN9Scripting11UnityEngine14BehaviourProxy9InitProxyEv
3776:__ZN9Scripting11UnityEngine14BehaviourProxy12CleanupProxyEv
3777:__ZN9Scripting11UnityEngine14ComponentProxy9InitProxyEv
3778:__ZN9Scripting11UnityEngine14ComponentProxy12CleanupProxyEv
3779:__ZN9Scripting11UnityEngine11ObjectProxy9InitProxyEv
3780:__ZN9Scripting11UnityEngine11ObjectProxy12CleanupProxyEv
3781:__ZN9Scripting11UnityEngine26AttributeHelperEngineProxy9InitProxyEv
3782:__ZN9Scripting11UnityEngine26AttributeHelperEngineProxy12CleanupProxyEv
3783:__ZN9Scripting11UnityEngine19AsyncOperationProxy9InitProxyEv
3784:__ZN9Scripting11UnityEngine19AsyncOperationProxy12CleanupProxyEv
3785:__ZN9Scripting11UnityEngine21YieldInstructionProxy9InitProxyEv
3786:__ZN9Scripting11UnityEngine21YieldInstructionProxy12CleanupProxyEv
3787:__ZN9Scripting11UnityEngine29AssemblyIsEditorAssemblyProxy9InitProxyEv
3788:__ZN9Scripting11UnityEngine29AssemblyIsEditorAssemblyProxy12CleanupProxyEv
3789:__ZN9Scripting11UnityEngine16ApplicationProxy9InitProxyEv
3790:__ZN9Scripting11UnityEngine16ApplicationProxy12CleanupProxyEv
3791:__ZN9Scripting11UnityEngine19AnimationCurveProxy9InitProxyEv
3792:__ZN9Scripting11UnityEngine19AnimationCurveProxy12CleanupProxyEv
3793:__ZN9Scripting11UnityEngine7Android15PermissionProxy9InitProxyEv
3794:__ZN9Scripting11UnityEngine7Android15PermissionProxy12CleanupProxyEv
3795:__ZN9Scripting11UnityEngine10_Scripting11APIUpdating29APIUpdaterRuntimeHelpersProxy9InitProxyEv
3796:__ZN9Scripting11UnityEngine10_Scripting11APIUpdating29APIUpdaterRuntimeHelpersProxy12CleanupProxyEv
3797:__ZN9Scripting5Unity9Profiling14ProfilerMarker14AutoScopeProxy9InitProxyEv
3798:__ZN9Scripting5Unity9Profiling14ProfilerMarker14AutoScopeProxy12CleanupProxyEv
3799:__ZN9Scripting5Unity9Profiling19ProfilerMarkerProxy9InitProxyEv
3800:__ZN9Scripting5Unity9Profiling19ProfilerMarkerProxy12CleanupProxyEv
3801:__ZN9Scripting5Unity11Collections23WriteOnlyAttributeProxy9InitProxyEv
3802:__ZN9Scripting5Unity11Collections23WriteOnlyAttributeProxy12CleanupProxyEv
3803:__ZN9Scripting5Unity11Collections22ReadOnlyAttributeProxy9InitProxyEv
3804:__ZN9Scripting5Unity11Collections22ReadOnlyAttributeProxy12CleanupProxyEv
3805:__ZN9Scripting5Unity11Collections44NativeMatchesParallelForLengthAttributeProxy9InitProxyEv
3806:__ZN9Scripting5Unity11Collections44NativeMatchesParallelForLengthAttributeProxy12CleanupProxyEv
3807:__ZN9Scripting5Unity11Collections31NativeFixedLengthAttributeProxy9InitProxyEv
3808:__ZN9Scripting5Unity11Collections31NativeFixedLengthAttributeProxy12CleanupProxyEv
3809:__ZN9Scripting5Unity11Collections49NativeDisableParallelForRestrictionAttributeProxy9InitProxyEv
3810:__ZN9Scripting5Unity11Collections49NativeDisableParallelForRestrictionAttributeProxy12CleanupProxyEv
3811:__ZN9Scripting5Unity11Collections8LowLevel6Unsafe34NativeSetThreadIndexAttributeProxy9InitProxyEv
3812:__ZN9Scripting5Unity11Collections8LowLevel6Unsafe34NativeSetThreadIndexAttributeProxy12CleanupProxyEv
3813:__ZN9Scripting5Unity11Collections8LowLevel6Unsafe48NativeSetClassTypeToNullOnScheduleAttributeProxy9InitProxyEv
3814:__ZN9Scripting5Unity11Collections8LowLevel6Unsafe48NativeSetClassTypeToNullOnScheduleAttributeProxy12CleanupProxyEv
3815:__ZN9Scripting5Unity11Collections8LowLevel6Unsafe47NativeDisableUnsafePtrRestrictionAttributeProxy9InitProxyEv
3816:__ZN9Scripting5Unity11Collections8LowLevel6Unsafe47NativeDisableUnsafePtrRestrictionAttributeProxy12CleanupProxyEv
3817:__ZN9Scripting5Unity11Collections8LowLevel6Unsafe53NativeDisableContainerSafetyRestrictionAttributeProxy9InitProxyEv
3818:__ZN9Scripting5Unity11Collections8LowLevel6Unsafe53NativeDisableContainerSafetyRestrictionAttributeProxy12CleanupProxyEv
3819:__ZN9Scripting5Unity11Collections8LowLevel6Unsafe59NativeContainerSupportsMinMaxWriteRestrictionAttributeProxy9InitProxyEv
3820:__ZN9Scripting5Unity11Collections8LowLevel6Unsafe59NativeContainerSupportsMinMaxWriteRestrictionAttributeProxy12CleanupProxyEv
3821:__ZN9Scripting5Unity11Collections8LowLevel6Unsafe54NativeContainerSupportsDeferredConvertListToArrayProxy9InitProxyEv
3822:__ZN9Scripting5Unity11Collections8LowLevel6Unsafe54NativeContainerSupportsDeferredConvertListToArrayProxy12CleanupProxyEv
3823:__ZN9Scripting5Unity11Collections8LowLevel6Unsafe62NativeContainerSupportsDeallocateOnJobCompletionAttributeProxy9InitProxyEv
3824:__ZN9Scripting5Unity11Collections8LowLevel6Unsafe62NativeContainerSupportsDeallocateOnJobCompletionAttributeProxy12CleanupProxyEv
3825:__ZN9Scripting5Unity11Collections8LowLevel6Unsafe45NativeContainerNeedsThreadIndexAttributeProxy9InitProxyEv
3826:__ZN9Scripting5Unity11Collections8LowLevel6Unsafe45NativeContainerNeedsThreadIndexAttributeProxy12CleanupProxyEv
3827:__ZN9Scripting5Unity11Collections8LowLevel6Unsafe39NativeContainerIsReadOnlyAttributeProxy9InitProxyEv
3828:__ZN9Scripting5Unity11Collections8LowLevel6Unsafe39NativeContainerIsReadOnlyAttributeProxy12CleanupProxyEv
3829:__ZN9Scripting5Unity11Collections8LowLevel6Unsafe46NativeContainerIsAtomicWriteOnlyAttributeProxy9InitProxyEv
3830:__ZN9Scripting5Unity11Collections8LowLevel6Unsafe46NativeContainerIsAtomicWriteOnlyAttributeProxy12CleanupProxyEv
3831:__ZN9Scripting5Unity11Collections8LowLevel6Unsafe29NativeContainerAttributeProxy9InitProxyEv
3832:__ZN9Scripting5Unity11Collections8LowLevel6Unsafe29NativeContainerAttributeProxy12CleanupProxyEv
3833:__ZN9Scripting5Unity11Collections39DeallocateOnJobCompletionAttributeProxy9InitProxyEv
3834:__ZN9Scripting5Unity11Collections39DeallocateOnJobCompletionAttributeProxy12CleanupProxyEv
3835:__ZN9Scripting5Unity11Collections14AllocatorProxy9InitProxyEv
3836:__ZN9Scripting5Unity11Collections14AllocatorProxy12CleanupProxyEv
3837:__ZN10BufferGLESD2Ev
3838:__ZN10BufferGLESD0Ev
3839:__ZN17BufferManagerGLES13ReleaseBufferEP14DataBufferGLES
3840:__ZN13GfxDeviceGLESD2Ev
3841:__ZN13GfxDeviceGLESD0Ev
3842:__ZN13GfxDeviceGLES15InvalidateStateEv
3843:__ZN13GfxDeviceGLES18BeforePluginRenderEv
3844:__ZN13GfxDeviceGLES17AfterPluginRenderEv
3845:__ZNK13GfxDeviceGLES14GetDeviceLevelEv
3846:__ZN9GfxDevice13SetActiveTierE12GraphicsTier
3847:__ZN9GfxDevice20SetMaxBufferedFramesEi
3848:__ZN13GfxDeviceGLES5ClearE13GfxClearFlagsRK10ColorRGBAffj
3849:__ZN13GfxDeviceGLES19RenderTargetBarrierEv
3850:__ZN9GfxDevice29GetMinimumNodesPerGraphicsJobEv
3851:__ZN13GfxDeviceGLES16CreateBlendStateERK13GfxBlendState
3852:__ZN13GfxDeviceGLES16CreateDepthStateERK13GfxDepthState
3853:__ZN13GfxDeviceGLES18CreateStencilStateERK15GfxStencilState
3854:__ZN13GfxDeviceGLES17CreateRasterStateERK14GfxRasterState
3855:__ZN13GfxDeviceGLES13SetBlendStateEPK16DeviceBlendState
3856:__ZN13GfxDeviceGLES14SetRasterStateEPK17DeviceRasterState
3857:__ZN13GfxDeviceGLES13SetDepthStateEPK16DeviceDepthState
3858:__ZN13GfxDeviceGLES15SetStencilStateEPK18DeviceStencilStatei
3859:__ZN9GfxDevice34SetStencilRefWhenStencilWasSkippedEi
3860:__ZN13GfxDeviceGLES12SetSRGBWriteEb
3861:__ZN13GfxDeviceGLES12GetSRGBWriteEv
3862:__ZN13GfxDeviceGLES19SetUserBackfaceModeEb
3863:__ZN13GfxDeviceGLES16SetForceCullModeE8CullMode
3864:__ZN9GfxDevice21SetWorldMatrixAndTypeERK10Matrix4x4f13TransformType
3865:__ZN13GfxDeviceGLES14SetWorldMatrixERK10Matrix4x4f
3866:__ZN13GfxDeviceGLES13SetViewMatrixERK10Matrix4x4f
3867:__ZN13GfxDeviceGLES19SetProjectionMatrixERK10Matrix4x4f
3868:__ZN13GfxDeviceGLES26UpdateViewProjectionMatrixEv
3869:__ZN9GfxDevice32UpdateStereoViewProjectionMatrixE21MonoOrStereoscopicEye
3870:__ZN9GfxDevice15SetStereoMatrixE21MonoOrStereoscopicEye24BuiltinShaderMatrixParamRK10Matrix4x4f
3871:__ZN9GfxDevice15GetStereoMatrixE21MonoOrStereoscopicEye24BuiltinShaderMatrixParamR10Matrix4x4f
3872:__ZN9GfxDevice17SetStereoViewportE15StereoscopicEyeRK5RectTIiE
3873:__ZN9GfxDevice21SetStereoScissorRectsEPK5RectTIiE
3874:__ZN9GfxDevice26SetSinglePassStereoEyeMaskE13TargetEyeMask
3875:__ZN9GfxDevice19SaveStereoConstantsEv
3876:__ZN9GfxDevice22RestoreStereoConstantsEv
3877:__ZNK9GfxDevice18GetWorldViewMatrixEv
3878:__ZNK9GfxDevice14GetWorldMatrixEv
3879:__ZNK9GfxDevice13GetViewMatrixEv
3880:__ZNK9GfxDevice19GetProjectionMatrixEv
3881:__ZNK9GfxDevice25GetDeviceProjectionMatrixEv
3882:__ZNK9GfxDevice31CalculateDeviceProjectionMatrixER10Matrix4x4fbb
3883:__ZN13GfxDeviceGLES15SetBackfaceModeEb
3884:__ZN13GfxDeviceGLES11SetViewportERK5RectTIiE
3885:__ZNK13GfxDeviceGLES11GetViewportEv
3886:__ZNK9GfxDevice27GetPlatformAdjustedViewportEv
3887:__ZN13GfxDeviceGLES14SetScissorRectERK5RectTIiE
3888:__ZN13GfxDeviceGLES14DisableScissorEv
3889:__ZNK13GfxDeviceGLES16IsScissorEnabledEv
3890:__ZNK13GfxDeviceGLES14GetScissorRectEv
3891:__ZN13GfxDeviceGLES11SetTexturesE10ShaderTypeiPK15GfxTextureParam
3892:__ZN9GfxDevice11SetSamplersE10ShaderTypeiPK15GfxSamplerParam
3893:__ZN13GfxDeviceGLES24SetTextureSamplingParamsE9TextureIDRK24GfxTextureSamplingParams
3894:__ZN13GfxDeviceGLES25SetShaderPropertiesCopiedERK19ShaderPropertySheet
3895:__ZN9GfxDevice25SetShaderPropertiesSharedERK19ShaderPropertySheet
3896:__ZN9GfxDevice16CreateGpuProgramE20ShaderGpuProgramTypeRK13dynamic_arrayIhLm0EER22CreateGpuProgramOutput
3897:__ZN19GfxThreadableDevice20SetShadersMainThreadERKN9ShaderLab11SubProgramsEPK19ShaderPropertySheetS6_
3898:__ZNK13GfxDeviceGLES14IsShaderActiveE10ShaderType
3899:__ZN13GfxDeviceGLES17DestroySubProgramEPN9ShaderLab10SubProgramE
3900:__ZN13GfxDeviceGLES17DestroyGpuProgramEPK10GpuProgram
3901:__ZN13GfxDeviceGLES20UpdateConstantBufferE5CbKeyPKvm
3902:__ZN13GfxDeviceGLES38AdjustInstancingConstantBufferBindingsEPK5CbKeyS2_mj
3903:__ZN9GfxDevice18MapConstantBuffersEPPvPK5CbKeyPmm
3904:__ZN9GfxDevice20UnmapConstantBuffersER8JobFencePPvPK5CbKeyPmm
3905:__ZN13GfxDeviceGLES22AllocateBufferInternalERK13GfxBufferDesc
3906:__ZN13GfxDeviceGLES24InitializeBufferInternalEP9GfxBufferPKv20GfxUpdateBufferFlags
3907:__ZN9GfxDevice22CreateDynamicVBOBufferERP23DynamicVBOScratchMemorym15GfxBufferTarget13GfxBufferMode
3908:__ZN9GfxDevice23ReserveDynamicVBOBufferEP23DynamicVBOScratchMemoryP9GfxBufferj
3909:__ZN9GfxDevice26BeginDynamicVBOBufferWriteEP9GfxBuffer
3910:__ZN13GfxDeviceGLES12UpdateBufferEP9GfxBufferPKv20GfxUpdateBufferFlags
3911:__ZN9GfxDevice18UpdateBufferRangesEP9GfxBufferPK20GfxUpdateBufferRangeimm20GfxUpdateBufferFlags
3912:__ZN13GfxDeviceGLES16BeginBufferWriteEP9GfxBuffermm
3913:__ZN13GfxDeviceGLES14EndBufferWriteEP9GfxBufferm
3914:__ZN13GfxDeviceGLES12DeleteBufferEP9GfxBuffer
3915:__ZN13GfxDeviceGLES20DrawBuffersBatchModeERK14GfxBatchHeader
3916:__ZN13GfxDeviceGLES20GetVertexDeclarationERK18VertexChannelsInfo
3917:__ZN9GfxDevice22GetDefaultVertexBufferE26GfxDefaultVertexBufferTypem
3918:__ZN13GfxDeviceGLES11DrawBuffersEP9GfxBufferjPKS1_PKjiPK16DrawBuffersRangeiP17VertexDeclaration
3919:__ZN13GfxDeviceGLES19DrawBuffersIndirectEP9GfxBufferjPKS1_PKjiP17VertexDeclaration16GfxPrimitiveType15ComputeBufferIDj
3920:__ZN9GfxDevice28AcquireSharedDynamicVBOChunkE15GfxBufferTargetmj
3921:__ZN9GfxDevice22DrawSharedGeometryJobsERK16DynamicVBOBufferjS2_j16GeometryJobFencePK16DrawBuffersRangemP17VertexDeclaration
3922:__ZN9GfxDevice28ScheduleGeometryJobsInternalEPFvP15GeometryJobDataEPK22GeometryJobInstructionj
3923:__ZN9GfxDevice34ScheduleSharedGeometryJobsInternalE16GeometryJobFencePFvP21SharedGeometryJobDatajEPFvS2_EPFvRK8JobFenceES2_jPK16DynamicVBOBufferSE_
3924:__ZN9GfxDevice19PutGeometryJobFenceER16GeometryJobFence
3925:__ZN9GfxDevice16EndAsyncJobFrameEv
3926:__ZN9GfxDevice19EndGeometryJobFrameEv
3927:__ZN9GfxDevice20BeginDynamicBatchingE17ShaderChannelMaskS0_jP17VertexDeclarationmm16GfxPrimitiveType
3928:__ZN9GfxDevice16DynamicBatchMeshERK10Matrix4x4fPKhjjPKtj26GfxTransformVerticesParams25GfxTransformVerticesFlagsj
3929:__ZN9GfxDevice18EndDynamicBatchingE13TransformType
3930:__ZN9GfxDevice14AddSetPassStatEv
3931:__ZN9GfxDevice21ReleaseSharedMeshDataEPK14SharedMeshData
3932:__ZN9GfxDevice24ReleaseSharedTextureDataEPK17SharedTextureData
3933:__ZN9GfxDevice25ReleaseAsyncCommandHeaderEPN21GfxDeviceAsyncCommand3ArgE
3934:__ZN9GfxDevice23CreateGPUSkinPoseBufferEv
3935:__ZN9GfxDevice9SkinOnGPUEPKP9GfxBufferiP17GPUSkinPoseBufferS1_iiP17VertexDeclaration17ShaderChannelMask
3936:__ZN9GfxDevice15ComputeSkinningEPKP9GfxBufferiS1_S1_ii17ShaderChannelMask
3937:__ZN9GfxDevice15ApplyBlendShapeEP9GfxBufferS1_ii17ShaderChannelMaskf
3938:__ZN9GfxDevice27UpdateComputeSkinPoseBufferEP9GfxBufferP20MatrixArrayJobOutput
3939:__ZN9GfxDevice24CreateRenderColorSurfaceE9TextureIDiiii16TextureDimension14GraphicsFormat18SurfaceCreateFlags
3940:__ZN9GfxDevice24CreateRenderColorSurfaceE9TextureIDiiiii16TextureDimension14GraphicsFormat18SurfaceCreateFlags
3941:__ZN9GfxDevice24CreateRenderDepthSurfaceE9TextureIDiiii16TextureDimension17DepthBufferFormat18SurfaceCreateFlags
3942:__ZN9GfxDevice20CreateStencilTextureE9TextureIDR12ObjectHandleI17RenderSurface_TagP17RenderSurfaceBaseE14GraphicsFormat
3943:__ZN9GfxDevice20DestroyRenderSurfaceER12ObjectHandleI17RenderSurface_TagP17RenderSurfaceBaseE
3944:__ZN13GfxDeviceGLES19ResolveColorSurfaceE12ObjectHandleI17RenderSurface_TagP17RenderSurfaceBaseES4_
3945:__ZN13GfxDeviceGLES23ResolveDepthIntoTextureE12ObjectHandleI17RenderSurface_TagP17RenderSurfaceBaseES4_
3946:__ZN13GfxDeviceGLES15DiscardContentsER12ObjectHandleI17RenderSurface_TagP17RenderSurfaceBaseE
3947:__ZNK13GfxDeviceGLES27GetActiveRenderColorSurfaceEi
3948:__ZNK13GfxDeviceGLES27GetActiveRenderDepthSurfaceEv
3949:__ZNK13GfxDeviceGLES26GetActiveRenderTargetCountEv
3950:__ZNK9GfxDevice22GetActiveRenderTargetsERA8_12ObjectHandleI17RenderSurface_TagP17RenderSurfaceBaseERS4_
3951:__ZNK9GfxDevice27GetActiveRenderSurfaceWidthEv
3952:__ZNK9GfxDevice28GetActiveRenderSurfaceHeightEv
3953:__ZNK9GfxDevice23IsRenderingToBackBufferEv
3954:__ZN9GfxDevice25GetBackBufferColorSurfaceEv
3955:__ZN9GfxDevice25GetBackBufferDepthSurfaceEv
3956:__ZN13GfxDeviceGLES30SetBackBufferColorDepthSurfaceEP17RenderSurfaceBaseS1_
3957:__ZN13GfxDeviceGLES29RenderSurfaceStructMemorySizeEb
3958:__ZN9GfxDevice18AllocRenderSurfaceEb
3959:__ZN9GfxDevice20DeallocRenderSurfaceEP17RenderSurfaceBase
3960:__ZN13GfxDeviceGLES32CreateColorRenderSurfacePlatformEP17RenderSurfaceBase14GraphicsFormat
3961:__ZN13GfxDeviceGLES32CreateDepthRenderSurfacePlatformEP17RenderSurfaceBase17DepthBufferFormat
3962:__ZN9GfxDevice46SwitchColorRenderSurfaceIntoFastMemoryPlatformEP17RenderSurfaceBase12SurfaceUsage15FastMemoryFlagsbf
3963:__ZN9GfxDevice46SwitchDepthRenderSurfaceIntoFastMemoryPlatformEP17RenderSurfaceBaseb12SurfaceUsage15FastMemoryFlagsbf
3964:__ZN9GfxDevice19ResizeRenderSurfaceEP17RenderSurfaceBaseff
3965:__ZN13GfxDeviceGLES28DestroyRenderSurfacePlatformEP17RenderSurfaceBase
3966:__ZN9GfxDevice25CreateStencilViewPlatformE9TextureIDP17RenderSurfaceBase14GraphicsFormat
3967:__ZN9GfxDevice21CopyRenderSurfaceDescEP17RenderSurfaceBasePKS0_
3968:__ZN13GfxDeviceGLES26AliasRenderSurfacePlatformEP17RenderSurfaceBase9TextureID
3969:__ZN9GfxDevice15CreateTextureIDEv
3970:__ZN13GfxDeviceGLES23CreateTextureIdIfNeededEP17RenderSurfaceBase
3971:__ZN9GfxDevice13FreeTextureIDE9TextureID
3972:__ZN13GfxDeviceGLES21RegisterNativeTextureE9TextureIDl16TextureDimension
3973:__ZN13GfxDeviceGLES23UnregisterNativeTextureE9TextureID
3974:__ZN9GfxDevice21TransferNativeTextureE16TextureDimension9TextureIDS1_
3975:__ZN9GfxDevice26CanCreateTexture2DThreadedE9TextureID16TextureDimensionii14GraphicsFormatR31ThreadedTextureCreationSettings
3976:__ZN9GfxDevice23CreateTexture2DThreadedE9TextureID16TextureDimensionPKhiii14GraphicsFormati18TextureUploadFlags16TextureUsageMode
3977:__ZN9GfxDevice28AcquireTexture2DUploadMemoryER17TextureCreateDataRP19TextureUploadMemory
3978:__ZN13GfxDeviceGLES15UploadTexture2DE9TextureID16TextureDimensionPKhiii14GraphicsFormati18TextureUploadFlags16TextureUsageMode
3979:__ZN13GfxDeviceGLES22UploadTextureSubData2DE9TextureIDPKhiiiiii14GraphicsFormat18TextureUploadFlags
3980:__ZN13GfxDeviceGLES17UploadTextureCubeE9TextureIDPKhiii14GraphicsFormati18TextureUploadFlags
3981:__ZN13GfxDeviceGLES15UploadTexture3DE9TextureIDPKhiiii14GraphicsFormati18TextureUploadFlags
3982:__ZN13GfxDeviceGLES13DeleteTextureE9TextureID
3983:__ZN13GfxDeviceGLES20UploadTexture2DArrayE9TextureIDPKhmiii14GraphicsFormati18TextureUploadFlags
3984:__ZN13GfxDeviceGLES22UploadTextureCubeArrayE9TextureIDPKhmii14GraphicsFormati18TextureUploadFlags
3985:__ZN13GfxDeviceGLES25GenerateRenderSurfaceMipsEP17RenderSurfaceBase
3986:__ZN13GfxDeviceGLES11CopyTextureE9TextureIDS0_
3987:__ZN13GfxDeviceGLES11CopyTextureE9TextureIDiiiS0_iii
3988:__ZN13GfxDeviceGLES11CopyTextureE9TextureIDiiiiiiiiiS0_iiiiii
3989:__ZN13GfxDeviceGLES19CreateSparseTextureE9TextureIDii14GraphicsFormati
3990:__ZN13GfxDeviceGLES23UploadSparseTextureTileE9TextureIDiiiPKhii
3991:__ZN13GfxDeviceGLES18EndBatchModeUpdateEv
3992:__ZN13GfxDeviceGLES10BeginFrameEv
3993:__ZN13GfxDeviceGLES8EndFrameEv
3994:__ZN9GfxDevice15ExecuteCallbackEPFvRS_23GfxDeviceCallbackThreadE
3995:__ZN13GfxDeviceGLES12PresentFrameEv
3996:__ZN9GfxDevice12PresentFrameE17ShaderChannelMask
3997:__ZN13GfxDeviceGLES12IsValidStateEv
3998:__ZN13GfxDeviceGLES18HandleInvalidStateEv
3999:__ZN13GfxDeviceGLES5FlushEv
4000:__ZN13GfxDeviceGLES15FinishRenderingEv
4001:__ZN13GfxDeviceGLES22AcquireThreadOwnershipEv
4002:__ZN13GfxDeviceGLES22ReleaseThreadOwnershipEv
4003:__ZN9GfxDevice15ImmediateVertexEfff
4004:__ZN9GfxDevice15ImmediateNormalEfff
4005:__ZN9GfxDevice14ImmediateColorEffff
4006:__ZN9GfxDevice20ImmediateTexCoordAllEfff
4007:__ZN9GfxDevice17ImmediateTexCoordEifff
4008:__ZN9GfxDevice14ImmediateBeginE16GfxPrimitiveType16VertexInputMasks
4009:__ZN9GfxDevice12ImmediateEndEv
4010:__ZN9GfxDevice12EndRecordingEPP14GfxDisplayListRK19ShaderPropertySheet
4011:__ZN13GfxDeviceGLES17CaptureScreenshotEiiiiPh
4012:__ZN13GfxDeviceGLES13ReadbackImageER14ImageReferenceiiiiii
4013:__ZN13GfxDeviceGLES21GrabIntoRenderTextureE12ObjectHandleI17RenderSurface_TagP17RenderSurfaceBaseES4_iiii
4014:__ZN13GfxDeviceGLES14BeforeDrawCallEv
4015:__ZN13GfxDeviceGLES16SetActiveContextEPv
4016:__ZN9GfxDevice15ResetFrameStatsEv
4017:__ZN9GfxDevice15BeginFrameStatsEv
4018:__ZN9GfxDevice13EndFrameStatsEv
4019:__ZN9GfxDevice13SaveDrawStatsEv
4020:__ZN9GfxDevice16RestoreDrawStatsEv
4021:__ZN9GfxDevice18SetGlobalDepthBiasEff
4022:__ZNK9GfxDevice18GetGlobalDepthBiasERfS0_
4023:__ZN13GfxDeviceGLES14SetTextureNameE9TextureIDPKc
4024:__ZN13GfxDeviceGLES20SetRenderSurfaceNameEP17RenderSurfaceBasePKc
4025:__ZN13GfxDeviceGLES13SetBufferNameEP9GfxBufferPKc
4026:__ZN13GfxDeviceGLES17SetGpuProgramNameEP10GpuProgramPKc
4027:__ZN13GfxDeviceGLES23GetNativeTexturePointerE9TextureID
4028:__ZN13GfxDeviceGLES22GetNativeBufferPointerEP9GfxBuffer
4029:__ZN9GfxDevice33InsertCustomMarkerCallbackAndDataEPFviPvEiS0_m
4030:__ZN9GfxDevice31InsertCustomBlitCallbackAndDataEPFviPvER33UnityRenderingExtCustomBlitParams
4031:__ZN13GfxDeviceGLES33InsertPluginTextureUpdateCallbackEPFviPvER44UnityRenderingExtTextureUpdateParamsInternal
4032:__ZN9GfxDevice18InsertCustomMarkerEi
4033:__ZN9GfxDevice26InsertCustomMarkerCallbackEPFviEi
4034:__ZN9GfxDevice21CreateComputeBufferIDEv
4035:__ZN13GfxDeviceGLES20SetComputeBufferDataEP9GfxBufferPKvmm
4036:__ZN13GfxDeviceGLES20GetComputeBufferDataEP9GfxBufferPvmm
4037:__ZN13GfxDeviceGLES28SetComputeBufferCounterValueE15ComputeBufferIDj
4038:__ZN13GfxDeviceGLES22CopyComputeBufferCountE15ComputeBufferIDS0_j
4039:__ZN13GfxDeviceGLES10CopyBufferEP9GfxBufferS1_
4040:__ZN9GfxDevice23CreateAsyncReadbackDataEv
4041:__ZN9GfxDevice23DeleteAsyncReadbackDataEP20GfxAsyncReadbackData
4042:__ZN9GfxDevice24RequestAsyncReadbackDataEP20GfxAsyncReadbackDataRK27GfxAsyncReadbackRequestDesc
4043:__ZN13GfxDeviceGLES27SetRandomWriteTargetTextureEi9TextureID
4044:__ZN13GfxDeviceGLES26SetRandomWriteTargetBufferEi15ComputeBufferID
4045:__ZN13GfxDeviceGLES23ClearRandomWriteTargetsEv
4046:__ZNK13GfxDeviceGLES26HasActiveRandomWriteTargetEv
4047:__ZN13GfxDeviceGLES20CreateComputeProgramEPKhmPKc
4048:__ZN13GfxDeviceGLES21DestroyComputeProgramER12ObjectHandleI18ComputeProgram_TagPvE
4049:__ZN13GfxDeviceGLES30ResolveComputeProgramResourcesE12ObjectHandleI18ComputeProgram_TagPvER19ComputeShaderKernelR13dynamic_arrayI15ComputeShaderCBLm0EERS6_I18ComputeShaderParamLm0EEb
4050:__ZN13GfxDeviceGLES28CreateComputeConstantBuffersEjPKjP12ObjectHandleI18ConstantBuffer_TagPvE
4051:__ZN13GfxDeviceGLES29DestroyComputeConstantBuffersEjP12ObjectHandleI18ConstantBuffer_TagPvE
4052:__ZN13GfxDeviceGLES17SetComputeUniformE12ObjectHandleI18ComputeProgram_TagPvER18ComputeShaderParammPKv
4053:__ZN13GfxDeviceGLES28UpdateComputeConstantBuffersEjP12ObjectHandleI18ConstantBuffer_TagPvEjmPKhPKjS8_PKi
4054:__ZN13GfxDeviceGLES22UpdateComputeResourcesERK22ComputeShaderResources
4055:__ZN13GfxDeviceGLES22DispatchComputeProgramE12ObjectHandleI18ComputeProgram_TagPvEjjj
4056:__ZN13GfxDeviceGLES22DispatchComputeProgramE12ObjectHandleI18ComputeProgram_TagPvE15ComputeBufferIDj
4057:__ZN9GfxDevice25DispatchRayTracingProgramER12ObjectHandleI21RayTracingProgram_TagPvEPKcjjj
4058:__ZN9GfxDevice34SetRayTracingShaderConstantBuffersER12ObjectHandleI21RayTracingProgram_TagPvEjPS0_I18ConstantBuffer_TagS2_EjmPKhPKjSB_PKi
4059:__ZN19GfxThreadableDevice37SetGeometryRayTracingShaderMainThreadER12ObjectHandleI21RayTracingProgram_TagPvEjPKN9ShaderLab10SubProgramEPK19ShaderPropertySheetSB_
4060:__ZN13GfxDeviceGLES16DrawNullGeometryE16GfxPrimitiveTypeii
4061:__ZN13GfxDeviceGLES24DrawNullGeometryIndirectE16GfxPrimitiveType15ComputeBufferIDj
4062:__ZN13GfxDeviceGLES23DrawIndexedNullGeometryE16GfxPrimitiveTypeP9GfxBufferiii
4063:__ZN13GfxDeviceGLES31DrawIndexedNullGeometryIndirectE16GfxPrimitiveTypeP9GfxBuffer15ComputeBufferIDj
4064:__ZN13GfxDeviceGLES15SetStereoTargetE15StereoscopicEye
4065:__ZN13GfxDeviceGLES12EndStereoEyeE15StereoscopicEye
4066:__ZN9GfxDevice19SetSinglePassStereoE16SinglePassStereo
4067:__ZN9GfxDevice26SetInstanceCountMultiplierEi
4068:__ZN9GfxDevice19AsyncResourceUploadEiRK26AsyncUploadManagerSettings
4069:__ZN9GfxDevice23SyncAsyncResourceUploadE10AsyncFenceRK26AsyncUploadManagerSettings
4070:__ZNK9GfxDevice16StoreContextDataEP14GfxContextData
4071:__ZN9GfxDevice16ApplyContextDataEPK14GfxContextData
4072:__ZN9GfxDevice19CopyContextDataFromEPKS_
4073:__ZN9GfxDevice20UpdateDeviceThreadIDEy
4074:__ZN9GfxDevice12ExecuteAsyncEiPFvPN21GfxDeviceAsyncCommand10ArgScratchEPKNS0_3ArgEEPS2_S5_RK8JobFence
4075:__ZN9GfxDevice31GetPreparedThreadedDeviceClientEv
4076:__ZN9GfxDevice16SetDebugSettingsERKNS_13DebugSettingsE
4077:__ZN9GfxDevice26UpdateRenderSurfaceWrapperER12ObjectHandleI17RenderSurface_TagP17RenderSurfaceBaseES3_17DepthBufferFormat
4078:__ZN9GfxDevice27CleanupRenderSurfaceWrapperER12ObjectHandleI17RenderSurface_TagP17RenderSurfaceBaseE
4079:__ZN13GfxDeviceGLES14CreateGPUFenceEP17GPUFenceInternals12GPUFenceType20SynchronisationStage
4080:__ZN9GfxDevice27SubmitPresentFrameCallbacksEv
4081:__ZN9GfxDevice19SetPaperWhiteInNitsEf
4082:__ZN13GfxDeviceGLES20SetRenderTargetsImplERK20GfxRenderTargetSetup
4083:__ZNK13GfxDeviceGLES21HasGPUFencePassedImplEPv
4084:__ZN9GfxDevice19BeginRenderPassImplERK15RenderPassSetup
4085:__ZN9GfxDevice15NextSubPassImplEv
4086:__ZN9GfxDevice17EndRenderPassImplEv
4087:__ZN13GfxDeviceGLES20SetShadersThreadableEPP10GpuProgramPPK20GpuProgramParametersPKPKh
4088:__ZN13GfxDeviceGLES4InitE16GfxDeviceLevelGL
4089:__ZN13GfxDeviceGLES19SetViewportPlatformERK5RectTIiE
4090:__ZN13GfxDeviceGLES26EnableScissorRectsPlatformEv
4091:__ZN13GfxDeviceGLES22SetScissorRectPlatformERK5RectTIiE
4092:__ZN13GfxDeviceGLES35UpdateActiveConstantBuffersPlatformE21MonoOrStereoscopicEyeb
4093:__ZN13GfxDeviceGLES24DrawBufferRangesPlatformEP9GfxBufferjPKS1_PKjiPK16DrawBuffersRangeiP17VertexDeclarationmi
4094:__ZN13GfxDeviceGLES16SetUniformBufferEiiii
4095:__ZN13GfxDeviceGLES16SetUniformBufferEi15ComputeBufferIDii
4096:__ZThn9624_N13GfxDeviceGLES19SetViewportPlatformERK5RectTIiE
4097:__ZThn9624_N13GfxDeviceGLES26EnableScissorRectsPlatformEv
4098:__ZThn9624_N13GfxDeviceGLES22SetScissorRectPlatformERK5RectTIiE
4099:__ZThn9624_N13GfxDeviceGLES35UpdateActiveConstantBuffersPlatformE21MonoOrStereoscopicEyeb
4100:__ZThn9624_N13GfxDeviceGLES24DrawBufferRangesPlatformEP9GfxBufferjPKS1_PKjiPK16DrawBuffersRangeiP17VertexDeclarationmi
4101:__ZN13GfxDeviceGLES16DrawBufferRangesEP9GfxBufferjPKS1_PKjiPK16DrawBuffersRangeiP17VertexDeclarationmi
4102:__Z18SetVertexStateGLES17ShaderChannelMaskRK18VertexChannelsInfoPKP9GfxBufferPKjijm
4103:__ZN7ApiGLES22BindElementArrayBufferEj
4104:__ZN7ApiGLES12DrawElementsE16GfxPrimitiveTypePKvjjjj
4105:__ZN7ApiGLES10DrawArraysE16GfxPrimitiveTypejjj
4106:__ZN7ApiGLES20SetVertexArrayAttribEjj12VertexFormathjPKv
4107:__ZN7ApiGLES24DisableVertexArrayAttribEj
4108:__ZN19ConstantBuffersGLES13UpdateBuffersEv
4109:__ZN14DataBufferGLES7ReleaseEv
4110:__Z20GetBufferManagerGLESv
4111:__ZN17BufferManagerGLES13AcquireBufferEmN14DataBufferGLES11BufferUsageEb
4112:__ZN14DataBufferGLES6UploadEmmPKv
4113:__ZN7ApiGLES17BindUniformBufferEjj
4114:__ZN14DataBufferGLES16RecreateWithDataEmPKv
4115:__ZN7ApiGLES19UploadBufferSubDataEjN2gl12BufferTargetEllPKv
4116:__ZN7ApiGLES12CreateBufferEN2gl12BufferTargetElPKvj
4117:__ZN7ApiGLES14RecreateBufferEjN2gl12BufferTargetElPKvj
4118:__ZN7ApiGLES18ClearBufferSubDataEjN2gl12BufferTargetEll
4119:__ZN14DataBufferGLESC2ER17BufferManagerGLESmNS_11BufferUsageEb
4120:__ZN18GfxFramebufferGLES10SetScissorERK5RectTIiE
4121:__ZN18GfxFramebufferGLES11SetViewportERK5RectTIiE
4122:__ZN7ApiGLES17BindUniformBufferEjjll
4123:__ZN11ContextGLES6CreateEi
4124:__ZN7ApiGLES4InitERK14GfxContextGLESR16GfxDeviceLevelGL
4125:__Z7HasARGVRKN4core12basic_stringIcNS_20StringStorageDefaultIcEEEE
4126:__ZN13GfxDeviceGLES15InitCommonStateER15DeviceStateGLES
4127:__ZN26SinglePassStereoSupportExt27InitSinglePassStereoSupportEP21ISinglePassStereoImplP9GfxDevice
4128:__ZN9GfxDevice26CreateDefaultVertexBuffersEv
4129:__Z24PluginsSetGraphicsDevicePvi18GfxDeviceEventType
4130:__ZN9GfxDevice25CreateDefaultVertexBufferE26GfxDefaultVertexBufferTypem
4131:__ZNSt3__26__treeI20DeviceBlendStateGLES14MemoryCompLessI16DeviceBlendStateENS_9allocatorIS1_EEE25__emplace_unique_key_argsIS1_JS1_EEENS_4pairINS_15__tree_iteratorIS1_PNS_11__tree_nodeIS1_PvEElEEbEERKT_DpOT0_
4132:__ZN4gles24InvalidatePipelineStatesERK14GfxContextGLESR15DeviceStateGLES
4133:__ZN7ApiGLES10InvalidateERK14GfxContextGLES
4134:__ZN4gles16CreateBlendStateER15DeviceStateGLESRK13GfxBlendState
4135:__ZN4gles18CreateStencilStateER15DeviceStateGLESRK15GfxStencilState
4136:__ZN4gles17CreateRasterStateER15DeviceStateGLESRK14GfxRasterState
4137:__ZNSt3__26__treeI17DeviceRasterState14MemoryCompLessIS1_ENS_9allocatorIS1_EEE25__emplace_unique_key_argsIS1_JS1_EEENS_4pairINS_15__tree_iteratorIS1_PNS_11__tree_nodeIS1_PvEElEEbEERKT_DpOT0_
4138:__ZNSt3__26__treeI22DeviceStencilStateGLES14MemoryCompLessI18DeviceStencilStateENS_9allocatorIS1_EEE25__emplace_unique_key_argsIS1_JS1_EEENS_4pairINS_15__tree_iteratorIS1_PNS_11__tree_nodeIS1_PvEElEEbEERKT_DpOT0_
4139:__ZN22DeviceStencilStateGLESC2ERK15GfxStencilState
4140:__ZNK14GfxContextGLES21GetDefaultVertexArrayEv
4141:__ZN7ApiGLES13IsVertexArrayEN2gl6HandleILNS0_10ObjectTypeE3EEE
4142:__ZN7ApiGLES17CreateVertexArrayEv
4143:__ZN20DeviceBlendStateGLESC2ERK13GfxBlendState
4144:_glDebugMessageInsert
4145:__ZN7ApiGLES14FillExtensionsER13dynamic_arrayIN4core16basic_string_refIcEELm0EE
4146:__Z20InitializeExtensionsRK13dynamic_arrayIN4core16basic_string_refIcEELm0EE
4147:__ZN7ApiGLES4LoadE16GfxDeviceLevelGL
4148:__ZN4gles8InitCapsEP7ApiGLESP12GraphicsCapsR16GfxDeviceLevelGLRK13dynamic_arrayIN4core16basic_string_refIcEELm0EE
4149:__ZN13TranslateGLES4InitERK12GraphicsCaps16GfxDeviceLevelGL
4150:__ZN4gles23InitRenderTextureAACapsEP7ApiGLESP12GraphicsCaps
4151:__ZN13TranslateGLES10InitFormatERK12GraphicsCaps
4152:__ZN13TranslateGLES18InitTextureSamplerERK12GraphicsCaps
4153:__ZNSt3__26vectorINS_4pairIj16TextureDimensionEENS_9allocatorIS3_EEE6insertENS_11__wrap_iterIPKS3_EEOS3_
4154:__ZNSt3__214__split_bufferINS_4pairIj16TextureDimensionEERNS_9allocatorIS3_EEE9push_backEOS3_
4155:__ZN2gl12GetLevelDescE16GfxDeviceLevelGL
4156:__Z5SplitN4core16basic_string_refIcEEcRNSt3__26vectorINS_12basic_stringIcNS_20StringStorageDefaultIcEEEENS2_9allocatorIS7_EEEEm
4157:__Z19GetExtensionsStringRK13dynamic_arrayIN4core16basic_string_refIcEELm0EE
4158:__Z19DebugTextLineByLinePKci
4159:__ZNK12GraphicsCaps27SupportsFormatUsageReadbackE14GraphicsFormat
4160:__ZN12GraphicsCaps17InitDefaultFormatEv
4161:__ZNK12GraphicsCaps17IsFormatSupportedE14GraphicsFormat11FormatUsage13FormatSupport
4162:__Z19GetActiveColorGamutv
4163:__ZNK12GraphicsCaps17GetGraphicsFormatE13DefaultFormat10ColorSpace
4164:__Z28GetActiveColorGamutNonCachedv
4165:__Z9SplitImplINSt3__26vectorIN4core12basic_stringIcNS2_20StringStorageDefaultIcEEEENS0_9allocatorIS6_EEEEEvNS2_16basic_string_refIcEEcRT_m
4166:__Z10BeginsWithPKcS0_
4167:__ZN18GlslGpuProgramGLES19ApplyGpuProgramGLESEjRK20GpuProgramParametersPKhb
4168:__ZN21GLESGpuProgramApplier10ApplyFloatERKN20GpuProgramParameters14ValueParameterEPKft
4169:__ZN21GLESGpuProgramApplier11ApplyVectorERKN20GpuProgramParameters14ValueParameterEPK8Vector4ft
4170:__ZN21GLESGpuProgramApplier11ApplyMatrixERKN20GpuProgramParameters14ValueParameterEPK10Matrix4x4ft
4171:__ZN19ConstantBuffersGLES6FindCBE5CbKey
4172:__ZN19ConstantBuffersGLES6BindCBEii
4173:__ZN10GpuProgram22ApplyTextureParametersEPKhR9GfxDevice10ShaderType
4174:__ZN13GfxDeviceGLES16SetComputeBufferE15ComputeBufferIDi20ComputeBufferCounterbb
4175:__ZN10GpuProgram22ApplySamplerParametersEPKhR9GfxDevice10ShaderType
4176:__ZN19ConstantBuffersGLES9DisableCBE5CbKey
4177:__Z29TextureIdMapGLES_QueryOrAlloc9TextureID
4178:__ZN7ApiGLES10GenTextureEj
4179:__ZN7ApiGLES19CreateBufferTextureEj14GraphicsFormatj
4180:__ZN4gles10SetTextureER15DeviceStateGLESjjj17InlineSamplerType
4181:__ZN13GfxDeviceGLES15SetImageTextureE9TextureIDii
4182:__ZN7ApiGLES23BindShaderStorageBufferEjj
4183:_glMemoryBarrier
4184:__ZN14DataBufferGLES11CopySubDataEPKS_mmm
4185:__ZN7ApiGLES23BindAtomicCounterBufferEjj
4186:__ZN7ApiGLES17CopyBufferSubDataEjjlll
4187:_glTextureView
4188:_glBindImageTexture
4189:__ZN7ApiGLES17ActiveTextureUnitEj
4190:__ZN7ApiGLES13CreateSamplerEj17TextureFilterMode15TextureWrapModeS1_S1_i17TextureColorSpace
4191:__ZN7ApiGLES11BindSamplerEij
4192:__ZN7ApiGLES11BindTextureEjj
4193:__ZN16GfxResourceIDMap18CreatePageIfNeededEj
4194:__ZN19ConstantBuffersGLES13SetCBConstantEiiPKvi
4195:__ZN10Matrix3x3faSERK10Matrix4x4f
4196:__ZN9GfxDevice16SetRenderTargetsERK20GfxRenderTargetSetup
4197:__ZN7Texture15FindTextureByIDE9TextureID
4198:__ZN19ShaderPropertySheet24SetTextureWithExplicitIDERK23FastTexturePropertyNameP7Texture9TextureID
4199:__ZN13dynamic_arrayIN12_GLOBAL__N_114AttachmentInfoELm0EEC2Em10MemLabelId
4200:__ZNSt3__26vectorIN9GfxDevice14SubPassActionsENS_9allocatorIS2_EEE8__appendEm
4201:__ZNSt3__26vectorIN9GfxDevice14SubPassActionsENS_9allocatorIS2_EEE26__swap_out_circular_bufferERNS_14__split_bufferIS2_RS4_EE
4202:__ZN18GfxFramebufferGLES8ActivateERK20GfxRenderTargetSetup
4203:__ZN18GfxFramebufferGLES11PrepareImplEb
4204:__ZN7ApiGLES6EnableEN2gl10EnabledCapE
4205:__ZN7ApiGLES7DisableEN2gl10EnabledCapE
4206:__ZN18GfxFramebufferGLES22MakeCurrentFramebufferENS_7BuiltinE
4207:__ZN13GfxDeviceGLES21ProcessPendingMipGensEv
4208:__ZN13GfxDeviceGLES16AddPendingMipGenEP17RenderSurfaceBase
4209:__ZN18GfxFramebufferGLES21InvalidateAttachmentsEPKbbbNS_28InvalidateAttachmentsPurposeE
4210:__ZN4gles23ClearCurrentFramebufferEP7ApiGLESbbbRK10ColorRGBAffii
4211:__ZN12_GLOBAL__N_113SetBlendStateER7ApiGLESR15DeviceStateGLESPK20DeviceBlendStateGLESi
4212:__ZN4gles15UpdateDepthTestER15DeviceStateGLESPK20DeviceDepthStateGLESb
4213:__ZN7ApiGLES5ClearEjRK10ColorRGBAfbfi
4214:_glColorMaski
4215:_glBlendFuncSeparatei
4216:_glBlendEquationSeparatei
4217:_glBlendEquationi
4218:__ZN7ApiGLES14GenerateMipmapEjj
4219:__ZN7ApiGLES15BindFramebufferEN2gl17FramebufferTargetENS0_6HandleILNS0_10ObjectTypeE9EEE
4220:__ZN7ApiGLES26BindFramebufferDrawBuffersEN2gl6HandleILNS0_10ObjectTypeE9EEEiPKj
4221:__ZN18GfxFramebufferGLES22EnsureDefaultFBOInitedEv
4222:__ZN18GfxFramebufferGLES18GetFramebufferNameERK20GfxRenderTargetSetup
4223:__ZN7ApiGLES17CreateFramebufferEv
4224:__ZNK21GLESRenderTargetSetupltERKS_
4225:__ZN12_GLOBAL__N_119AttachToFramebufferER7ApiGLESRK20GfxRenderTargetSetupP17RenderSurfaceGLESjP11GLESTexturejb
4226:__ZNK7ApiGLES13GetDebugLabelEN2gl10ObjectTypeEjiPiPc
4227:__ZNK7ApiGLES10DebugLabelEN2gl10ObjectTypeEjPKc
4228:__ZNSt3__26__treeINS_12__value_typeI21GLESRenderTargetSetupN2gl6HandleILNS3_10ObjectTypeE9EEEEENS_19__map_value_compareIS2_S7_NS_4lessIS2_EELb1EEENS_9allocatorIS7_EEE25__emplace_unique_key_argsIS2_JNS_4pairIS2_S6_EEEEENSG_INS_15__tree_iteratorIS7_PNS_11__tree_nodeIS7_PvEElEEbEERKT_DpOT0_
4229:_glFramebufferTexture
4230:_glFramebufferTexture2DMultisampleEXT
4231:__ZNSt3__26__treeINS_12__value_typeI21GLESRenderTargetSetupN2gl6HandleILNS3_10ObjectTypeE9EEEEENS_19__map_value_compareIS2_S7_NS_4lessIS2_EELb1EEENS_9allocatorIS7_EEE25__emplace_unique_key_argsIS2_JRKNS_21piecewise_construct_tENS_5tupleIJOS2_EEENSJ_IJEEEEEENS_4pairINS_15__tree_iteratorIS7_PNS_11__tree_nodeIS7_PvEElEEbEERKT_DpOT0_
4232:__ZN24BuiltinShaderParamValuesC2Ev
4233:__ZN18AsyncUploadManager27AsyncResourceUploadBlockingER9GfxDeviceR10AsyncFenceRK26AsyncUploadManagerSettings
4234:__ZN18AsyncUploadManager19AsyncResourceUploadER9GfxDeviceiRK26AsyncUploadManagerSettings
4235:__ZN18AsyncUploadManager29ScheduleAsyncCommandsInternalEv
4236:__ZN18AsyncUploadManager17ScheduleAsyncReadEP10AtomicNode
4237:__ZN18AsyncUploadManager16AsyncReadSuccessER12AsyncCommand
4238:__ZN14QueueAllocator25ReleasePendingFreedBlocksEv
4239:__Z20AsyncUploadQueueFreeP14QueueAllocator
4240:__ZN18AsyncUploadManager20QueueUploadJobStaticEP10AtomicNode
4241:__ZN18AsyncUploadManager20GetUnusedReadCommandEv
4242:__ZN14QueueAllocator5AllocEj
4243:__ZN18AsyncUploadManager23AsyncReadCallbackStaticER16AsyncReadCommandNS0_6StatusE
4244:__ZN18AsyncUploadManager17AsyncReadCallbackER16AsyncReadCommandNS0_6StatusE
4245:__ZN14QueueAllocatorC2Ej10MemLabelId
4246:__ZN18GfxFramebufferGLES31TryInvalidateDepthStencilBufferEbb
4247:__ZN7ApiGLES20DrawElementsIndirectE16GfxPrimitiveTypejjj
4248:__ZN7ApiGLES18DrawArraysIndirectE16GfxPrimitiveTypejj
4249:__ZN4gles14UseGLSLProgramER15DeviceStateGLESjbij
4250:__ZN13GfxDeviceGLES16DoMemoryBarriersEv
4251:__ZN7ApiGLES16DispatchIndirectEjj
4252:__ZN7ApiGLES11BindProgramEjb
4253:__ZN7ApiGLES16SetPatchVerticesEi
4254:__ZN7ApiGLES16EnableClipPlanesEj
4255:__ZL18ProgramUniform1uivPK7ApiGLESjiihPKv
4256:__ZL18ProgramUniform2uivPK7ApiGLESjiihPKv
4257:__ZL18ProgramUniform3uivPK7ApiGLESjiihPKv
4258:__ZL18ProgramUniform4uivPK7ApiGLESjiihPKv
4259:_glProgramUniform4uiv
4260:_glProgramUniform3uiv
4261:_glProgramUniform2uiv
4262:_glProgramUniform1uiv
4263:__ZL17ProgramUniform1ivPK7ApiGLESjiihPKv
4264:__ZL17ProgramUniform2ivPK7ApiGLESjiihPKv
4265:__ZL17ProgramUniform3ivPK7ApiGLESjiihPKv
4266:__ZL17ProgramUniform4ivPK7ApiGLESjiihPKv
4267:_glProgramUniform4iv
4268:_glProgramUniform3iv
4269:_glProgramUniform2iv
4270:_glProgramUniform1iv
4271:__ZL17ProgramUniform1fvPK7ApiGLESjiihPKv
4272:__ZL17ProgramUniform2fvPK7ApiGLESjiihPKv
4273:__ZL17ProgramUniform3fvPK7ApiGLESjiihPKv
4274:__ZL17ProgramUniform4fvPK7ApiGLESjiihPKv
4275:__ZL23ProgramUniformMatrix2fvPK7ApiGLESjiihPKv
4276:__ZL25ProgramUniformMatrix2x3fvPK7ApiGLESjiihPKv
4277:__ZL25ProgramUniformMatrix2x4fvPK7ApiGLESjiihPKv
4278:__ZL25ProgramUniformMatrix3x2fvPK7ApiGLESjiihPKv
4279:__ZL23ProgramUniformMatrix3fvPK7ApiGLESjiihPKv
4280:__ZL25ProgramUniformMatrix3x4fvPK7ApiGLESjiihPKv
4281:__ZL25ProgramUniformMatrix4x2fvPK7ApiGLESjiihPKv
4282:__ZL25ProgramUniformMatrix4x3fvPK7ApiGLESjiihPKv
4283:__ZL23ProgramUniformMatrix4fvPK7ApiGLESjiihPKv
4284:_glProgramUniformMatrix4fv
4285:_glProgramUniformMatrix4x3fv
4286:_glProgramUniformMatrix4x2fv
4287:_glProgramUniformMatrix3x4fv
4288:_glProgramUniformMatrix3fv
4289:_glProgramUniformMatrix3x2fv
4290:_glProgramUniformMatrix2x4fv
4291:_glProgramUniformMatrix2x3fv
4292:_glProgramUniformMatrix2fv
4293:_glProgramUniform4fv
4294:_glProgramUniform3fv
4295:_glProgramUniform2fv
4296:_glProgramUniform1fv
4297:__Z18FillParamsBaseGLESjR20GpuProgramParametersP16PropertyNamesSetP20ActiveUniformIndicesi
4298:__ZN13dynamic_arrayI18ComputeShaderParamLm0EE4growEv
4299:__ZL17UpdateUBOBindingsjiPi
4300:__ZN13dynamic_arrayIN20GpuProgramParameters14ConstantBufferELm0EE18resize_initializedEm12ResizePolicy
4301:_glGetProgramInterfaceiv
4302:_glGetProgramResourceiv
4303:__ZN4glsl20IsStructArrayUniformEPKcRN4core12basic_stringIcNS2_20StringStorageDefaultIcEEEES7_RiS7_
4304:__ZN13dynamic_arrayIN20GpuProgramParameters15StructParameterELm0EE4growEv
4305:__ZN4glsl22IsShaderParameterArrayEPKciiPb
4306:__ZN20GpuProgramParameters14AddVectorParamEPKcii15ShaderParamTypeiiiP16PropertyNamesSet
4307:__ZN20GpuProgramParameters23AddMatrixParamWithFlagsEPKcii15ShaderParamTypeiiiiNS_14ValueParameter5FlagsEP16PropertyNamesSet
4308:__ZN20GpuProgramParameters14AddBufferParamEPKciP16PropertyNamesSetii
4309:__ZN20GpuProgramParameters15AddTextureParamEPKciib16TextureDimensionP16PropertyNamesSet
4310:_glGetProgramResourceName
4311:__ZN20GpuProgramParameters36UpdatePrepareValuesMaximumBufferSizeEv
4312:__ZNSt3__26__treeINS_12__value_typeIiNS_3mapIiiNS_4lessIiEE13stl_allocatorINS_4pairIKiiEEL18MemLabelIdentifier1ELi16EEEEEENS_19__map_value_compareIiSC_S4_Lb1EEES5_ISC_LS9_1ELi16EEE7destroyEPNS_11__tree_nodeISC_PvEE
4313:__ZNSt3__26__treeINS_12__value_typeIiiEENS_19__map_value_compareIiS2_NS_4lessIiEELb1EEE13stl_allocatorIS2_L18MemLabelIdentifier1ELi16EEE7destroyEPNS_11__tree_nodeIS2_PvEE
4314:__ZNSt3__26__sortIR25ValueParameterArraySorterPN20GpuProgramParameters14ValueParameterEEEvT0_S6_T_
4315:__ZNSt3__27__sort3IR25ValueParameterArraySorterPN20GpuProgramParameters14ValueParameterEEEjT0_S6_S6_T_
4316:__ZNSt3__27__sort4IR25ValueParameterArraySorterPN20GpuProgramParameters14ValueParameterEEEjT0_S6_S6_S6_T_
4317:__ZNSt3__27__sort5IR25ValueParameterArraySorterPN20GpuProgramParameters14ValueParameterEEEjT0_S6_S6_S6_S6_T_
4318:__ZNSt3__218__insertion_sort_3IR25ValueParameterArraySorterPN20GpuProgramParameters14ValueParameterEEEvT0_S6_T_
4319:__ZNSt3__227__insertion_sort_incompleteIR25ValueParameterArraySorterPN20GpuProgramParameters14ValueParameterEEEbT0_S6_T_
4320:__Z27IsShaderInstanceMatrixParamPKcPi
4321:__ZN13dynamic_arrayIN20GpuProgramParameters14ValueParameterELm0EE4growEv
4322:__ZN7ApiGLES13DeleteProgramERj
4323:__ZN7ApiGLES12CreateShaderEN2gl11ShaderStageEPKc
4324:__ZN7ApiGLES11CheckShaderERjbi
4325:__ZN7ApiGLES12DeleteShaderERj
4326:__ZN7ApiGLES20CreateComputeProgramEj
4327:__ZN7ApiGLES12CheckProgramERj
4328:__ZN14DataBufferGLES3MapEmmj
4329:__ZN14DataBufferGLES5UnmapEv
4330:__ZN7ApiGLES11UnmapBufferEjN2gl12BufferTargetE
4331:__ZN7ApiGLES9MapBufferEjN2gl12BufferTargetEllj
4332:__ZN14DataBufferGLES13EnsureStorageEm
4333:__Z19PluginsRenderMarkeri
4334:__ZN7ApiGLES12TextureImageEjji14GraphicsFormatiiiiiPKv
4335:__ZNK13TranslateGLES25GetTextureTargetDimensionEj
4336:__ZN18GlslGpuProgramGLES17SetGpuProgramNameEPKc
4337:__ZN14GfxDeviceStats16CopyAllDrawStatsERKS_
4338:__ZN14GfxDeviceStats15CopyClientStatsERKS_
4339:__ZN14GfxDeviceStats19EndClientFrameStatsEv
4340:__Z19GetTimeSinceStartupv
4341:__ZN14GfxDeviceStats10ResetFrameEv
4342:__ZN14GfxContextGLES11MakeCurrentER7ApiGLESN2gl13ContextHandleE
4343:__ZN4gles10InvalidateERK14GfxContextGLESR15DeviceStateGLES
4344:__ZN18GfxFramebufferGLES20ActiveContextChangedEPP17RenderSurfaceBaseS2_
4345:__ZN18GfxFramebufferGLES23SetupDefaultFramebufferEPP17RenderSurfaceBaseS2_N2gl6HandleILNS3_10ObjectTypeE9EEE
4346:__ZN18GfxFramebufferGLES32ProcessInvalidatedRenderSurfacesEv
4347:__ZN18GfxFramebufferGLES25CleanupFBOMapForTextureIDERK9TextureID
4348:__ZN18GfxFramebufferGLES20CleanupFBOMapForRBIDERKj
4349:__ZN7ApiGLES17DeleteFramebufferERN2gl6HandleILNS0_10ObjectTypeE9EEES3_
4350:__ZNSt3__26__treeINS_12__value_typeIN2gl13ContextHandleEN14GfxContextGLES8InstanceEEENS_19__map_value_compareIS3_S6_NS_4lessIS3_EELb1EEENS_9allocatorIS6_EEE21__emplace_unique_implIJRKNS_21piecewise_construct_tENS_5tupleIJRS3_EEENSI_IJR7ApiGLESEEEEEENS_4pairINS_15__tree_iteratorIS6_PNS_11__tree_nodeIS6_PvEElEEbEEDpOT_
4351:__ZN14GfxContextGLES8InstanceC2ER7ApiGLES
4352:__ZN7ApiGLES17DeleteVertexArrayERN2gl6HandleILNS0_10ObjectTypeE3EEE
4353:__ZNSt3__26__treeINS_12__value_typeI21GLESRenderTargetSetupN2gl6HandleILNS3_10ObjectTypeE9EEEEENS_19__map_value_compareIS2_S7_NS_4lessIS2_EELb1EEENS_9allocatorIS7_EEE7destroyEPNS_11__tree_nodeIS7_PvEE
4354:__Z22MultiplyMatrices4x4REFPK10Matrix4x4fS1_PS_
4355:__ZN18GlslGpuProgramGLES4BindEjRK20GpuProgramParametersj
4356:__ZN18GlslGpuProgramGLES13SwitchProgramEj
4357:__ZNK16UniformCacheGLES6SubmitEjRK13dynamic_arrayIN20GpuProgramParameters14ValueParameterELm0EERKS0_IiLm0EE
4358:__ZN18GlslGpuProgramGLES18CompileProgramImplERjRKN4core12basic_stringIcNS1_20StringStorageDefaultIcEEEES7_S7_S7_S7_R17ShaderChannelMaskijPiSA_
4359:__Z20FindUniformLocationsjjRK20ActiveUniformIndicesR16UniformLocationsi
4360:__ZL18GetUniformLocationjjiPcmS_miR5CbKey
4361:__ZN18GlslGpuProgramGLES25LoadFromBinaryShaderCacheERjRKN4core12basic_stringIcNS1_20StringStorageDefaultIcEEEER17ShaderChannelMaskPKcPiSC_
4362:__ZL31SplitSourceIntoHeaderAndProgramPKcPN4core12basic_stringIcNS1_20StringStorageDefaultIcEEEES6_
4363:__ZL27PatchShaderSourceDisableUBORN4core12basic_stringIcNS_20StringStorageDefaultIcEEEE
4364:__ZL40PatchShaderSourceDisableUniformLocationsRN4core12basic_stringIcNS_20StringStorageDefaultIcEEEE
4365:__ZL18PatchShaderVersionRN4core12basic_stringIcNS_20StringStorageDefaultIcEEEE
4366:__ZL21CompileFragmentShaderRKN4core12basic_stringIcNS_20StringStorageDefaultIcEEEEbb
4367:__ZL31CompileGeometryHullDomainShaderRKN4core12basic_stringIcNS_20StringStorageDefaultIcEEEEN2gl11ShaderStageE
4368:__ZL27BindVertexProgramAttributesRKN4core12basic_stringIcNS_20StringStorageDefaultIcEEEEjR17ShaderChannelMask
4369:__ZN18GlslGpuProgramGLES24StoreInBinaryShaderCacheEjPKcii
4370:__ZN17AutoDeleteShadersD2Ev
4371:__ZN13string_traitsIA34_cE8get_sizeERA34_Kc
4372:__ZN13string_traitsIA42_cE8get_sizeERA42_Kc
4373:__ZN13string_traitsIA40_cE8get_sizeERA40_Kc
4374:__ZN18GfxFramebufferGLES21GrabIntoRenderTextureEP17RenderSurfaceGLESiiii
4375:__ZN12_GLOBAL__N_115NeedMSAAResolveER18GfxFramebufferGLESR7ApiGLESP17RenderSurfaceGLESS5_
4376:__ZN13GfxDeviceGLES22MemoryBarrierImmediateEyN2gl17MemoryBarrierTypeE
4377:__ZN18GfxFramebufferGLES19ReadbackResolveMSAAEP17RenderSurfaceGLESS1_
4378:__ZN12_GLOBAL__N_127PrepareReadback_ResolveMSAAER18GfxFramebufferGLESR7ApiGLESP17RenderSurfaceGLESS5_
4379:__ZN4gles25InitializeBlitFramebufferERNS_23BlitFramebufferDrawQuadENS_35BlitFramebufferColorSpaceConversionE
4380:__ZN4gles15BlitFramebufferERNS_23BlitFramebufferDrawQuadER9GfxDeviceii9TextureIDiiiiiiii
4381:__ZN7ApiGLES15BlitFramebufferEN2gl6HandleILNS0_10ObjectTypeE9EEENS0_15FramebufferReadES3_S3_iiiiiiiiNS0_15FramebufferTypeE
4382:__ZN13dynamic_arrayIhLm0EEC2Em10MemLabelId
4383:__ZN18GfxFramebufferGLES18ReleaseFramebufferEP17RenderSurfaceBaseP14GfxContextGLES
4384:__ZN18GfxFramebufferGLES43AddRenderSurfaceToDeferredFBOInvalidateListEPK17RenderSurfaceGLES
4385:__ZN13GfxDeviceGLES19CancelPendingMipGenEP17RenderSurfaceBase
4386:__ZN4gles20DestroyRenderSurfaceEP7ApiGLESP17RenderSurfaceGLES
4387:__ZN7ApiGLES18DeleteRenderbufferERj
4388:__ZL19BlitFramebufferImplRN4gles23BlitFramebufferDrawQuadER9GfxDevice9TextureIDRK8Vector4f
4389:__ZN7ApiGLES21CreateGraphicsProgramEjjjjj
4390:__ZN4gles16CreateDepthStateER15DeviceStateGLES13GfxDepthState
4391:__ZN4gles24CreateColorRenderSurfaceEP7ApiGLESP17RenderSurfaceGLES14GraphicsFormat
4392:__ZN4gles20EnsureTextureCreatedEP7ApiGLESP17RenderSurfaceGLES
4393:__ZN4gles21InitRenderSurfaceGLESEP7ApiGLESR17RenderSurfaceGLES17TextureColorSpace
4394:__ZN7ApiGLES13DeleteTextureERj
4395:__Z22CalculateMipMapCount3Diii
4396:__ZN7ApiGLES13CreateTextureEjj14GraphicsFormatiiiiiN2gl14ASTCDecodeModeE
4397:__ZN7ApiGLES14TextureSamplerERK11GLESTexturejRK24GfxTextureSamplingParams17TextureColorSpace
4398:__ZN7ApiGLES18CreateRenderbufferEi14GraphicsFormatii
4399:__Z21ComputeMipchainLevelsiii14GraphicsFormat
4400:__ZN7ApiGLES15BlitFramebufferEN2gl6HandleILNS0_10ObjectTypeE9EEENS0_15FramebufferReadES3_iiNS0_15FramebufferTypeE
4401:__ZNK7ApiGLES3GetEj
4402:__ZN18GfxFramebufferGLES13ReadbackImageER14ImageReferenceiiiiii
4403:__Z12IsHalfFormat14GraphicsFormat
4404:__Z13IsFloatFormat14GraphicsFormat
4405:__Z17ComputeMipmapSizeii14GraphicsFormat
4406:__Z13ConvertMipmap14GraphicsFormatPKvS_Pviiii
4407:__ZN14ImageReference9BlitImageERKS_13ImageBlitMode
4408:__Z29DecompressNativeTextureFormat13TextureFormatS_iiPKjiiPj
4409:__Z29DecompressNativeTextureFormat14GraphicsFormatS_iiPKjiiPj
4410:__Z19GetColorBlockColorsPK11DXTColBlockP9Color8888
4411:__Z16DecodeColorBlockPjRK11DXTColBlockiPKj
4412:__Z19DecodeAlphaExplicitPjRK21DXTAlphaBlockExplicitij
4413:__Z21DecodeAlpha3BitLinearPjRK23DXTAlphaBlock3BitLineariji
4414:__Z14DecompressBC6HiiiPKjPj14GraphicsFormat
4415:__Z13DecompressBC7iiiPKjPj
4416:__Z14DecodeBC7BlockP9HDRColorAPKh
4417:__Z15DecodeBC6HBlockP9HDRColorAPKh
4418:__ZL13BlitImageImplR14ImageReferenceiiRKS_17TextureColorSpace13ImageBlitModeb
4419:__ZN6prcore14BlitImageFlipYERK14ImageReferenceRS0_ii
4420:__ZN6prcore9BlitImageERK14ImageReferenceRS0_ii
4421:__ZN6prcore14BlitImageFlipYERK14ImageReferenceRS0_13ImageBlitMode
4422:__ZN6prcore9BlitImageERK14ImageReferenceRS0_13ImageBlitMode
4423:__Z10GetRowSizei14GraphicsFormat
4424:__ZL21BlitScaleStbImageImplRK14ImageReferenceRS_17TextureColorSpace
4425:__ZN6prcore10FlipImageYER14ImageReference
4426:__Z20GetTextureFormatInfo14GraphicsFormat
4427:__ZN6prcoreL10inner_flipILj2EEEvPhS1_m
4428:__ZN6prcoreL10inner_flipILj4EEEvPhS1_m
4429:__ZN6prcoreL10inner_flipILj3EEEvPhS1_m
4430:__ZN6prcoreL10inner_flipILj1EEEvPhS1_m
4431:__Z11IsHDRFormat14GraphicsFormat
4432:__ZL8StbAllocmPv
4433:__ZL7StbFreePvS_
4434:_stbir_resize
4435:__ZL23stbir__resize_arbitraryPvPKviiiS_iiiffffPfiij14stbir_datatype12stbir_filterS4_10stbir_edgeS5_16stbir_colorspace
4436:__ZL23stbir__calculate_memoryP11stbir__info
4437:__ZL24stbir__calculate_filtersP19stbir__contributorsPf12stbir_filterffii
4438:__ZL22stbir__decode_scanlineP11stbir__infoi
4439:__ZL35stbir__resample_horizontal_upsampleP11stbir__infoPf
4440:__ZL37stbir__resample_horizontal_downsampleP11stbir__infoPf
4441:__ZL22stbir__encode_scanlineP11stbir__infoiPvPfiii
4442:__ZL19stbir__support_zerof
4443:__ZL23stbir__filter_trapezoidff
4444:__ZL24stbir__support_trapezoidf
4445:__ZL22stbir__filter_triangleff
4446:__ZL18stbir__support_onef
4447:__ZL19stbir__filter_cubicff
4448:__ZL18stbir__support_twof
4449:__ZL24stbir__filter_catmullromff
4450:__ZL22stbir__filter_mitchellff
4451:__ZL31stbir__filter_mitchell_modifiedff
4452:__ZN6prcoreL21InitRemapBlitterTableEv
4453:__ZN6prcore14BlitImageFloatERK14ImageReferenceRS0_13ImageBlitMode
4454:__ZN6prcore21BlitImageRemapNoScaleERK14ImageReferenceRS0_
4455:__ZN6prcore19BlitImageRemapScaleERK14ImageReferenceRS0_13ImageBlitMode
4456:__ZN6prcore17GetIntegerBlitterE14GraphicsFormatS0_13ImageBlitMode
4457:__ZN6prcore21CreateRemapAnyBlitterE14GraphicsFormatS0_
4458:__ZNK6prcore16BlitFuncInfoSIMD10GetBlitterEv
4459:__ZN6prcoreL29BlitFuncExecuteFromSelectInfoEPKNS_9InnerInfoEPKv
4460:__ZN6prcore16BlitFuncInfoSIMD19BlitFuncExecuteSIMDEPKNS_9InnerInfoEPKv
4461:__ZN6prcore22GetIntegerBlitterScaleE14GraphicsFormatS0_
4462:__ZN6prcore30GetIntegerBlitterBilinearScaleE14GraphicsFormatS0_
4463:__ZN6prcoreL23StretchBilinearARGB8888EPKNS_9InnerInfoE
4464:__ZN6prcoreL17StretchBilinearI8EPKNS_9InnerInfoE
4465:__ZN6prcoreL21StretchBilinearRGB565EPKNS_9InnerInfoE
4466:__ZN6prcoreL21StretchBilinearRGB888EPKNS_9InnerInfoE
4467:__ZN6prcoreL23StretchBilinearARGB4444EPKNS_9InnerInfoE
4468:__ZN6prcoreL19StretchBilinearRG88EPKNS_9InnerInfoE
4469:__ZN6prcoreL18StretchBilinearR16EPKNS_9InnerInfoE
4470:__ZN6prcoreL13inner_stretchILj1ELj1EEEvPKNS_9InnerInfoE
4471:__ZN6prcoreL13inner_stretchILj2ELj2EEEvPKNS_9InnerInfoE
4472:__ZN6prcoreL13inner_stretchILj3ELj3EEEvPKNS_9InnerInfoE
4473:__ZN6prcoreL13inner_stretchILj4ELj4EEEvPKNS_9InnerInfoE
4474:__ZN6prcore17BlitBilinearFloatERK14ImageReferenceRS0_
4475:__ZN5ImageD2Ev
4476:__ZN6prcoreL27StretchGenericFloatBilinearI15TexFormatRFloatEEvPKNS_9InnerInfoE
4477:__ZN6prcoreL27StretchGenericFloatBilinearI16TexFormatRGFloatEEvPKNS_9InnerInfoE
4478:__ZN6prcoreL27StretchGenericFloatBilinearI17TexFormatRGBFloatEEvPKNS_9InnerInfoE
4479:__ZN6prcoreL27StretchGenericFloatBilinearI18TexFormatRGBAFloatEEvPKNS_9InnerInfoE
4480:__ZN6prcoreL27StretchGenericFloatBilinearI14TexFormatRHalfEEvPKNS_9InnerInfoE
4481:__ZN6prcoreL27StretchGenericFloatBilinearI15TexFormatRGHalfEEvPKNS_9InnerInfoE
4482:__ZN6prcoreL27StretchGenericFloatBilinearI17TexFormatRGBAHalfEEvPKNS_9InnerInfoE
4483:__ZN6prcoreL21StretchRGB9e5BilinearEPKNS_9InnerInfoE
4484:__Z16rgb9e5_to_float36rgb9e5P10ColorRGBAf
4485:__Z16float3_to_rgb9e5RK10ColorRGBAfP6rgb9e5
4486:__ZN5ImageC2Eii13TextureFormat
4487:__ZN6prcoreL19RemapGenericIntegerI17TexFormatARGB888811TexFormatA8EEvPKNS_9InnerInfoE
4488:__ZN6prcoreL19RemapGenericIntegerI17TexFormatARGB888815TexFormatRGB565EEvPKNS_9InnerInfoE
4489:__ZN6prcoreL19RemapGenericIntegerI17TexFormatARGB888815TexFormatRGB888EEvPKNS_9InnerInfoE
4490:__ZN6prcoreL19RemapGenericIntegerI17TexFormatARGB888817TexFormatARGB4444EEvPKNS_9InnerInfoE
4491:__ZN6prcoreL19RemapGenericIntegerI17TexFormatARGB888815TexFormatBGR888EEvPKNS_9InnerInfoE
4492:__ZN6prcoreL19RemapGenericIntegerI17TexFormatARGB888817TexFormatRGBA4444EEvPKNS_9InnerInfoE
4493:__ZN6prcoreL19RemapGenericIntegerI17TexFormatARGB888817TexFormatBGRA8888EEvPKNS_9InnerInfoE
4494:__ZN6prcoreL22RemapFastARGB32_RGBA32EPKNS_9InnerInfoE
4495:__ZN6prcoreL19RemapGenericIntegerI17TexFormatARGB888811TexFormatR8EEvPKNS_9InnerInfoE
4496:__ZN6prcoreL19RemapGenericIntegerI17TexFormatARGB888813TexFormatRG88EEvPKNS_9InnerInfoE
4497:__ZN6prcoreL19RemapGenericIntegerI17TexFormatARGB888812TexFormatR16EEvPKNS_9InnerInfoE
4498:__ZN6prcoreL19RemapGenericIntegerI11TexFormatA817TexFormatARGB8888EEvPKNS_9InnerInfoE
4499:__ZN6prcoreL19RemapGenericIntegerI15TexFormatRGB56517TexFormatARGB8888EEvPKNS_9InnerInfoE
4500:__ZN6prcoreL19RemapGenericIntegerI15TexFormatRGB56515TexFormatRGB888EEvPKNS_9InnerInfoE
4501:__ZN6prcoreL19RemapGenericIntegerI15TexFormatRGB56517TexFormatARGB4444EEvPKNS_9InnerInfoE
4502:__ZN6prcoreL19RemapGenericIntegerI15TexFormatRGB56515TexFormatBGR888EEvPKNS_9InnerInfoE
4503:__ZN6prcoreL19RemapGenericIntegerI15TexFormatRGB88817TexFormatARGB8888EEvPKNS_9InnerInfoE
4504:__ZN6prcoreL19RemapGenericIntegerI15TexFormatRGB88815TexFormatRGB565EEvPKNS_9InnerInfoE
4505:__ZN6prcoreL19RemapGenericIntegerI15TexFormatRGB88817TexFormatARGB4444EEvPKNS_9InnerInfoE
4506:__ZN6prcoreL19RemapGenericIntegerI17TexFormatARGB444417TexFormatARGB8888EEvPKNS_9InnerInfoE
4507:__ZN6prcoreL19RemapGenericIntegerI17TexFormatARGB444415TexFormatRGB565EEvPKNS_9InnerInfoE
4508:__ZN6prcoreL19RemapGenericIntegerI17TexFormatARGB444415TexFormatRGB888EEvPKNS_9InnerInfoE
4509:__ZN6prcoreL19RemapGenericIntegerI15TexFormatBGR88817TexFormatARGB8888EEvPKNS_9InnerInfoE
4510:__ZN6prcoreL19RemapGenericIntegerI17TexFormatRGBA444417TexFormatARGB8888EEvPKNS_9InnerInfoE
4511:__ZN6prcoreL19RemapGenericIntegerI17TexFormatBGRA888817TexFormatRGBA8888EEvPKNS_9InnerInfoE
4512:__ZN6prcoreL19RemapGenericIntegerI17TexFormatRGBA888817TexFormatARGB8888EEvPKNS_9InnerInfoE
4513:__ZN6prcoreL19RemapGenericIntegerI11TexFormatR817TexFormatARGB8888EEvPKNS_9InnerInfoE
4514:__ZN6prcoreL19RemapGenericIntegerI13TexFormatRG8817TexFormatARGB8888EEvPKNS_9InnerInfoE
4515:__ZN6prcoreL19RemapGenericIntegerI12TexFormatR1617TexFormatARGB8888EEvPKNS_9InnerInfoE
4516:__ZN6prcoreL19RemapGenericIntegerI20TexFormatRGB101010XR17TexFormatARGB8888EEvPKNS_9InnerInfoE
4517:__ZN6prcoreL19RGB111110ToARGB8888EPKNS_9InnerInfoE
4518:__ZN6prcoreL20RGB111110ToARGBFloatEPKNS_9InnerInfoE
4519:__ZN6prcoreL26RemapGenericIntegerToFloatI11TexFormatR815TexFormatRFloatEEvPKNS_9InnerInfoE
4520:__ZN6prcoreL26RemapGenericIntegerToFloatI13TexFormatRG8816TexFormatRGFloatEEvPKNS_9InnerInfoE
4521:__ZN6prcoreL26RemapGenericIntegerToFloatI17TexFormatARGB888815TexFormatRFloatEEvPKNS_9InnerInfoE
4522:__ZN6prcoreL26RemapGenericIntegerToFloatI17TexFormatARGB888816TexFormatRGFloatEEvPKNS_9InnerInfoE
4523:__ZN6prcoreL26RemapGenericIntegerToFloatI17TexFormatARGB888817TexFormatRGBFloatEEvPKNS_9InnerInfoE
4524:__ZN6prcoreL26RemapGenericIntegerToFloatI17TexFormatARGB888818TexFormatRGBAFloatEEvPKNS_9InnerInfoE
4525:__ZN6prcoreL26RemapGenericIntegerToFloatI17TexFormatARGB888818TexFormatARGBFloatEEvPKNS_9InnerInfoE
4526:__ZN6prcoreL26RemapGenericIntegerToFloatI17TexFormatARGB888814TexFormatRHalfEEvPKNS_9InnerInfoE
4527:__ZN6prcoreL26RemapGenericIntegerToFloatI17TexFormatARGB888815TexFormatRGHalfEEvPKNS_9InnerInfoE
4528:__ZN6prcoreL26RemapGenericIntegerToFloatI17TexFormatARGB888817TexFormatRGBAHalfEEvPKNS_9InnerInfoE
4529:__ZN6prcoreL16ARGB8888ToRGB9e5EPKNS_9InnerInfoE
4530:__ZN6prcoreL26RemapGenericFloatToIntegerI15TexFormatRFloat11TexFormatR8EEvPKNS_9InnerInfoE
4531:__ZN6prcoreL26RemapGenericFloatToIntegerI15TexFormatRFloat17TexFormatARGB8888EEvPKNS_9InnerInfoE
4532:__ZN6prcoreL26RemapGenericFloatToIntegerI16TexFormatRGFloat17TexFormatARGB8888EEvPKNS_9InnerInfoE
4533:__ZN6prcoreL26RemapGenericFloatToIntegerI17TexFormatRGBFloat17TexFormatARGB8888EEvPKNS_9InnerInfoE
4534:__ZN6prcoreL26RemapGenericFloatToIntegerI18TexFormatRGBAFloat17TexFormatARGB8888EEvPKNS_9InnerInfoE
4535:__ZN6prcoreL26RemapGenericFloatToIntegerI18TexFormatARGBFloat17TexFormatARGB8888EEvPKNS_9InnerInfoE
4536:__ZN6prcoreL26RemapGenericFloatToIntegerI14TexFormatRHalf17TexFormatARGB8888EEvPKNS_9InnerInfoE
4537:__ZN6prcoreL26RemapGenericFloatToIntegerI15TexFormatRGHalf17TexFormatARGB8888EEvPKNS_9InnerInfoE
4538:__ZN6prcoreL26RemapGenericFloatToIntegerI17TexFormatRGBAHalf17TexFormatARGB8888EEvPKNS_9InnerInfoE
4539:__ZN6prcoreL16RGB9e5ToARGB8888EPKNS_9InnerInfoE
4540:__ZN6prcoreL17RemapGenericFloatI15TexFormatRFloat16TexFormatRGFloatEEvPKNS_9InnerInfoE
4541:__ZN6prcoreL17RemapGenericFloatI15TexFormatRFloat17TexFormatRGBFloatEEvPKNS_9InnerInfoE
4542:__ZN6prcoreL17RemapGenericFloatI15TexFormatRFloat18TexFormatRGBAFloatEEvPKNS_9InnerInfoE
4543:__ZN6prcoreL17RemapGenericFloatI15TexFormatRFloat18TexFormatARGBFloatEEvPKNS_9InnerInfoE
4544:__ZN6prcoreL17RemapGenericFloatI15TexFormatRFloat14TexFormatRHalfEEvPKNS_9InnerInfoE
4545:__ZN6prcoreL17RemapGenericFloatI15TexFormatRFloat15TexFormatRGHalfEEvPKNS_9InnerInfoE
4546:__ZN6prcoreL17RemapGenericFloatI15TexFormatRFloat17TexFormatRGBAHalfEEvPKNS_9InnerInfoE
4547:__ZN6prcoreL17RemapGenericFloatI16TexFormatRGFloat15TexFormatRFloatEEvPKNS_9InnerInfoE
4548:__ZN6prcoreL17RemapGenericFloatI16TexFormatRGFloat17TexFormatRGBFloatEEvPKNS_9InnerInfoE
4549:__ZN6prcoreL17RemapGenericFloatI16TexFormatRGFloat18TexFormatRGBAFloatEEvPKNS_9InnerInfoE
4550:__ZN6prcoreL17RemapGenericFloatI16TexFormatRGFloat18TexFormatARGBFloatEEvPKNS_9InnerInfoE
4551:__ZN6prcoreL17RemapGenericFloatI16TexFormatRGFloat14TexFormatRHalfEEvPKNS_9InnerInfoE
4552:__ZN6prcoreL17RemapGenericFloatI16TexFormatRGFloat15TexFormatRGHalfEEvPKNS_9InnerInfoE
4553:__ZN6prcoreL17RemapGenericFloatI16TexFormatRGFloat17TexFormatRGBAHalfEEvPKNS_9InnerInfoE
4554:__ZN6prcoreL17RemapGenericFloatI17TexFormatRGBFloat15TexFormatRFloatEEvPKNS_9InnerInfoE
4555:__ZN6prcoreL17RemapGenericFloatI17TexFormatRGBFloat16TexFormatRGFloatEEvPKNS_9InnerInfoE
4556:__ZN6prcoreL17RemapGenericFloatI17TexFormatRGBFloat18TexFormatRGBAFloatEEvPKNS_9InnerInfoE
4557:__ZN6prcoreL17RemapGenericFloatI17TexFormatRGBFloat18TexFormatARGBFloatEEvPKNS_9InnerInfoE
4558:__ZN6prcoreL17RemapGenericFloatI17TexFormatRGBFloat14TexFormatRHalfEEvPKNS_9InnerInfoE
4559:__ZN6prcoreL17RemapGenericFloatI17TexFormatRGBFloat15TexFormatRGHalfEEvPKNS_9InnerInfoE
4560:__ZN6prcoreL17RemapGenericFloatI17TexFormatRGBFloat17TexFormatRGBAHalfEEvPKNS_9InnerInfoE
4561:__ZN6prcoreL17RemapGenericFloatI18TexFormatRGBAFloat15TexFormatRFloatEEvPKNS_9InnerInfoE
4562:__ZN6prcoreL17RemapGenericFloatI18TexFormatRGBAFloat16TexFormatRGFloatEEvPKNS_9InnerInfoE
4563:__ZN6prcoreL17RemapGenericFloatI18TexFormatRGBAFloat17TexFormatRGBFloatEEvPKNS_9InnerInfoE
4564:__ZN6prcoreL17RemapGenericFloatI18TexFormatRGBAFloat18TexFormatARGBFloatEEvPKNS_9InnerInfoE
4565:__ZN6prcoreL17RemapGenericFloatI18TexFormatRGBAFloat14TexFormatRHalfEEvPKNS_9InnerInfoE
4566:__ZN6prcoreL17RemapGenericFloatI18TexFormatRGBAFloat15TexFormatRGHalfEEvPKNS_9InnerInfoE
4567:__ZN6prcoreL17RemapGenericFloatI18TexFormatRGBAFloat17TexFormatRGBAHalfEEvPKNS_9InnerInfoE
4568:__ZN6prcoreL17RemapGenericFloatI18TexFormatARGBFloat15TexFormatRFloatEEvPKNS_9InnerInfoE
4569:__ZN6prcoreL17RemapGenericFloatI18TexFormatARGBFloat16TexFormatRGFloatEEvPKNS_9InnerInfoE
4570:__ZN6prcoreL17RemapGenericFloatI18TexFormatARGBFloat17TexFormatRGBFloatEEvPKNS_9InnerInfoE
4571:__ZN6prcoreL17RemapGenericFloatI18TexFormatARGBFloat18TexFormatRGBAFloatEEvPKNS_9InnerInfoE
4572:__ZN6prcoreL17RemapGenericFloatI18TexFormatARGBFloat14TexFormatRHalfEEvPKNS_9InnerInfoE
4573:__ZN6prcoreL17RemapGenericFloatI18TexFormatARGBFloat15TexFormatRGHalfEEvPKNS_9InnerInfoE
4574:__ZN6prcoreL17RemapGenericFloatI18TexFormatARGBFloat17TexFormatRGBAHalfEEvPKNS_9InnerInfoE
4575:__ZN6prcoreL17RemapGenericFloatI14TexFormatRHalf15TexFormatRFloatEEvPKNS_9InnerInfoE
4576:__ZN6prcoreL17RemapGenericFloatI14TexFormatRHalf16TexFormatRGFloatEEvPKNS_9InnerInfoE
4577:__ZN6prcoreL17RemapGenericFloatI14TexFormatRHalf17TexFormatRGBFloatEEvPKNS_9InnerInfoE
4578:__ZN6prcoreL17RemapGenericFloatI14TexFormatRHalf18TexFormatRGBAFloatEEvPKNS_9InnerInfoE
4579:__ZN6prcoreL17RemapGenericFloatI14TexFormatRHalf18TexFormatARGBFloatEEvPKNS_9InnerInfoE
4580:__ZN6prcoreL17RemapGenericFloatI14TexFormatRHalf15TexFormatRGHalfEEvPKNS_9InnerInfoE
4581:__ZN6prcoreL17RemapGenericFloatI14TexFormatRHalf17TexFormatRGBAHalfEEvPKNS_9InnerInfoE
4582:__ZN6prcoreL17RemapGenericFloatI15TexFormatRGHalf15TexFormatRFloatEEvPKNS_9InnerInfoE
4583:__ZN6prcoreL17RemapGenericFloatI15TexFormatRGHalf16TexFormatRGFloatEEvPKNS_9InnerInfoE
4584:__ZN6prcoreL17RemapGenericFloatI15TexFormatRGHalf17TexFormatRGBFloatEEvPKNS_9InnerInfoE
4585:__ZN6prcoreL17RemapGenericFloatI15TexFormatRGHalf18TexFormatRGBAFloatEEvPKNS_9InnerInfoE
4586:__ZN6prcoreL17RemapGenericFloatI15TexFormatRGHalf18TexFormatARGBFloatEEvPKNS_9InnerInfoE
4587:__ZN6prcoreL17RemapGenericFloatI15TexFormatRGHalf14TexFormatRHalfEEvPKNS_9InnerInfoE
4588:__ZN6prcoreL17RemapGenericFloatI15TexFormatRGHalf17TexFormatRGBAHalfEEvPKNS_9InnerInfoE
4589:__ZN6prcoreL17RemapGenericFloatI17TexFormatRGBAHalf15TexFormatRFloatEEvPKNS_9InnerInfoE
4590:__ZN6prcoreL17RemapGenericFloatI17TexFormatRGBAHalf16TexFormatRGFloatEEvPKNS_9InnerInfoE
4591:__ZN6prcoreL17RemapGenericFloatI17TexFormatRGBAHalf17TexFormatRGBFloatEEvPKNS_9InnerInfoE
4592:__ZN6prcoreL17RemapGenericFloatI17TexFormatRGBAHalf18TexFormatRGBAFloatEEvPKNS_9InnerInfoE
4593:__ZN6prcoreL17RemapGenericFloatI17TexFormatRGBAHalf18TexFormatARGBFloatEEvPKNS_9InnerInfoE
4594:__ZN6prcoreL17RemapGenericFloatI17TexFormatRGBAHalf14TexFormatRHalfEEvPKNS_9InnerInfoE
4595:__ZN6prcoreL17RemapGenericFloatI17TexFormatRGBAHalf15TexFormatRGHalfEEvPKNS_9InnerInfoE
4596:__ZN6prcoreL17RGBAFloatToRGB9e5EPKNS_9InnerInfoE
4597:__ZN6prcoreL17RGB9e5ToRGBAFloatEPKNS_9InnerInfoE
4598:__ZN6prcoreL15RemapR16ToFloatEPKNS_9InnerInfoE
4599:__ZN6prcoreL15RemapFloatToR16EPKNS_9InnerInfoE
4600:__ZN14ImageReferenceC2Eiii14GraphicsFormatPv
4601:__ZN14ImageReferenceC2Eiii13TextureFormatPv
4602:__ZN13DrawImmediate11FlushBufferEv
4603:__ZN13DrawImmediate5BeginE16GfxPrimitiveType16VertexInputMasksNS_9DrawFlagsE
4604:__ZN13DrawImmediate8TexCoordEifff
4605:__ZN13DrawImmediate11TexCoordAllEfff
4606:__ZN13DrawImmediate6VertexEfff
4607:__ZN11ContextGLES7ReleaseEv
4608:__ZN11ContextGLES22DeleteIntermediateFBOsEv
4609:__ZN15BlitFramebufferD2Ev
4610:__ZN7ApiGLES12DeleteBufferERj
4611:__ZN7ApiGLES13DeleteSamplerERj
4612:__ZN11ContextGLES7AcquireEv
4613:__ZN17BufferManagerGLES13InvalidateAllEv
4614:__ZN9GfxDevice21CommonReloadResourcesEj
4615:__ZN14GfxContextGLES10InvalidateER7ApiGLES
4616:__ZN18GfxFramebufferGLES32UpdateDefaultFramebufferViewportEv
4617:__ZN18GfxFramebufferGLES10InvalidateEv
4618:__ZN7ApiGLES15BindVertexArrayEN2gl6HandleILNS0_10ObjectTypeE3EEE
4619:__ZN7Texture9ReloadAllEbbb
4620:__ZN13RenderTexture10ReleaseAllEv
4621:__ZN13RenderTexture21MakeRenderTargetSetupEiP12ObjectHandleI17RenderSurface_TagP17RenderSurfaceBaseES4_i11CubemapFaceiNS_14SetActiveFlagsE
4622:__ZN13RenderTexture9SetActiveERK20GfxRenderTargetSetupPPS_NS_14SetActiveFlagsE
4623:__ZN13RenderTexture7ReleaseEv
4624:__ZN16RenderTextureMap5QueryEPK17RenderSurfaceBase
4625:__ZN13RenderTexture15DestroySurfacesEv
4626:__ZN16RenderTextureMap6RemoveEPK17RenderSurfaceBase
4627:__ZN6Camera24OnRenderSurfaceDestroyedE12ObjectHandleI17RenderSurface_TagP17RenderSurfaceBaseEP13RenderTexture
4628:__ZN21ScalableBufferManager11GetInstanceEv
4629:__Z14RectfToRectIntRK5RectTIfE
4630:__ZNK6Camera25GetNormalizedViewportRectEP13RenderTextureb
4631:__ZNK6Camera13GetCameraRectEbb
4632:__ZNK6Camera16GetStereoEnabledEv
4633:__ZL19GetCameraTargetRectRK6Camerabbb
4634:__ZNK13RenderTexture14GetScaledWidthEv
4635:__ZNK13RenderTexture15GetScaledHeightEv
4636:__ZN24StaticInitializeInternal13ConstructTypeI21ScalableBufferManagerLb0EEEPvS2_10MemLabelId
4637:__ZN14GraphicsHelper18ValidateMemorylessER20GfxRenderTargetSetup
4638:__Z16ReloadAllSpritesv
4639:__ZNSt3__26__treeINS_12__value_typeImP14DataBufferGLESEENS_19__map_value_compareImS4_NS_4lessImEELb1EEENS_9allocatorIS4_EEE7destroyEPNS_11__tree_nodeIS4_PvEE
4640:__ZN11ContextGLES7PresentEv
4641:__ZN13RenderTexture9SetActiveEPS_i11CubemapFaceiNS_14SetActiveFlagsE
4642:__ZN15BlitFramebuffer20EnableSrgbConversionEb
4643:__ZN15BlitFramebuffer11BlitTextureE9TextureID
4644:__ZN13RenderTexture21MakeRenderTargetSetupEPS_i11CubemapFaceiNS_14SetActiveFlagsE
4645:__ZN13RenderTexture6CreateERK12ObjectHandleI17RenderSurface_TagP17RenderSurfaceBaseES6_NS_11CreateFlagsE
4646:__ZN13RenderTexture25AdjustDescForGraphicsCapsER17RenderTextureDescR9GfxDeviceRK12GraphicsCapsPS_
4647:__ZNK13RenderTexture19GetCompatibleFormatE14GraphicsFormatb
4648:__Z17GetGraphicsFormat17DepthBufferFormat
4649:__ZN9GfxDevice18AliasRenderSurfaceE9TextureIDP17RenderSurfaceBase
4650:__ZN16RenderTextureMap6UpdateEPK17RenderSurfaceBaseP13RenderTexture
4651:__ZN4core8hash_mapIPK17RenderSurfaceBaseP13RenderTexture19PointerHashFunctionIS3_ENSt3__28equal_toIS3_EEE6insertERKS3_RKS5_
4652:__ZN21ScalableBufferManager21RegisterRenderSurfaceEP17RenderSurfaceBase
4653:__ZNK12GraphicsCaps19GetCompatibleFormatE14GraphicsFormat11FormatUsage
4654:__Z15GetFormatString14GraphicsFormat
4655:__ZN4core13StringBuilder6appendEi
4656:__Z11IntToStringi
4657:__ZN21ScriptingGraphicsCaps17IsFormatSupportedE14GraphicsFormat11FormatUsage
4658:__ZNK12GraphicsCaps24IsStencilFormatSupportedE14GraphicsFormat
4659:__ZN17BufferManagerGLES12AdvanceFrameEv
4660:__ZN17BufferManagerGLES24UpdateLiveSetFromPendingEv
4661:__ZN17BufferManagerGLES16PruneFreeBuffersEv
4662:__ZN18GfxFramebufferGLES48ActivateDefaultFramebufferWithLoadActionDontCareEv
4663:__Z27UploadSparseTextureTileGLES9TextureIDiiiPKhii
4664:__Z30TextureIdMapGLES_QueryOrCreateP7ApiGLESj9TextureID
4665:__ZN7ApiGLES15TextureSubImageEjj14GraphicsFormatiiiiiiiiPKv
4666:__Z23CreateSparseTextureGLES9TextureIDii14GraphicsFormati
4667:__ZN7ApiGLES19CreateSparseTextureEjj14GraphicsFormatiiiiRiS1_S1_
4668:__ZL25CheckCopyTextureArgumentsRK7ApiGLESP11GLESTextureS3_
4669:__ZN7ApiGLES16CopyTextureImageEjjiiiiijjiiiiiiiiii
4670:__ZN4gles13UploadTextureEP7ApiGLESR11GLESTexture14GraphicsFormatPKvmiiiij16TextureUsageMode
4671:__ZNK12GraphicsCaps16FindUploadFormatE14GraphicsFormat11FormatUsage
4672:__ZN7ApiGLES14TextureSwizzleEjj13FormatSwizzleS0_S0_S0_
4673:__Z37PrintWarningAboutDecompressingTexture14GraphicsFormat
4674:__Z17ComputeMipmapSizeiii14GraphicsFormat
4675:__ZN12_GLOBAL__N_112UploadImagesEP7ApiGLESjji14GraphicsFormatPKhmS2_iiii16TextureUsageModePh
4676:__Z13ConvertMipmap14GraphicsFormatPKvS_Pviii
4677:__Z23DeleteSparseTextureGLES9TextureID
4678:__ZN4gles27InvalidateTexUnitForTextureER15DeviceStateGLESj
4679:__ZN4gles22UploadTexture2DSubDataEP7ApiGLESj14GraphicsFormatPKviiiii
4680:__ZN12TextureIdMap18SwapNativeTexturesE9TextureIDS0_
4681:__ZN7ApiGLES15OnDeleteTextureEj
4682:__ZN7ApiGLES16GetTextureTargetE16TextureDimensionj
4683:__ZN13HandleManager4FreeEi
4684:__ZN13HandleManager8AllocateEv
4685:__Z22TextureIdMapGLES_Alias9TextureIDS_
4686:__ZN4gles24CreateDepthRenderSurfaceEP7ApiGLESP17RenderSurfaceGLES17DepthBufferFormat
4687:__ZN18GfxFramebufferGLES30SetBackBufferColorDepthSurfaceEP17RenderSurfaceBaseS1_
4688:__ZN9GfxDevice30SetBackBufferColorDepthSurfaceEP17RenderSurfaceBaseS1_
4689:__ZN18GfxFramebufferGLES15DiscardContentsER12ObjectHandleI17RenderSurface_TagP17RenderSurfaceBaseE
4690:__ZN18GfxFramebufferGLES30ReadbackDepthIntoRenderTextureEP17RenderSurfaceGLES
4691:__ZN21ScalableBufferManager23UnregisterRenderSurfaceEP17RenderSurfaceBaseb
4692:__ZL23CreateRenderSurfaceBaseR9GfxDeviceb9TextureID16TextureDimensionjjjji18SurfaceCreateFlags
4693:__ZN13ComputeShader13SetValueParamERKN9ShaderLab16FastPropertyNameEiPKvb
4694:__ZN13ComputeShader14SetBufferParamEjRKN9ShaderLab16FastPropertyNameE15ComputeBufferIDb
4695:__ZN13ComputeShader21DispatchComputeShaderEjiiiP17ShaderPassContext
4696:__ZN13ComputeShader14BeforeDispatchEjiiiP17ShaderPassContext
4697:__ZN13ComputeShader20GetCompatibleVariantE17GfxDeviceRendereri
4698:__ZN13dynamic_arrayI19ComputeShaderKernelLm0EE21resize_buffer_nocheckEm12ResizePolicy
4699:__ZN19ComputeShaderKernelC2ERKS_
4700:__ZN13dynamic_arrayI15ComputeShaderCBLm0EE6assignEPKS0_S3_
4701:__ZN13dynamic_arrayI15ComputeShaderCBLm0EED2Ev
4702:__ZN13dynamic_arrayI19ComputeShaderKernelLm0EED2Ev
4703:__ZN13ComputeShader16ValidateDispatchEj
4704:__ZN13ComputeShader15SetTextureParamEjRKN9ShaderLab16FastPropertyNameE9TextureID16TextureDimensionibb
4705:__ZN16GeometryJobTasks19EndGeometryJobFrameER9GfxDevice
4706:__ZN13ComputeBuffer7SetDataER9GfxDevicePKvmm
4707:__ZN12GPUFencePool28ClearCompletedFencesInternalEv
4708:__ZN16GeometryJobTasks19PutGeometryJobFenceER9GfxDevice16GeometryJobFence
4709:__ZN16GeometryJobTasks26ScheduleSharedGeometryJobsER9GfxDevice16GeometryJobFencePFvP21SharedGeometryJobDatajEPFvS4_EPFvRK8JobFenceES4_jPK16DynamicVBOBufferSG_b
4710:__ZN23DynamicVBOBufferManager15GetBufferOffsetERK16DynamicVBOBuffer
4711:__ZN16GeometryJobTasks20ScheduleGeometryJobsER9GfxDevicePFvP15GeometryJobDataEPK22GeometryJobInstructionjb
4712:__ZN16GeometryJobTasks11PrepareTaskI22GeometryJobInstructionEEvPKT_j
4713:__ZN23DynamicVBOBufferManager21AcquireSharedInternalER9GfxDevice15GfxBufferTargetmj
4714:__ZN23DynamicVBOBufferManager12CleanupClassEv
4715:__ZN23DynamicVBOBufferManager9NextFrameEv
4716:__ZN22VertexDeclarationCache13GetVertexDeclERK18VertexChannelsInfo
4717:__ZN9GfxDevice14OnDeleteBufferEP9GfxBuffer
4718:__ZN10BufferGLES8EndWriteEm
4719:__ZN14DataBufferGLES16FlushMappedRangeEmm
4720:__ZN7ApiGLES11FlushBufferEjN2gl12BufferTargetEll
4721:__ZN10BufferGLES10BeginWriteEmm
4722:__ZN9GfxDevice14OnCreateBufferEP9GfxBuffer
4723:__ZN10BufferGLES10InitializeEPKv
4724:__ZN10BufferGLES12EnsureBufferERP14DataBufferGLESmNS0_11BufferUsageE
4725:__ZN10BufferGLESC2ERK13GfxBufferDesc
4726:__ZN19ConstantBuffersGLES8UpdateCBE5CbKeyPKvm
4727:__ZNSt3__26vectorINS_4pairI5CbKeyPN19ConstantBuffersGLES11ConstBufferEEENS_9allocatorIS6_EEE21__push_back_slow_pathIS6_EEvOT_
4728:__ZN9ShaderLab10SubProgramD2Ev
4729:__Z16CreateGpuProgram20ShaderGpuProgramTypeRK13dynamic_arrayIhLm0EER22CreateGpuProgramOutput
4730:__ZN18GlslGpuProgramGLESC2ERK13dynamic_arrayIhLm0EER22CreateGpuProgramOutput
4731:__ZN18GlslGpuProgramGLES6CreateERK13dynamic_arrayIhLm0EER17ShaderChannelMask
4732:__ZN22CreateGpuProgramOutput12CreateParamsEv
4733:__ZN16UniformCacheGLES6CreateERK13dynamic_arrayIN20GpuProgramParameters14ValueParameterELm0EERS0_IiLm0EE
4734:__ZN18GlslGpuProgramGLES5ClearEv
4735:__ZN4glsl18ExtractDefineBlockERKN4core12basic_stringIcNS0_20StringStorageDefaultIcEEEES6_PS4_
4736:__Z4TrimRKN4core12basic_stringIcNS_20StringStorageDefaultIcEEEES5_
4737:__ZN18GlslGpuProgramGLESD2Ev
4738:__ZN18GlslGpuProgramGLESD0Ev
4739:__ZNK10GpuProgram11IsSupportedEv
4740:__ZN18GlslGpuProgramGLES18ShaderPatchingInfoD2Ev
4741:__ZN13dynamic_arrayIN18GlslGpuProgramGLES9GLProgramELm0EED2Ev
4742:__ZN26SinglePassStereoSupportExt22RestoreStereoConstantsEv
4743:__ZN13dynamic_arrayI27StereoGlobalsConstantBufferLm0EE9push_backERKS0_
4744:__ZN26SinglePassStereoSupportExt21SetStereoScissorRectsEPK5RectTIiE
4745:__ZN26SinglePassStereoSupportExt17SetStereoViewportE15StereoscopicEyeRK5RectTIiEb
4746:__ZN26SinglePassStereoSupportExt15GetStereoMatrixE21MonoOrStereoscopicEye24BuiltinShaderMatrixParamR10Matrix4x4f
4747:__ZN26SinglePassStereoSupportExt23SetupStereoMatrixParamsE21MonoOrStereoscopicEye24BuiltinShaderMatrixParamRK10Matrix4x4f
4748:__ZN26SinglePassStereoSupportExt21SetStereoMatrixCommonE21MonoOrStereoscopicEye24BuiltinShaderMatrixParamRK10Matrix4x4f
4749:__ZN26SinglePassStereoSupportExt32UpdateStereoViewProjectionMatrixE21MonoOrStereoscopicEyeb
4750:__ZN9GfxDevice26UpdateViewProjectionMatrixEv
4751:__ZN26SinglePassStereoSupportExt31AfterUpdateViewProjectionMatrixEv
4752:__ZN9GfxDevice19SetProjectionMatrixERK10Matrix4x4f
4753:__ZN26SinglePassStereoSupportExt24AfterSetProjectionMatrixEv
4754:__ZN9GfxDevice13SetViewMatrixERK10Matrix4x4f
4755:__ZN26SinglePassStereoSupportExt18AfterSetViewMatrixEv
4756:__ZN9GfxDevice14SetWorldMatrixERK10Matrix4x4f
4757:__ZN7ApiGLES16BindStencilStateEPK15GfxStencilStatei
4758:__ZN7ApiGLES11SetCullModeE8CullMode
4759:__ZN4gles15UpdateColorMaskER15DeviceStateGLESPK20DeviceBlendStateGLESj
4760:_glBlendBarrier
4761:__ZN18GfxFramebufferGLES5ClearE13GfxClearFlagsRK10ColorRGBAffib
4762:__ZN23ScriptableRenderContext23ShouldUseRenderPipelineEv
4763:__ZNK16GraphicsSettings24GetCurrentRenderPipelineEv
4764:__Z14CheckErrorGLESPK7ApiGLESPKcS3_l
4765:__Z7LogGLESPKcS0_S0_l
4766:__ZN9GfxDevice15InvalidateStateEv
4767:__ZN18GfxFramebufferGLES32InvalidateActiveFramebufferStateEv
4768:__ZN13DrawImmediate10InvalidateEv
4769:__ZN9GfxDevice20CleanupSharedBuffersEv
4770:__Z24ReleaseBufferManagerGLESv
4771:__ZN22VertexDeclarationCache5ClearEv
4772:__ZNSt3__26__treeINS_12__value_typeIN2gl13ContextHandleEN14GfxContextGLES8InstanceEEENS_19__map_value_compareIS3_S6_NS_4lessIS3_EELb1EEENS_9allocatorIS6_EEE7destroyEPNS_11__tree_nodeIS6_PvEE
4773:__ZN22VertexDeclarationCacheD2Ev
4774:__ZN15DeviceStateGLESD2Ev
4775:__ZN9GfxDeviceD2Ev
4776:__ZN9GfxDevice8OnDeleteEv
4777:__ZNSt3__26__treeINS_12__value_typeI9TextureIDmEENS_19__map_value_compareIS2_S3_NS_4lessIS2_EELb1EEENS_9allocatorIS3_EEE7destroyEPNS_11__tree_nodeIS3_PvEE
4778:__ZN13dynamic_arrayIN15RenderPassSetup7SubPassELm0EED2Ev
4779:__ZN13DrawImmediateD2Ev
4780:__ZN9GfxDevice18BeforePluginRenderEv
4781:__ZN9GfxDevice25SetInvertProjectionMatrixEb
4782:__ZN9GfxDevice21RegisterNativeTextureE9TextureIDl16TextureDimension
4783:__ZN9GfxDevice23UnregisterNativeTextureE9TextureID
4784:__ZN9GfxDevice11CopyTextureE9TextureIDiiiiiiiiiS0_iiiiii
4785:__ZN9GfxDevice19CreateSparseTextureE9TextureIDii14GraphicsFormati
4786:__ZN9GfxDevice23UploadSparseTextureTileE9TextureIDiiiPKhii
4787:__ZN9GfxDevice33InsertPluginTextureUpdateCallbackEPFviPvER44UnityRenderingExtTextureUpdateParamsInternal
4788:__ZN9GfxDevice10CopyBufferEP9GfxBufferS1_
4789:__ZN7ApiGLESD2Ev
4790:__ZNSt3__26__treeI17DeviceRasterState14MemoryCompLessIS1_ENS_9allocatorIS1_EEE7destroyEPNS_11__tree_nodeIS1_PvEE
4791:__ZNSt3__26__treeI20DeviceBlendStateGLES14MemoryCompLessI16DeviceBlendStateENS_9allocatorIS1_EEE7destroyEPNS_11__tree_nodeIS1_PvEE
4792:__ZNSt3__26__treeI22DeviceStencilStateGLES14MemoryCompLessI18DeviceStencilStateENS_9allocatorIS1_EEE7destroyEPNS_11__tree_nodeIS1_PvEE
4793:__ZNSt3__26__treeI20DeviceDepthStateGLES14MemoryCompLessIS1_ENS_9allocatorIS1_EEE7destroyEPNS_11__tree_nodeIS1_PvEE
4794:__ZNSt3__26__treeINS_12__value_typeI18VertexChannelsInfoP17VertexDeclarationEENS_19__map_value_compareIS2_S5_NS_4lessIS2_EELb1EEE13stl_allocatorIS5_L18MemLabelIdentifier18ELi16EEE7destroyEPNS_11__tree_nodeIS5_PvEE
4795:__ZN14GfxContextGLES8InstanceD2Ev
4796:__ZN17BufferManagerGLESD2Ev
4797:__ZN17BufferManagerGLES5ClearEv
4798:__ZN22LocalFileSystemHandler18IsAbsoluteFilePathEPKc
4799:__ZN22LocalFileSystemHandler19InitializeFileEntryER13FileEntryData
4800:__ZN22LocalFileSystemHandler4NameEv
4801:__ZNK17FileSystemHandler10IsReadOnlyERK13FileEntryData
4802:__ZN17FileSystemHandler11MoveToTrashER13FileEntryData
4803:__ZN17FileSystemHandler11SetReadOnlyER13FileEntryDatab
4804:__ZNK17FileSystemHandler12GetAssetGUIDERK13FileEntryData
4805:__ZN22LocalFileSystemHandler9MakeLocalER13FileEntryDatab
4806:__ZNK22LocalFileSystemHandler7ToLocalERK13FileEntryDataRN4core12basic_stringIcNS3_20StringStorageDefaultIcEEEERyS9_
4807:__ZNK17FileSystemHandler31CreateFileWithContentAtomicallyERK13FileEntryDataPKvy
4808:__ZNK22LocalFileSystemHandler17GetExecutablePathEv
4809:__Z14AppendPathNameRKN4core12basic_stringIcNS_20StringStorageDefaultIcEEEES5_
4810:__ZL18AppendPathNameImplRKN4core12basic_stringIcNS_20StringStorageDefaultIcEEEES5_cRS3_
4811:__ZN18ScriptingArguments9AddIntPtrEPv
4812:__ZN18ScriptingArguments8AddArrayE17ScriptingArrayPtr
4813:__ZN18ScriptingArguments6AddIntEi
4814:__ZN18ScriptingArguments7AddEnumEi
4815:__ZN12HandlerChainD2Ev
4816:__ZN12HandlerChainD0Ev
4817:__ZN12HandlerChain4OpenER13FileEntryData14FilePermission16FileAutoBehavior
4818:__ZN12HandlerChain4ReadER13FileEntryDatayyPvPy
4819:__ZN12HandlerChain4ReadER13FileEntryDatayPvPy
4820:__ZN12HandlerChain4SeekER13FileEntryDatax10FileOrigin
4821:__ZNK12HandlerChain8PositionERK13FileEntryData
4822:__ZN12HandlerChain9SetLengthER13FileEntryDatay
4823:__ZNK12HandlerChain4SizeERK13FileEntryData
4824:__ZNK12HandlerChain9CanHandleEPKc
4825:__ZN12HandlerChain10ToAbsoluteEPKc
4826:__ZN12HandlerChain18IsAbsoluteFilePathEPKc
4827:__ZN12HandlerChain4NameEv
4828:__ZNK12HandlerChain6ParentERK13FileEntryDataRN4core12basic_stringIcNS3_20StringStorageDefaultIcEEEE
4829:__ZNK12HandlerChain8FilenameERK13FileEntryData
4830:__ZNK12HandlerChain5IsDirERK13FileEntryData
4831:__ZNK12HandlerChain8IsHiddenERK13FileEntryData
4832:__ZNK12HandlerChain9IsSymLinkERK13FileEntryData
4833:__ZNK12HandlerChain12LastModifiedERK13FileEntryData
4834:__ZN12HandlerChain8IsLockedERK13FileEntryData
4835:__ZN12HandlerChain11HasFastHashERK13FileEntryDataR7Hash128
4836:__ZN12HandlerChain8SetFlagsER13FileEntryDatajj
4837:__ZN12HandlerChain12CreateAsFileER13FileEntryData
4838:__ZN12HandlerChain11CreateAsDirER13FileEntryData
4839:__ZN12HandlerChain6DeleteER13FileEntryDatab
4840:__ZN12HandlerChain11MoveToTrashER13FileEntryData
4841:__ZNK12HandlerChain6TargetERK13FileEntryDataR15FileSystemEntry
4842:__ZN12HandlerChain4LockER13FileEntryData12FileLockMode
4843:__ZN12HandlerChain4CopyER13FileEntryDataS1_
4844:__ZN12HandlerChain10AtomicMoveER13FileEntryDataS1_
4845:__ZNK12HandlerChain12GetAssetGUIDERK13FileEntryData
4846:__ZN12HandlerChain9MakeLocalER13FileEntryDatab
4847:__ZNK12HandlerChain7ToLocalERK13FileEntryDataRN4core12basic_stringIcNS3_20StringStorageDefaultIcEEEERyS9_
4848:__ZNK12HandlerChain9EnumerateEPKcP19dynamic_block_arrayI13FileEntryInfoLm32EEbPPv19FileEnumerationFlag
4849:__ZNK12HandlerChain6ExistsERK13FileEntryData
4850:__ZN20LocalFileSystemPosixD2Ev
4851:__ZN20LocalFileSystemPosixD0Ev
4852:__ZN20LocalFileSystemPosix4OpenER13FileEntryData14FilePermission16FileAutoBehavior
4853:__ZN20LocalFileSystemPosix4ReadER13FileEntryDatayyPvPy
4854:__ZN20LocalFileSystemPosix4ReadER13FileEntryDatayPvPy
4855:__ZN20LocalFileSystemPosix5WriteER13FileEntryDatayyPvPy
4856:__ZN20LocalFileSystemPosix5WriteER13FileEntryDatayPvPy
4857:__ZN20LocalFileSystemPosix5CloseER13FileEntryData
4858:__ZN20LocalFileSystemPosix4SeekER13FileEntryDatax10FileOrigin
4859:__ZNK20LocalFileSystemPosix8PositionERK13FileEntryData
4860:__ZN20LocalFileSystemPosix9SetLengthER13FileEntryDatay
4861:__ZNK20LocalFileSystemPosix4SizeERK13FileEntryData
4862:__ZN20LocalFileSystemPosix10ToAbsoluteEPKc
4863:__ZNK20LocalFileSystemPosix6ParentERK13FileEntryDataRN4core12basic_stringIcNS3_20StringStorageDefaultIcEEEE
4864:__ZNK20LocalFileSystemPosix8FilenameERK13FileEntryData
4865:__ZNK20LocalFileSystemPosix5IsDirERK13FileEntryData
4866:__ZNK20LocalFileSystemPosix9IsSymLinkERK13FileEntryData
4867:__ZNK20LocalFileSystemPosix10IsReadOnlyERK13FileEntryData
4868:__ZNK20LocalFileSystemPosix12LastModifiedERK13FileEntryData
4869:__ZN20LocalFileSystemPosix8IsLockedERK13FileEntryData
4870:__ZN20LocalFileSystemPosix8SetFlagsER13FileEntryDatajj
4871:__ZN20LocalFileSystemPosix12CreateAsFileER13FileEntryData
4872:__ZN20LocalFileSystemPosix11CreateAsDirER13FileEntryData
4873:__ZN20LocalFileSystemPosix6DeleteER13FileEntryDatab
4874:__ZNK20LocalFileSystemPosix6TargetERK13FileEntryDataR15FileSystemEntry
4875:__ZN20LocalFileSystemPosix4LockER13FileEntryData12FileLockMode
4876:__ZN20LocalFileSystemPosix11SetReadOnlyER13FileEntryDatab
4877:__ZN20LocalFileSystemPosix4CopyER13FileEntryDataS1_
4878:__ZN20LocalFileSystemPosix10AtomicMoveER13FileEntryDataS1_
4879:__ZNK20LocalFileSystemPosix9EnumerateEPKcP19dynamic_block_arrayI13FileEntryInfoLm32EEbPPv19FileEnumerationFlag
4880:__ZN20LocalFileSystemPosix5TouchER13FileEntryData
4881:__ZN20LocalFileSystemPosix16SetFileTimeStampER13FileEntryDataRK8DateTime
4882:__ZNK20LocalFileSystemPosix6ExistsERK13FileEntryData
4883:__ZNK20LocalFileSystemPosix18GetApplicationPathEv
4884:__ZNK20LocalFileSystemPosix20GetApplicationFolderEv
4885:__ZNK20LocalFileSystemPosix25GetApplicationManagedPathEv
4886:__ZNK20LocalFileSystemPosix26GetApplicationContentsPathEv
4887:__ZNK20LocalFileSystemPosix21GetUserAppCacheFolderEv
4888:__ZNK20LocalFileSystemPosix20GetUserAppDataFolderEv
4889:__ZNK20LocalFileSystemPosix19GetUserConfigFolderEv
4890:__ZNK20LocalFileSystemPosix21GetAvailableDiskSpaceEPKcRy
4891:__Z18IsDirectoryCreatedRKN4core12basic_stringIcNS_20StringStorageDefaultIcEEEE
4892:__ZNK15FileSystemEntry12FolderExistsEv
4893:__Z15CreateDirectoryRKN4core12basic_stringIcNS_20StringStorageDefaultIcEEEE
4894:__Z27DeleteLastPathNameComponentRKN4core12basic_stringIcNS_20StringStorageDefaultIcEEEE
4895:__ZL31DeleteLastPathNameComponentImplRKN4core12basic_stringIcNS_20StringStorageDefaultIcEEEEPKc
4896:__Z8EndsWithPKcmS0_m
4897:__Z23EndsWithCaseInsensitivePKcmS0_m
4898:__ZN19dynamic_block_arrayI13FileEntryInfoLm32EE4growEm
4899:__ZN13dynamic_arrayI13FileEntryInfoLm0EE4growEv
4900:__ZN12FileAccessor4OpenEPKc14FilePermission16FileAutoBehavior
4901:__ZNK12FileAccessor4SizeEv
4902:__ZN12FileAccessor4ReadEyPvPy
4903:__ZN12FileAccessor5WriteEyPKvPy
4904:__ZN20LocalFileSystemPosix15SynchronizeModeERK13FileEntryDataS2_
4905:__Z22IsFileOrDirectoryInUseRKN4core12basic_stringIcNS_20StringStorageDefaultIcEEEE
4906:__ZNSt3__26__treeIN4core12basic_stringIcNS1_20StringStorageDefaultIcEEEENS_4lessIS5_EENS_9allocatorIS5_EEE7destroyEPNS_11__tree_nodeIS5_PvEE
4907:__ZN13FileEntryDataC2ERKS_
4908:__Z23GetFolderContentsAtPathRKN4core12basic_stringIcNS_20StringStorageDefaultIcEEEE19FileEnumerationFlagRNSt3__23setIS3_NS7_4lessIS3_EENS7_9allocatorIS3_EEEE22FolderContentsPathModeS5_
4909:__ZNK10FileSystem9EnumerateEPKcP19dynamic_block_arrayI13FileEntryInfoLm32EEb19FileEnumerationFlag
4910:__ZL33FileEntryInfoListToFolderContentsRKN4core12basic_stringIcNS_20StringStorageDefaultIcEEEERK19dynamic_block_arrayI13FileEntryInfoLm32EERNSt3__23setIS3_NSB_4lessIS3_EENSB_9allocatorIS3_EEEE
4911:__ZL41FileEntryInfoListToFolderContentsAbsoluteRK19dynamic_block_arrayI13FileEntryInfoLm32EERNSt3__23setIN4core12basic_stringIcNS6_20StringStorageDefaultIcEEEENS4_4lessISA_EENS4_9allocatorISA_EEEE
4912:__ZNSt3__26__treeIN4core12basic_stringIcNS1_20StringStorageDefaultIcEEEENS_4lessIS5_EENS_9allocatorIS5_EEE25__emplace_unique_key_argsIS5_JS5_EEENS_4pairINS_15__tree_iteratorIS5_PNS_11__tree_nodeIS5_PvEElEEbEERKT_DpOT0_
4913:__Z14SkipPathPrefixPKcS0_mb
4914:__Z7StrNCmpPKcS0_m
4915:__Z6StrStrPKcS0_
4916:__ZN20LocalFileSystemPosix20GetHomeDirectoryPathEv
4917:__ZN11TimeManagerD2Ev
4918:__ZN11TimeManagerD0Ev
4919:__ZN11GameManager17MainThreadCleanupEv
4920:__ZN11TimeManager13AwakeFromLoadE17AwakeFromLoadMode
4921:__ZN11TimeManager16CheckConsistencyEv
4922:__ZN11TimeManager5ResetEv
4923:__ZNK11TimeManager22GetTypeVirtualInternalEv
4924:__ZN6Object24SetCachedScriptingObjectE18ScriptingObjectPtr
4925:__ZN11TimeManager23VirtualRedirectTransferER19StreamedBinaryWrite
4926:__ZN11TimeManager23VirtualRedirectTransferER18StreamedBinaryRead
4927:__ZN11TimeManager23VirtualRedirectTransferER24GenerateTypeTreeTransfer
4928:__ZN11TimeManager23VirtualRedirectTransferER14SafeBinaryRead
4929:__ZN11TimeManager6UpdateEv
4930:__ZN14SafeBinaryRead13BeginTransferEPKcS1_PPFbPvRS_Eb
4931:__ZN15SerializeTraitsI11TimeManagerE8TransferI14SafeBinaryReadEEvRS0_RT_
4932:__ZN14SafeBinaryRead11EndTransferEv
4933:__ZN12CachedReader15UpdateReadCacheEPvm
4934:__ZN13dynamic_arrayIN14SafeBinaryRead11StackedInfoELm0EE4growEv
4935:__ZL4WalkRK16TypeTreeIteratorR12CachedReaderPxbRN12TypeTreeNode10ETypeFlagsE
4936:__Z23GetAllowNameConversionsPK20AllowNameConversionsPKcS3_
4937:__Z13FindConverterPKcS0_
4938:__ZN11TimeManager8TransferI24GenerateTypeTreeTransferEEvRT_
4939:__ZN11TimeManager8TransferI18StreamedBinaryReadEEvRT_
4940:__ZN11TimeManager8TransferI19StreamedBinaryWriteEEvRT_
4941:__ZN12CachedWriter16UpdateWriteCacheEPKvm
4942:__ZN11GameManagerD2Ev
4943:__ZN11GameManagerD0Ev
4944:__ZNK11GameManager22GetTypeVirtualInternalEv
4945:__ZNK17GlobalGameManager22GetTypeVirtualInternalEv
4946:__ZN17GlobalGameManager23VirtualRedirectTransferER24GenerateTypeTreeTransfer
4947:__ZN17GlobalGameManager23VirtualRedirectTransferER14SafeBinaryRead
4948:__ZN12InputManagerD2Ev
4949:__ZN12InputManagerD0Ev
4950:__ZN12InputManager16CheckConsistencyEv
4951:__ZN12InputManager5ResetEv
4952:__ZNK12InputManager22GetTypeVirtualInternalEv
4953:__ZN12InputManager23VirtualRedirectTransferER19StreamedBinaryWrite
4954:__ZN12InputManager23VirtualRedirectTransferER18StreamedBinaryRead
4955:__ZN12InputManager23VirtualRedirectTransferER17RemapPPtrTransfer
4956:__ZN12InputManager23VirtualRedirectTransferER24GenerateTypeTreeTransfer
4957:__ZN12InputManager23VirtualRedirectTransferER14SafeBinaryRead
4958:__ZN12InputManager8TransferI14SafeBinaryReadEEvRT_
4959:__ZN14SafeBinaryRead21TransferSTLStyleArrayI13dynamic_arrayI9InputAxisLm0EEEEvRT_17TransferMetaFlags
4960:__Z10AddGUIAxesR13dynamic_arrayI9InputAxisLm0EE
4961:__ZN9InputAxisC2ERKN4core12basic_stringIcNS0_20StringStorageDefaultIcEEEE
4962:__ZN13dynamic_arrayI9InputAxisLm0EE9push_backERKS0_
4963:__Z11StringToKeyRKN4core12basic_stringIcNS_20StringStorageDefaultIcEEEE
4964:__ZN14SafeBinaryRead18BeginArrayTransferEPKcS1_Ri
4965:__ZN13dynamic_arrayI9InputAxisLm0EE18resize_initializedEm12ResizePolicy
4966:__ZN9InputAxis8TransferI14SafeBinaryReadEEvRT_
4967:__ZN14SafeBinaryRead16EndArrayTransferEv
4968:__ZN12InputManager8TransferI24GenerateTypeTreeTransferEEvRT_
4969:__ZN9InputAxis8TransferI24GenerateTypeTreeTransferEEvRT_
4970:__ZN9InputAxis8TransferI18StreamedBinaryReadEEvRT_
4971:__ZN9InputAxis8TransferI19StreamedBinaryWriteEEvRT_
4972:__ZN19StreamedBinaryWrite5AlignEv
4973:__ZN12CachedWriter11Align4WriteEv
4974:__ZN12InputManager11MakeDefaultEv
4975:__ZN13dynamic_arrayI9InputAxisLm0EED2Ev
4976:__ZN13GfxDeviceNullD2Ev
4977:__ZN13GfxDeviceNullD0Ev
4978:__ZN13GfxDeviceNull5ClearE13GfxClearFlagsRK10ColorRGBAffj
4979:__ZN13GfxDeviceNull16CreateBlendStateERK13GfxBlendState
4980:__ZN13GfxDeviceNull16CreateDepthStateERK13GfxDepthState
4981:__ZN13GfxDeviceNull18CreateStencilStateERK15GfxStencilState
4982:__ZN13GfxDeviceNull17CreateRasterStateERK14GfxRasterState
4983:__ZN13GfxDeviceNull19SetUserBackfaceModeEb
4984:__ZNK13GfxDeviceNull11GetViewportEv
4985:__ZN13GfxDeviceNull16CreateGpuProgramE20ShaderGpuProgramTypeRK13dynamic_arrayIhLm0EER22CreateGpuProgramOutput
4986:__ZN13GfxDeviceNull17DestroySubProgramEPN9ShaderLab10SubProgramE
4987:__ZN13GfxDeviceNull17DestroyGpuProgramEPK10GpuProgram
4988:__ZN13GfxDeviceNull22AllocateBufferInternalERK13GfxBufferDesc
4989:__ZN13GfxDeviceNull24InitializeBufferInternalEP9GfxBufferPKv20GfxUpdateBufferFlags
4990:__ZN13GfxDeviceNull18UpdateBufferRangesEP9GfxBufferPK20GfxUpdateBufferRangeimm20GfxUpdateBufferFlags
4991:__ZN13GfxDeviceNull12DeleteBufferEP9GfxBuffer
4992:__ZNK13GfxDeviceNull27GetActiveRenderColorSurfaceEi
4993:__ZNK13GfxDeviceNull27GetActiveRenderDepthSurfaceEv
4994:__ZNK13GfxDeviceNull26GetActiveRenderTargetCountEv
4995:__ZN13GfxDeviceNull29RenderSurfaceStructMemorySizeEb
4996:__ZN13GfxDeviceNull32CreateColorRenderSurfacePlatformEP17RenderSurfaceBase14GraphicsFormat
4997:__ZN13GfxDeviceNull15UploadTexture2DE9TextureID16TextureDimensionPKhiii14GraphicsFormati18TextureUploadFlags16TextureUsageMode
4998:__ZN13GfxDeviceNull10BeginFrameEv
4999:__ZN13GfxDeviceNull8EndFrameEv
5000:__ZN13GfxDeviceNull15ImmediateVertexEfff
5001:__ZN13GfxDeviceNull17ImmediateTexCoordEifff
5002:__ZN13GfxDeviceNull17CaptureScreenshotEiiiiPh
5003:__ZN13GfxDeviceNull13ReadbackImageER14ImageReferenceiiiiii
5004:__ZN13GfxDeviceNull20SetRenderTargetsImplERK20GfxRenderTargetSetup
5005:__ZN5Unity9Component16CheckConsistencyEv
5006:__ZNK5Unity9Component7GetNameEv
5007:__ZN5Unity9Component7SetNameEPKc
5008:__ZN9Behaviour10DeactivateE19DeactivateOperation
5009:__ZN9Behaviour10SetEnabledEb
5010:__ZN9Transform18GetTransformAccessEv
5011:__ZN32TransformHierarchyChangeDispatch19SetSystemInterestedE15TransformAccess36TransformHierarchyChangeSystemHandleb
5012:__Z25FindAncestorComponentImplR10GameObjectPKN5Unity4TypeE
5013:__ZN9Behaviour8TransferI14SafeBinaryReadEEvRT_
5014:__ZN5Unity9Component8TransferI14SafeBinaryReadEEvRT_
5015:__ZN12ImmediatePtrI10GameObjectE8TransferI14SafeBinaryReadEEvRT_
5016:__Z43LocalSerializedObjectIdentifierToInstanceIDRK31LocalSerializedObjectIdentifierRi
5017:__Z38PreallocateObjectFromPersistentManagerib
5018:__ZN9Behaviour8TransferI24GenerateTypeTreeTransferEEvRT_
5019:__ZN5Unity9Component8TransferI24GenerateTypeTreeTransferEEvRT_
5020:__ZN9Behaviour8TransferI17RemapPPtrTransferEEvRT_
5021:__ZN5Unity9Component8TransferI17RemapPPtrTransferEEvRT_
5022:__ZN17RemapPPtrTransfer12PushMetaFlagE17TransferMetaFlags
5023:__ZN9Behaviour8TransferI18StreamedBinaryReadEEvRT_
5024:__ZN5Unity9Component8TransferI18StreamedBinaryReadEEvRT_
5025:__ZN12ImmediatePtrI10GameObjectE8TransferI18StreamedBinaryReadEEvRT_
5026:__ZN9Behaviour8TransferI19StreamedBinaryWriteEEvRT_
5027:__ZN5Unity9Component8TransferI19StreamedBinaryWriteEEvRT_
5028:__ZN12ImmediatePtrI10GameObjectE8TransferI19StreamedBinaryWriteEEvRT_
5029:__Z43InstanceIDToLocalSerializedObjectIdentifieriR31LocalSerializedObjectIdentifier
5030:__ZN17PersistentManager43InstanceIDToLocalSerializedObjectIdentifierEiR31LocalSerializedObjectIdentifier
5031:__ZN17PersistentManager32GlobalToLocalSerializedFileIndexERK26SerializedObjectIdentifier
5032:__ZN14SerializedFile14AddExternalRefERK14FileIdentifier
5033:__ZN10GameObject28FinalizeAddComponentInternalEPN5Unity9ComponentE
5034:__ZN9Behaviour13AwakeFromLoadE17AwakeFromLoadMode
5035:__ZNK5Unity9Component22GetTypeVirtualInternalEv
5036:__ZN5Unity9Component23VirtualRedirectTransferER24GenerateTypeTreeTransfer
5037:__ZN5Unity9Component23VirtualRedirectTransferER14SafeBinaryRead
5038:__ZN5Unity9Component10SetEnabledEb
5039:__ZN9BehaviourD2Ev
5040:__ZNK9Behaviour22GetTypeVirtualInternalEv
5041:__ZN9Behaviour23VirtualRedirectTransferER24GenerateTypeTreeTransfer
5042:__ZN9Behaviour23VirtualRedirectTransferER14SafeBinaryRead
5043:__ZN11NamedObject7SetNameEPKc
5044:__ZN11NamedObject8TransferI14SafeBinaryReadEEvRT_
5045:__ZN14SafeBinaryRead21TransferSTLStyleArrayI13dynamic_arrayIN4core12basic_stringIcNS2_20StringStorageDefaultIcEEEELm0EEEEvRT_17TransferMetaFlags
5046:__ZN5RectTIfE8TransferI14SafeBinaryReadEEvRT_
5047:__ZN14ConstantString6assignEPKc10MemLabelId
5048:__ZN14ConstantString6assignEPKci10MemLabelId
5049:__ZN11NamedObject8TransferI24GenerateTypeTreeTransferEEvRT_
5050:__ZN11NamedObject8TransferI18StreamedBinaryReadEEvRT_
5051:__ZN18StreamedBinaryRead21TransferSTLStyleArrayI13dynamic_arrayIN4core12basic_stringIcNS2_20StringStorageDefaultIcEEEELm0EEEEvRT_17TransferMetaFlags
5052:__ZN11NamedObject8TransferI19StreamedBinaryWriteEEvRT_
5053:__ZN11NamedObjectD2Ev
5054:__ZN11NamedObjectD0Ev
5055:__ZNK11NamedObject22GetTypeVirtualInternalEv
5056:__ZN11NamedObject23VirtualRedirectTransferER24GenerateTypeTreeTransfer
5057:__ZN11NamedObject23VirtualRedirectTransferER14SafeBinaryRead
5058:__ZN17LowLevelAllocator4FreeEPvm
5059:__ZN17LowLevelAllocator7ReallocEPvmm
5060:__ZN12TLSAllocatorD2Ev
5061:__ZN12TLSAllocatorD0Ev
5062:__ZN12TLSAllocator10DeallocateEPv
5063:__ZNK12TLSAllocator8ContainsEPKv
5064:__ZNK12TLSAllocator10IsAssignedEv
5065:__ZNK12TLSAllocator22GetAllocatedMemorySizeEv
5066:__ZNK12TLSAllocator21GetReservedMemorySizeEv
5067:__ZNK12TLSAllocator24GetBookKeepingMemorySizeEv
5068:__ZN12TLSAllocator13ThreadCleanupEv
5069:__ZN12TLSAllocator16FrameMaintenanceEb
5070:__ZN12TLSAllocator19EnableLeakDetectionEb
5071:__ZN12TLSAllocator28SetBlockSizeForCurrentThreadEm
5072:__ZN12TLSAllocator11GetNewBlockEmPmS0_
5073:__ZN22LocalLowLevelAllocator18ReserveMemoryBlockEm
5074:__ZN22LocalLowLevelAllocatorD2Ev
5075:__ZN25ThreadsafeLinearAllocatorD2Ev
5076:__ZN25ThreadsafeLinearAllocatorD0Ev
5077:__ZN25ThreadsafeLinearAllocator8AllocateEmi
5078:__ZN25ThreadsafeLinearAllocator10ReallocateEPvmi
5079:__ZN25ThreadsafeLinearAllocator10DeallocateEPv
5080:__ZNK25ThreadsafeLinearAllocator8ContainsEPKv
5081:__ZNK25ThreadsafeLinearAllocator10GetPtrSizeEPKv
5082:__ZNK25ThreadsafeLinearAllocator22GetAllocatedMemorySizeEv
5083:__ZN25ThreadsafeLinearAllocator16FrameMaintenanceEb
5084:__ZN25ThreadsafeLinearAllocator15SelectFreeBlockEm
5085:__ZN10TagManagerD2Ev
5086:__ZN10TagManagerD0Ev
5087:__ZN10TagManager5ResetEv
5088:__ZNK10TagManager22GetTypeVirtualInternalEv
5089:__ZN10TagManager23VirtualRedirectTransferER19StreamedBinaryWrite
5090:__ZN10TagManager23VirtualRedirectTransferER18StreamedBinaryRead
5091:__ZN10TagManager23VirtualRedirectTransferER17RemapPPtrTransfer
5092:__ZN10TagManager23VirtualRedirectTransferER24GenerateTypeTreeTransfer
5093:__ZN10TagManager23VirtualRedirectTransferER14SafeBinaryRead
5094:__ZN10TagManager8TransferI14SafeBinaryReadEEvRT_
5095:__ZN10TagManager32RegisterDefaultTagsAndLayerMasksEv
5096:__ZN10TagManager11RegisterTagEjRKN4core12basic_stringIcNS0_20StringStorageDefaultIcEEEE
5097:__ZN10TagManager13RegisterLayerEjRKN4core12basic_stringIcNS0_20StringStorageDefaultIcEEEE
5098:__ZN14SafeBinaryRead21TransferSTLStyleArrayI13dynamic_arrayI17SortingLayerEntryLm0EEEEvRT_17TransferMetaFlags
5099:__ZN10TagManager23AddDefaultLayerIfNeededEv
5100:__ZN15SerializeTraitsI17SortingLayerEntryE8TransferI14SafeBinaryReadEEvRS0_RT_
5101:__ZNSt3__26__treeINS_12__value_typeIN4core12basic_stringIcNS2_20StringStorageDefaultIcEEEEjEENS_19__map_value_compareIS6_S7_NS_4lessIS6_EELb1EEE13stl_allocatorIS7_L18MemLabelIdentifier10ELi16EEE25__emplace_unique_key_argsIS6_JNS_4pairIS6_jEEEEENSH_INS_15__tree_iteratorIS7_PNS_11__tree_nodeIS7_PvEElEEbEERKT_DpOT0_
5102:__ZNSt3__26__treeINS_12__value_typeIN4core12basic_stringIcNS2_20StringStorageDefaultIcEEEEjEENS_19__map_value_compareIS6_S7_NS_4lessIS6_EELb1EEE13stl_allocatorIS7_L18MemLabelIdentifier10ELi16EEE7destroyEPNS_11__tree_nodeIS7_PvEE
5103:__ZNSt3__26__treeINS_12__value_typeIjN4core12basic_stringIcNS2_20StringStorageDefaultIcEEEEEENS_19__map_value_compareIjS7_NS_4lessIjEELb1EEE13stl_allocatorIS7_L18MemLabelIdentifier10ELi16EEE7destroyEPNS_11__tree_nodeIS7_PvEE
5104:__ZN10TagManager8TransferI24GenerateTypeTreeTransferEEvRT_
5105:__ZN10TagManager8TransferI17RemapPPtrTransferEEvRT_
5106:__ZN10TagManager8TransferI18StreamedBinaryReadEEvRT_
5107:__ZN18StreamedBinaryRead21TransferSTLStyleArrayI13dynamic_arrayI17SortingLayerEntryLm0EEEEvRT_17TransferMetaFlags
5108:__ZN10TagManager8TransferI19StreamedBinaryWriteEEvRT_
5109:__ZN15SerializeTraitsI13dynamic_arrayI17SortingLayerEntryLm0EEE8TransferI19StreamedBinaryWriteEEvRS2_RT_
5110:__ZN10TagManager15ThreadedCleanupEv
5111:__ZN13dynamic_arrayI17SortingLayerEntryLm0EED2Ev
5112:__ZNK6Object22GetTypeVirtualInternalEv
5113:__ZNK16LevelGameManager22GetTypeVirtualInternalEv
5114:__ZN16LevelGameManager23VirtualRedirectTransferER24GenerateTypeTreeTransfer
5115:__ZN16LevelGameManager23VirtualRedirectTransferER14SafeBinaryRead
5116:__ZN10GameObjectD2Ev
5117:__ZN10GameObjectD0Ev
5118:__ZN10GameObject13AwakeFromLoadE17AwakeFromLoadMode
5119:__ZN10GameObject16CheckConsistencyEv
5120:__ZN10GameObject5ResetEv
5121:__ZNK10GameObject22GetTypeVirtualInternalEv
5122:__ZNK10GameObject7GetNameEv
5123:__ZN10GameObject7SetNameEPKc
5124:__ZN10GameObject12SetHideFlagsEN6Object9HideFlagsE
5125:__ZN10GameObject23VirtualRedirectTransferER19StreamedBinaryWrite
5126:__ZN10GameObject23VirtualRedirectTransferER18StreamedBinaryRead
5127:__ZN10GameObject23VirtualRedirectTransferER17RemapPPtrTransfer
5128:__ZN10GameObject23VirtualRedirectTransferER24GenerateTypeTreeTransfer
5129:__ZN10GameObject23VirtualRedirectTransferER14SafeBinaryRead
5130:__ZN10GameObject8TransferI14SafeBinaryReadEEvRT_
5131:__ZN10GameObject18TransferComponentsI14SafeBinaryReadEEvRT_
5132:__ZN14SafeBinaryRead21TransferSTLStyleArrayI13dynamic_arrayINSt3__24pairIi12ImmediatePtrIN5Unity9ComponentEEEELm0EEEEvRT_17TransferMetaFlags
5133:__ZN14SafeBinaryRead21TransferSTLStyleArrayI13dynamic_arrayIN10GameObject13ComponentPairELm0EEEEvRT_17TransferMetaFlags
5134:__ZN12ImmediatePtrIN5Unity9ComponentEE8TransferI14SafeBinaryReadEEvRT_
5135:__ZN14SafeBinaryRead8TransferIN10GameObject13ComponentPairEEEvRT_PKc17TransferMetaFlags
5136:__ZN15SerializeTraitsINSt3__24pairIi12ImmediatePtrIN5Unity9ComponentEEEEE8TransferI14SafeBinaryReadEEvRS6_RT_
5137:__ZN10GameObject8TransferI24GenerateTypeTreeTransferEEvRT_
5138:__ZN10GameObject18TransferComponentsI24GenerateTypeTreeTransferEEvRT_
5139:__ZN10GameObject18TransferComponentsI17RemapPPtrTransferEEvRT_
5140:__ZN17RemapPPtrTransfer8TransferI13dynamic_arrayIN10GameObject13ComponentPairELm0EEEEvRT_PKc17TransferMetaFlags
5141:__ZN10GameObject8TransferI18StreamedBinaryReadEEvRT_
5142:__ZN10GameObject18TransferComponentsI18StreamedBinaryReadEEvRT_
5143:__ZN18StreamedBinaryRead21TransferSTLStyleArrayI13dynamic_arrayIN10GameObject13ComponentPairELm0EEEEvRT_17TransferMetaFlags
5144:__ZN12ImmediatePtrIN5Unity9ComponentEE8TransferI18StreamedBinaryReadEEvRT_
5145:__ZN10GameObject8TransferI19StreamedBinaryWriteEEvRT_
5146:__ZN10GameObject18TransferComponentsI19StreamedBinaryWriteEEvRT_
5147:__Z17IsObjectAvailablei
5148:__ZN10GameObject21EnsureUniqueTransformEv
5149:__Z24MergeTransformComponentsR9TransformS0_b
5150:__Z30AddTransformComponentUncheckedR10GameObjectPKN5Unity4TypeE
5151:__ZN10UnityScene14AddRootToSceneERS_R9Transform
5152:__ZN10GameObject20AddComponentInternalEPN5Unity9ComponentE
5153:__ZN9Transform7GetRootEv
5154:__ZN9Transform47ClearTransformHierarchyAndApplyToSerializedDataEv
5155:__ZN9Transform4FindEPKS_
5156:__ZN9Transform25RebuildTransformHierarchyEv
5157:__ZN9Transform35SetLocalPositionWithoutNotificationERKN4math7_float3Ey
5158:__ZN9Transform35SetLocalRotationWithoutNotificationERKN4math7_float4Ey
5159:__ZN9Transform32SetLocalScaleWithoutNotificationERKN4math7_float3Ey
5160:__ZN17TransformInternal36OnScaleChangedCalculateTransformTypeE15TransformAccess
5161:__ZNK9Transform14CountNodesDeepEv
5162:__ZN17TransformInternal24CreateTransformHierarchyEj10MemLabelId
5163:__ZN17TransformInternal23AllocateTransformThreadER18TransformHierarchyjj
5164:__ZN9Transform37InitializeTransformHierarchyRecursiveER18TransformHierarchyRii
5165:__ZN23TransformChangeDispatch32QueueTransformChangeIfHasChangedERK15TransformAccess
5166:__ZN17TransformInternal12InitLocalTRSE15TransformAccessRKN4math7_float3ERKNS1_7_float4ES4_
5167:__ZN23TransformChangeDispatch29RecalculatePermanentInterestsE15TransformAccess
5168:__ZN32TransformHierarchyChangeDispatch29RecalculatePermanentInterestsE15TransformAccess
5169:__ZN14BatchAllocator16AllocateInternalEPPvimmm
5170:__ZN14BatchAllocator6CommitE10MemLabelId
5171:__ZN9Transform28ApplyRuntimeToSerializedDataEv
5172:__ZN17PersistentManager17IsObjectAvailableEi
5173:__ZNK14SerializedFile7GetTypeEx
5174:__ZN12BaseRenderer23RendererCullingCallbackEv
5175:__ZN12BaseRenderer17GetSortingGroupIDEj
5176:__ZN12BaseRenderer17SetSortingGroupIDEjj
5177:__ZN12BaseRenderer20GetSortingGroupOrderEj
5178:__ZN12BaseRenderer20SetSortingGroupOrderEjj
5179:__ZNK12BaseRenderer21GetGlobalLayeringDataEj
5180:__ZN12BaseRenderer21SetGlobalLayeringDataE18GlobalLayeringDataj
5181:__ZNK6Camera22GetWorldToCameraMatrixEv
5182:__ZN33RendererCullingCallbackPropertiesC2ERK6CameraRK10Matrix4x4f
5183:__ZNK9Transform11GetRotationEv
5184:__ZNK6Camera33CalculateFarPlaneWorldSpaceLengthEv
5185:__ZNK6Camera16GetCullingMatrixEv
5186:__ZNK6Camera20GetWorldToClipMatrixEv
5187:__ZNK6Camera19GetProjectionMatrixEv
5188:__ZN10Matrix4x4f8SetScaleERK8Vector3f
5189:__ZNK9Transform28GetWorldToLocalMatrixNoScaleEv
5190:__ZN10Matrix4x4fmLERKS_
5191:__ZN10Matrix4x4f14SetPerspectiveEffff
5192:__ZN10Matrix4x4f8SetOrthoEffffff
5193:__ZNK6Camera18ScreenToWorldPointERK8Vector3f21MonoOrStereoscopicEye
5194:__ZNK6Camera21GetFrustumPlaneSizeAtEf
5195:__ZNK6Camera24GetScreenViewportRectIntEb
5196:__ZNK6Camera26GetStereoWorldToClipMatrixE15StereoscopicEye
5197:__Z15CameraUnProjectRK8Vector3fRK10Matrix4x4fS4_RK5RectTIiERS_b
5198:__ZN12BaseRendererD2Ev
5199:__ZN15SerializeTraitsI10ColorRGBAfE8TransferI14SafeBinaryReadEEvRS0_RT_
5200:__ZN10ColorRGBAf8TransferI24GenerateTypeTreeTransferEEvRT_
5201:__ZN12FlareManager8AddFlareENS_9OwnerTypeE
5202:__ZN12FlareManager11UpdateFlareEiP5FlareR9TransformbfRK10ColorRGBAffjj
5203:__ZNSt3__26vectorIN12FlareManager10FlareEntryENS_9allocatorIS2_EEE21__push_back_slow_pathIS2_EEvOT_
5204:__ZN14SafeBinaryRead8TransferI8BitFieldEEvRT_PKc17TransferMetaFlags
5205:__Z20RenderMultipleMeshesRK15RenderNodeQueueRK18RenderMultipleData16VertexInputMasks
5206:__ZN8DrawUtil24DrawMeshRawFromNodeQueueERK15RenderNodeQueuej16VertexInputMasksi
5207:__ZN8DrawUtil31CleanupDrawMeshRawFromNodeQueueER15RenderNodeQueuej
5208:__ZL13MeshExtractorPv16VertexInputMasksiRP17VertexDeclarationR11MeshBuffersR16DrawBuffersRangeRi
5209:__ZNK17InstancingBatcher15RenderInstancesERK15RenderNodeQueuePK17BatchInstanceDataj16VertexInputMasksPFbPvS6_iRP17VertexDeclarationR11MeshBuffersR16DrawBuffersRangeRiE
5210:__Z17RenderStaticBatchR9GfxDevice10Matrix4x4fRK13dynamic_arrayI7SubMeshLm0EERK11MeshBuffersPK17BatchInstanceDatamP17VertexDeclaration
5211:__ZN23DynamicVBOBufferManager13AcquireSharedER9GfxDevice15GfxBufferTargetmj
5212:__ZN16GeometryJobTasks11CreateFenceEb
5213:__Z30ProcessDynamicBatchGeometryJobP21SharedGeometryJobDataj
5214:__Z30CleanupDynamicBatchGeometryJobP21SharedGeometryJobData
5215:__ZNK17InstancingBatcher25FillInstanceBufferWithJobIN10Instancing14RenderLoopArgsEEEvR8JobFencePPvjjRKT_
5216:__ZL17InstanceBufferJobIN10Instancing14RenderLoopArgsEEvP21InstanceBufferJobDataIT_E
5217:__ZNK15InstancingProps35FillInstanceBufferDispatchConstantsIN10Instancing14RenderLoopArgsEEEvPPvjjRK19ShaderPropertySheetRKT_
5218:__ZN19SharedObjectFactoryI21InstanceBufferJobDataIN10Instancing14RenderLoopArgsEEE7DestroyEPS3_10MemLabelId
5219:__Z26DrawSpriteRawFromNodeQueueRK15RenderNodeQueuej16VertexInputMasksi
5220:__ZN8DrawUtil14DrawProceduralE16GfxPrimitiveTypeR9GfxBufferiii
5221:__ZN8DrawUtil14DrawProceduralE16GfxPrimitiveTypeii
5222:__ZN9GfxDevice28GetProceduralQuadIndexBufferEi
5223:__ZN8DrawUtil22DrawProceduralIndirectE16GfxPrimitiveTypeR9GfxBuffer15ComputeBufferIDj
5224:__ZN8DrawUtil22DrawProceduralIndirectE16GfxPrimitiveType15ComputeBufferIDj
5225:__ZN5LightD0Ev
5226:__ZN5Light17MainThreadCleanupEv
5227:__ZN5Light13AwakeFromLoadE17AwakeFromLoadMode
5228:__ZN5Light16CheckConsistencyEv
5229:__ZN5Light5ResetEv
5230:__ZNK5Light22GetTypeVirtualInternalEv
5231:__ZN5Light23VirtualRedirectTransferER19StreamedBinaryWrite
5232:__ZN5Light23VirtualRedirectTransferER18StreamedBinaryRead
5233:__ZN5Light23VirtualRedirectTransferER17RemapPPtrTransfer
5234:__ZN5Light23VirtualRedirectTransferER24GenerateTypeTreeTransfer
5235:__ZN5Light23VirtualRedirectTransferER14SafeBinaryRead
5236:__ZN5Light12AddToManagerEv
5237:__ZN5Light17RemoveFromManagerEv
5238:__ZN12LightManager11RemoveLightEP5Light
5239:__ZN11HaloManager10DeleteHaloEiP6Object
5240:__ZN23TransformChangeDispatch19SetSystemInterestedE15TransformAccess27TransformChangeSystemHandleb
5241:__ZN15SharedLightData15UpdateTransformERK9Transform
5242:__ZN12LightManager8AddLightEP5Light
5243:__ZN5Light9SetupHaloEv
5244:__ZN5Light10SetupFlareEv
5245:__ZN12LightManager28IsLightTransformDataUpToDateEPK5Light
5246:__ZN12LightManager27UpdateAllLightTransformDataEv
5247:__ZN23TransformChangeDispatch28GetAndClearChangedTransformsE27TransformChangeSystemHandleR13dynamic_arrayI23TransformAccessReadOnlyLm0EEPN9profiling6MarkerE
5248:__ZN5Light25UpdateLightDataTransformsEv
5249:__ZN15SharedLightData7PrecalcEv
5250:__ZN15SharedLightData17PrecalcLightColorEb
5251:__Z31CorrelatedColorTemperatureToRGBf
5252:__Z24CalculateVertexLightDataRK15SharedLightDataR14GfxVertexLight
5253:__ZL31GetAndClearChangedTransformsJobP27GetChangedTransformsJobDatajPK23TransformAccessReadOnlyPKyj
5254:__ZN23TransformChangeDispatch40GetAndClearChangedAsBatchedJobs_InternalEyPFvPvjPK23TransformAccessReadOnlyPKyjES0_PN9profiling6MarkerE
5255:__Z40ConfigureBlockRangesWithMinIndicesPerJobP10BlockRangeii
5256:__ZN18BlockRangeInternal16PopLastNodeIndexEP10BlockRangeji
5257:__ZN18BlockRangeInternal25GetSizeFromLastBlockRangeEP10BlockRangej
5258:__Z43GetUniqueDependenciesAndClearHierarchyFencePP18TransformHierarchymP8JobFence
5259:__Z26ScheduleMultiDependencyJobR8JobFenceR18JobBatchDispatcherPKS_j10MemLabelId
5260:__ZL8BatchJobP18BatchJobDataSingle
5261:__ZN11HaloManager7AddHaloENS_9OwnerTypeE
5262:__ZN11HaloManager10UpdateHaloEiR9Transform11ColorRGBA32fjP6Object
5263:__ZNSt3__26vectorIN11HaloManager8HaloDataENS_9allocatorIS2_EEE21__push_back_slow_pathIS2_EEvOT_
5264:__ZNK9Transform28GetLocalToWorldMatrixNoScaleEv
5265:__ZN15SharedLightDataD2Ev
5266:__ZN19RenderEventsContextD2Ev
5267:__ZN19RenderEventsContext20RemoveCommandBuffersEi
5268:__ZN22RenderingCommandBuffer13ClearCommandsEv
5269:__ZN14GrowableBufferD2Ev
5270:__ZN17GPUFenceInternals7ReleaseEv
5271:__ZN15SharedLightDataC2ERKS_
5272:__ZN19RenderEventsContextC2ERKS_
5273:__ZN13dynamic_arrayIS_IP22RenderingCommandBufferLm0EELm0EE18resize_initializedEmRKS2_12ResizePolicy
5274:__ZN13dynamic_arrayIS_IjLm0EELm0EE18resize_initializedEmRKS0_12ResizePolicy
5275:__ZN22RenderingCommandBufferC2E10MemLabelIdRKS_
5276:__ZN14GrowableBufferC2ERKS_
5277:__ZN5Light8TransferI14SafeBinaryReadEEvRT_
5278:__ZNK15SharedLightData21DefaultInnerSpotAngleEv
5279:__ZN14ShadowSettings8TransferI14SafeBinaryReadEEvRT_
5280:__ZN17LightBakingOutput8TransferI14SafeBinaryReadEEvRT_
5281:__ZN16LightmapBakeMode8TransferI14SafeBinaryReadEEvRT_
5282:__ZN10Matrix4x4f8TransferI14SafeBinaryReadEEvRT_
5283:__ZN5Light8TransferI24GenerateTypeTreeTransferEEvRT_
5284:__ZN14ShadowSettings8TransferI24GenerateTypeTreeTransferEEvRT_
5285:__ZN17LightBakingOutput8TransferI24GenerateTypeTreeTransferEEvRT_
5286:__ZN10Matrix4x4f8TransferI24GenerateTypeTreeTransferEEvRT_
5287:__ZN5Light8TransferI17RemapPPtrTransferEEvRT_
5288:__ZN5Light8TransferI18StreamedBinaryReadEEvRT_
5289:__ZN14ShadowSettings8TransferI18StreamedBinaryReadEEvRT_
5290:__ZN17LightBakingOutput8TransferI18StreamedBinaryReadEEvRT_
5291:__ZN10Matrix4x4f8TransferI18StreamedBinaryReadEEvRT_
5292:__ZN5Light8TransferI19StreamedBinaryWriteEEvRT_
5293:__ZN14ShadowSettings8TransferI19StreamedBinaryWriteEEvRT_
5294:__ZN17LightBakingOutput8TransferI19StreamedBinaryWriteEEvRT_
5295:__ZN10Matrix4x4f8TransferI19StreamedBinaryWriteEEvRT_
5296:__ZN15SharedLightData5ResetEv
5297:__ZN14ShadowSettings5ResetEv
5298:__ZN15SharedLightData16CheckConsistencyEv
5299:__ZN5Light7PrecalcEv
5300:__ZN15SharedLightData22UpdateCookieTextureRefEv
5301:__ZN12LightManager19DirtyDispatchUpdateER5Light
5302:__ZN10TextureRef4InitEP7Textureb
5303:__ZN19RenderEventsContext23RemoveAllCommandBuffersEv
5304:__ZN21LightProbeProxyVolume27ValidateBoundingBoxSettingsEv
5305:__ZNK9Transform21GetWorldToLocalMatrixEv
5306:__ZN26LightProbeProxyVolumeUtilsL27ComputeLocalAABBOnHierarchyERK10Matrix4x4fR9TransformR10MinMaxAABB
5307:__ZN8Renderer29GetTransformInfoAndUpdateSlowEv
5308:__ZNK4AABB17CalculateVerticesEP8Vector3f
5309:__ZN21RendererUpdateManager20UpdateSingleRendererER8RendererR13RendererScene
5310:__Z28CalculateGlobalMatrixInverse23TransformAccessReadOnly
5311:__ZN6CameraD2Ev
5312:__ZN6CameraD0Ev
5313:__ZN6Camera17MainThreadCleanupEv
5314:__ZN6Camera13AwakeFromLoadE17AwakeFromLoadMode
5315:__ZN6Camera16CheckConsistencyEv
5316:__ZN6Camera5ResetEv
5317:__ZNK6Camera22GetTypeVirtualInternalEv
5318:__ZN6Camera23VirtualRedirectTransferER19StreamedBinaryWrite
5319:__ZN6Camera23VirtualRedirectTransferER18StreamedBinaryRead
5320:__ZN6Camera23VirtualRedirectTransferER17RemapPPtrTransfer
5321:__ZN6Camera23VirtualRedirectTransferER24GenerateTypeTreeTransfer
5322:__ZN6Camera23VirtualRedirectTransferER14SafeBinaryRead
5323:__ZN6Camera12AddToManagerEv
5324:__ZN6Camera17RemoveFromManagerEv
5325:__ZN27IntermediateRendererManager26ClearIntermediateRenderersEim
5326:__ZN13RenderManager12RemoveCameraEP6Camera
5327:__ZNSt3__24listI4PPtrI6CameraENS_9allocatorIS3_EEE6removeERKS3_
5328:__ZN13RenderManager9AddCameraEP6Camera
5329:__ZN6Camera11ResetAspectEv
5330:__ZN6Camera38InitializePreviousViewProjectionMatrixEv
5331:__ZN6Camera8TransferI14SafeBinaryReadEEvRT_
5332:__ZN6Camera8TransferI24GenerateTypeTreeTransferEEvRT_
5333:__ZN6Camera8TransferI18StreamedBinaryReadEEvRT_
5334:__ZN6Camera8TransferI19StreamedBinaryWriteEEvRT_
5335:__ZN6Camera47CalculateProjectionParamsFromPhysicalPropertiesEv
5336:__ZN13MonoBehaviour33AddImageEffectCallbacksToManagersEv
5337:__Z30scripting_method_has_attribute18ScriptingMethodPtr17ScriptingClassPtr
5338:__ZN13MonoBehaviour17RenderImageFilterEPN5Unity9ComponentEP13RenderTextureS4_
5339:__ZN12ImageFilters14AddImageFilterERK11ImageFilter
5340:__ZN12ImageFilters17RemoveImageFilterERK11ImageFilter
5341:__ZNSt3__26vectorI11ImageFilterNS_9allocatorIS1_EEE6insertENS_11__wrap_iterIPKS1_EERS6_
5342:__ZN13MonoBehaviour30InvokeMethodOrCoroutineCheckedE18ScriptingMethodPtr18ScriptingObjectPtr
5343:__ZN9Scripting19ScriptingWrapperForEP6Object
5344:__ZN19ScriptingInvocationC2E18ScriptingObjectPtr18ScriptingMethodPtr
5345:__ZN13MonoBehaviour30InvokeMethodOrCoroutineCheckedE18ScriptingMethodPtr18ScriptingObjectPtrP21ScriptingExceptionPtr
5346:__Z11IsCoroutine18ScriptingMethodPtrRK22CommonScriptingClasses
5347:__ZN13MonoBehaviour24TryCreateAndRunCoroutineE18ScriptingObjectPtr18ScriptingMethodPtrPP9Coroutine
5348:__ZN9Coroutine3RunEPb
5349:__ZN9Coroutine16CleanupCoroutineEPv
5350:__ZN9Coroutine14InvokeMoveNextEP21ScriptingExceptionPtr
5351:__ZN9Coroutine23ProcessCoroutineCurrentEv
5352:__ZN9Coroutine17ContinueCoroutineEP6ObjectPv
5353:__Z11CallDelayedPF15CallObjectStateP6ObjectPvE4PPtrIS0_EfS2_fPFS_S2_EN18DelayedCallManager15DelayedCallModeE
5354:__ZN9Coroutine35HandleIEnumerableCurrentReturnValueE18ScriptingObjectPtr
5355:__ZN9CoroutineC2Ev
5356:__ZN6Camera21CleanupAfterRenderingEPK11CullResults
5357:__ZN15LODGroupManager20DestroyCameraLODDataEi
5358:__Z22CleanupAfterRenderLoopR10RenderLoop
5359:__ZN19RenderBufferManager8Textures17ReleaseTempBufferEP13RenderTexture
5360:__Z19ClearShadowMapCacheP14ShadowMapCache
5361:__ZNSt3__26__treeINS_12__value_typeIi17ShadowCachingDataEENS_19__map_value_compareIiS3_NS_4lessIiEELb1EEE13stl_allocatorIS3_L18MemLabelIdentifier70ELi16EEE7destroyEPNS_11__tree_nodeIS3_PvEE
5362:__ZNK4core8hash_setINS_4pairIK17RenderTextureDescPN19RenderBufferManager8Textures12TextureEntryELb0EEENS_9hash_pairINS5_9KeyHasherES3_S7_EENS_10equal_pairINSt3__28equal_toIS2_EES3_S7_EEE6lookupIS2_EEPNSH_4nodeERKT_
5363:__ZN4core8hash_mapI17RenderTextureDescPN19RenderBufferManager8Textures12TextureEntryENS3_9KeyHasherENSt3__28equal_toIS1_EEE6insertERKS1_RKS5_
5364:__ZN13RenderTexture21SwitchOutOfFastMemoryEb
5365:__ZN4core8hash_setINS_4pairIK17RenderTextureDescPN19RenderBufferManager8Textures12TextureEntryELb0EEENS_9hash_pairINS5_9KeyHasherES3_S7_EENS_10equal_pairINSt3__28equal_toIS2_EES3_S7_EEE4growEi
5366:__ZN9ShaderLab23ClearGrabPassFrameStateEv
5367:__ZN19SharedRendererSceneD2Ev
5368:__ZNK15RenderNodeQueue17SyncDependentJobsEv
5369:__ZN17LightProbeContextD2Ev
5370:__ZN19SharedObjectFactoryI20SharedLightProbeDataE7DestroyEPS0_10MemLabelId
5371:__ZN17LightProbeContextD0Ev
5372:__Z16DeleteRenderLoopP10RenderLoop
5373:__Z21DestroyShadowMapCacheP14ShadowMapCache
5374:__ZN16GraphicsSettingsD2Ev
5375:__ZN16GraphicsSettingsD0Ev
5376:__ZN16GraphicsSettings10SmartResetEv
5377:__ZNK16GraphicsSettings22GetTypeVirtualInternalEv
5378:__ZN16GraphicsSettings23VirtualRedirectTransferER19StreamedBinaryWrite
5379:__ZN16GraphicsSettings23VirtualRedirectTransferER18StreamedBinaryRead
5380:__ZN16GraphicsSettings23VirtualRedirectTransferER17RemapPPtrTransfer
5381:__ZN16GraphicsSettings23VirtualRedirectTransferER24GenerateTypeTreeTransfer
5382:__ZN16GraphicsSettings23VirtualRedirectTransferER14SafeBinaryRead
5383:__ZN16GraphicsSettings8TransferI14SafeBinaryReadEEvRT_
5384:__ZN21BuiltinShaderSettings8TransferI14SafeBinaryReadEEvRT_
5385:__ZN14SafeBinaryRead21TransferSTLStyleArrayINSt3__26vectorI4PPtrI6ShaderE13stl_allocatorIS5_L18MemLabelIdentifier57ELi16EEEEEEvRT_17TransferMetaFlags
5386:__ZN14SafeBinaryRead21TransferSTLStyleArrayINSt3__26vectorI4PPtrI23ShaderVariantCollectionE13stl_allocatorIS5_L18MemLabelIdentifier57ELi16EEEEEEvRT_17TransferMetaFlags
5387:__ZN20TierGraphicsSettings8TransferI14SafeBinaryReadEEvRT_
5388:__ZN14SafeBinaryRead21TransferSTLStyleArrayI13dynamic_arrayI21PlatformShaderDefinesLm0EEEEvRT_17TransferMetaFlags
5389:__ZN5Light17PrecalcLightColorEb
5390:__ZN21PlatformShaderDefines8TransferI14SafeBinaryReadEEvRT_
5391:__Z14resize_trimmedINSt3__26vectorI4PPtrI23ShaderVariantCollectionE13stl_allocatorIS4_L18MemLabelIdentifier57ELi16EEEEEvRT_j
5392:__ZNSt3__26vectorI4PPtrI23ShaderVariantCollectionE13stl_allocatorIS3_L18MemLabelIdentifier57ELi16EEE6assignINS_11__wrap_iterIPS3_EEEENS_9enable_ifIXaasr21__is_forward_iteratorIT_EE5valuesr16is_constructibleIS3_NS_15iterator_traitsISD_E9referenceEEE5valueEvE4typeESD_SD_
5393:__ZNSt3__26vectorI4PPtrI23ShaderVariantCollectionE13stl_allocatorIS3_L18MemLabelIdentifier57ELi16EEE8__appendEm
5394:__ZN16GraphicsSettings8TransferI24GenerateTypeTreeTransferEEvRT_
5395:__ZN24GenerateTypeTreeTransfer8TransferI21BuiltinShaderSettingsEEvRT_PKc17TransferMetaFlags
5396:__ZN20TierGraphicsSettings8TransferI24GenerateTypeTreeTransferEEvRT_
5397:__ZN24GenerateTypeTreeTransfer8TransferI21PlatformShaderDefinesEEvRT_PKc17TransferMetaFlags
5398:__ZN16GraphicsSettings8TransferI17RemapPPtrTransferEEvRT_
5399:__ZN16GraphicsSettings8TransferI18StreamedBinaryReadEEvRT_
5400:__ZN20TierGraphicsSettings8TransferI18StreamedBinaryReadEEvRT_
5401:__ZN18StreamedBinaryRead21TransferSTLStyleArrayI13dynamic_arrayI21PlatformShaderDefinesLm0EEEEvRT_17TransferMetaFlags
5402:__ZN15SerializeTraitsI12fixed_bitsetILi28EjEE8TransferI18StreamedBinaryReadEEvRS1_RT_
5403:__ZN18StreamedBinaryRead10ReadDirectEPvi
5404:__ZN12CachedReader4ReadEPvm
5405:__ZN16GraphicsSettings8TransferI19StreamedBinaryWriteEEvRT_
5406:__ZN20TierGraphicsSettings8TransferI19StreamedBinaryWriteEEvRT_
5407:__ZN21PlatformShaderDefines8TransferI19StreamedBinaryWriteEEvRT_
5408:__ZN15ReflectionProbe13AwakeFromLoadE17AwakeFromLoadMode
5409:__ZN15ReflectionProbe16CheckConsistencyEv
5410:__ZN15ReflectionProbe5ResetEv
5411:__ZNK15ReflectionProbe22GetTypeVirtualInternalEv
5412:__ZN15ReflectionProbe23VirtualRedirectTransferER19StreamedBinaryWrite
5413:__ZN15ReflectionProbe23VirtualRedirectTransferER18StreamedBinaryRead
5414:__ZN15ReflectionProbe23VirtualRedirectTransferER17RemapPPtrTransfer
5415:__ZN15ReflectionProbe23VirtualRedirectTransferER24GenerateTypeTreeTransfer
5416:__ZN15ReflectionProbe23VirtualRedirectTransferER14SafeBinaryRead
5417:__ZN15ReflectionProbe12AddToManagerEv
5418:__ZN15ReflectionProbe17RemoveFromManagerEv
5419:__ZN23TextureStreamingManager18RequestLoadAllMipsEP7Textureb
5420:__ZN16ReflectionProbes11RemoveProbeE4PPtrI15ReflectionProbeE
5421:__ZNK15ReflectionProbe10GetTextureEv
5422:__ZN16ReflectionProbes22ForceProbeToUseTextureER15ReflectionProbeP7Texture
5423:__Z35GetTextureDecodeValuesWithIntensity16TextureUsageMode17TextureColorSpace10ColorSpacef
5424:__ZN20dynamic_array_detail18dynamic_array_data4swapERS0_
5425:__ZNSt3__25dequeI18ReflectionProbeJobNS_9allocatorIS1_EEE19__add_back_capacityEv
5426:__ZNSt3__212__deque_baseI18ReflectionProbeJobNS_9allocatorIS1_EEED2Ev
5427:__ZNSt3__214__split_bufferIP18ReflectionProbeJobNS_9allocatorIS2_EEE9push_backEOS2_
5428:__ZNSt3__214__split_bufferIP18ReflectionProbeJobNS_9allocatorIS2_EEE10push_frontEOS2_
5429:__ZN16ReflectionProbes8AddProbeE4PPtrI15ReflectionProbeE
5430:__ZN16ReflectionProbes8ScheduleEN18ReflectionProbeJob7JobTypeEP15ReflectionProbei
5431:__ZN15ReflectionProbe8TransferI14SafeBinaryReadEEvRT_
5432:__ZN15ReflectionProbe8TransferI24GenerateTypeTreeTransferEEvRT_
5433:__ZN15ReflectionProbe8TransferI18StreamedBinaryReadEEvRT_
5434:__ZN15ReflectionProbe8TransferI19StreamedBinaryWriteEEvRT_
5435:__ZN14SafeBinaryRead21TransferSTLStyleArrayI13dynamic_arrayI20SphericalHarmonicsL2Lm0EEEEvRT_17TransferMetaFlags
5436:__ZN20SphericalHarmonicsL28TransferI14SafeBinaryReadEEvRT_
5437:__ZN20SphericalHarmonicsL28TransferI24GenerateTypeTreeTransferEEvRT_
5438:__ZN18StreamedBinaryRead21TransferSTLStyleArrayI13dynamic_arrayI20SphericalHarmonicsL2Lm0EEEEvRT_17TransferMetaFlags
5439:__ZN20SphericalHarmonicsL28TransferI18StreamedBinaryReadEEvRT_
5440:__ZN20SphericalHarmonicsL28TransferI19StreamedBinaryWriteEEvRT_
5441:__ZN14RenderSettingsD2Ev
5442:__ZN14RenderSettingsD0Ev
5443:__ZN14RenderSettings13AwakeFromLoadE17AwakeFromLoadMode
5444:__ZN14RenderSettings16CheckConsistencyEv
5445:__ZN14RenderSettings5ResetEv
5446:__ZNK14RenderSettings22GetTypeVirtualInternalEv
5447:__ZN14RenderSettings23VirtualRedirectTransferER19StreamedBinaryWrite
5448:__ZN14RenderSettings23VirtualRedirectTransferER18StreamedBinaryRead
5449:__ZN14RenderSettings23VirtualRedirectTransferER17RemapPPtrTransfer
5450:__ZN14RenderSettings23VirtualRedirectTransferER24GenerateTypeTreeTransfer
5451:__ZN14RenderSettings23VirtualRedirectTransferER14SafeBinaryRead
5452:__ZN14RenderSettings8TransferI14SafeBinaryReadEEvRT_
5453:__ZN14RenderSettings18TransferDeprecatedI14SafeBinaryReadEEvRT_
5454:__ZN14RenderSettings8TransferI24GenerateTypeTreeTransferEEvRT_
5455:__ZN14RenderSettings8TransferI17RemapPPtrTransferEEvRT_
5456:__ZN14RenderSettings8TransferI18StreamedBinaryReadEEvRT_
5457:__ZN14RenderSettings8TransferI19StreamedBinaryWriteEEvRT_
5458:__ZNK22BuiltinResourceManager21GetResourceInstanceIDEPKN5Unity4TypeERKN4core12basic_stringIcNS4_20StringStorageDefaultIcEEEE
5459:__ZN14RenderSettings17UpdateGlobalStateEv
5460:__ZN19ShaderPropertySheet10SetTextureERK23FastTexturePropertyNameP7Texture
5461:__ZN14RenderSettings23UpdateFinalAmbientProbeEv
5462:__ZN14RenderSettings14ApplyFogParamsEv
5463:__ZN16ReflectionProbes17SetDefaultTextureE4PPtrI7CubemapEf
5464:__ZN14RenderSettings27UpdateIndirectSpecularColorEv
5465:__ZN16ReflectionProbes16UpdateSampleDataEv
5466:__ZNK16ReflectionProbes21GenerateDefaultSampleEv
5467:__ZN16ReflectionProbes11UpdateProbeER15ReflectionProbem
5468:__ZNK10GameObject16GetCullSceneMaskEv
5469:__ZNK28ReflectionProbeAnchorManager14IsAnchorCachedERK9Transform
5470:__ZN19RuntimeSceneManager14GetActiveSceneEv
5471:__ZN20SphericalHarmonicsL27SetZeroEv
5472:__ZN20SphericalHarmonicsL211AddWeightedERKS_f
5473:__ZN20SphericalHarmonicsL215AddAmbientLightERK10ColorRGBAf
5474:__ZN20SphericalHarmonicsL219AddDirectionalLightERKN4math7_float3ERKNS0_7_float4E
5475:__ZN14ImageReference10ClearImageERK10ColorRGBAf14ImageClearMode
5476:__ZN17AmbientProbeBaker29CalculateAmbientFaceProcessorclER5ImageiRK8Vector3fS5_S5_b
5477:__ZN6prcore15ClearImageFloatER14ImageReferenceRK10ColorRGBAf14ImageClearMode
5478:__ZN6prcore10ClearImageER14ImageReferenceRK11ColorRGBA3214ImageClearMode
5479:__ZN6prcoreL11inner_clearILj1EEEvPhmjj
5480:__ZN6prcoreL11inner_clearILj2EEEvPhmjj
5481:__ZN6prcoreL11inner_clearILj3EEEvPhmjj
5482:__ZN6prcoreL11inner_clearILj4EEEvPhmjj
5483:__Z13SetImagePixelR14ImageReferenceii15TextureWrapModeS1_RK10ColorRGBAf
5484:__ZN6prcoreL15ClearBlockFloatIjEEvR14ImageReferenceRKS1_j
5485:__Z10WritePixelPhRK10ColorRGBAf14GraphicsFormat
5486:__Z10WritePixelPhRK11ColorRGBA3214GraphicsFormat
5487:__ZN5ImageC2Eii14GraphicsFormat
5488:__ZN20SphericalHarmonicsL217AddToCoefficientsEPKN4math7_float4EPKf
5489:__ZN18ShadowMapJobHeaderD0Ev
5490:__ZN18ShadowMapJobHeaderD2Ev
5491:__ZN13dynamic_arrayI9IndexListLm0EEixEm
5492:__Z16DestroyIndexListR9IndexList
5493:__ZNK12SharedObjectI15SharedLightDataLb1E19SharedObjectFactoryIS0_EE7ReleaseEv
5494:__ZN13dynamic_arrayIS_I16ShadowCasterDataLm0EELm0EED2Ev
5495:__ZN21GfxDeviceAsyncCommand3ArgD2Ev
5496:__Z10destruct_nI13dynamic_arrayI16ShadowCasterDataLm0EEEvPT_m
5497:__ZL14atomic_releasePVi
5498:__ZN19SharedObjectFactoryI15SharedLightDataE7DestroyEPS0_10MemLabelId
5499:__Z11CopyTextureP7TextureS0_
5500:__ZL29CheckCopyTextureBaseArgumentsP7TextureS0_
5501:__ZN9Texture2D18UnshareTextureDataEv
5502:__Z28EnsureRenderTextureIsCreatedP13RenderTexture
5503:__ZN19RenderBufferManager8Textures13GetTempBufferEii17DepthBufferFormat14GraphicsFormatS2_NS0_5FlagsE14VRTextureUsagei23RenderTextureMemoryless
5504:__ZN19RenderBufferManager8Textures13GetTempBufferE17RenderTextureDesc
5505:__ZN13RenderTexture21FixInvalidDescOptionsER17RenderTextureDesc
5506:__ZN6Object27AllocateAndAssignInstanceIDEPS_
5507:__ZN13RenderTexture20SetRenderTextureDescERK17RenderTextureDesc
5508:__ZN13RenderTexture18SetUseDynamicScaleEb
5509:__ZN13RenderTexture6CreateENS_11CreateFlagsE
5510:__ZN13RenderTexture15DiscardContentsEbb
5511:__ZN13RenderTexture24CorrectVerticalTexelSizeEb
5512:__ZN13RenderTexture20SwitchIntoFastMemoryE11SurfaceType12SurfaceUsage15FastMemoryFlagsbf
5513:__ZN13RenderTexture8SetWidthEi
5514:__ZN13RenderTexture9SetHeightEi
5515:__ZN13RenderTexture9SetMipMapEb
5516:__ZN13RenderTexture14SetMipMapCountEi
5517:__ZN13RenderTexture16SetBindTextureMSEb
5518:__ZN13RenderTexture12SetDimensionE16TextureDimension
5519:__ZN13RenderTextureC2E10MemLabelId18ObjectCreationMode
5520:__ZN7TextureC2E10MemLabelId18ObjectCreationMode
5521:__ZN13RenderTextureD2Ev
5522:__ZN13RenderTextureD0Ev
5523:__ZN13RenderTexture17MainThreadCleanupEv
5524:__ZN13RenderTexture13AwakeFromLoadE17AwakeFromLoadMode
5525:__ZN7Texture16CheckConsistencyEv
5526:__ZN7Texture5ResetEv
5527:__ZNK13RenderTexture22GetTypeVirtualInternalEv
5528:__ZN7Texture7SetNameEPKc
5529:__ZNK13RenderTexture20GetRuntimeMemorySizeEv
5530:__ZN13RenderTexture23VirtualRedirectTransferER19StreamedBinaryWrite
5531:__ZN13RenderTexture23VirtualRedirectTransferER18StreamedBinaryRead
5532:__ZN13RenderTexture23VirtualRedirectTransferER24GenerateTypeTreeTransfer
5533:__ZN13RenderTexture23VirtualRedirectTransferER14SafeBinaryRead
5534:__ZN13RenderTexture13ApplySettingsEv
5535:__ZNK13RenderTexture21GetShadowSamplingModeEv
5536:__ZNK13RenderTexture14IsDepthTextureEv
5537:__ZNK13RenderTexture12IsMemorylessEv
5538:__ZNK13RenderTexture19IsBoundMultisampledEv
5539:__ZNK13RenderTexture12IsUAVAllowedEv
5540:__ZNK13RenderTexture12GetDataWidthEv
5541:__ZNK13RenderTexture13GetDataHeightEv
5542:__ZNK13RenderTexture20GetTextureLayerCountEv
5543:__ZNK13RenderTexture12GetDimensionEv
5544:__ZNK13RenderTexture10GetVRUsageEv
5545:__ZN7Texture33VerifyFileTextureUploadCompletionEv
5546:__ZNK13RenderTexture16ExtractImageImplEP14ImageReference13ImageBlitModebi
5547:__ZNK13RenderTexture37IsBoundMultisampledOnSecondaryTextureEv
5548:__ZNK15TextureSettings5ApplyER9GfxDevice9TextureID16TextureDimensionb17TextureColorSpace18ShadowSamplingModeb
5549:__ZN13RenderTexture8TransferI14SafeBinaryReadEEvRT_
5550:__ZN7Texture8TransferI14SafeBinaryReadEEvRT_
5551:__Z17GetGraphicsFormat19RenderTextureFormat22RenderTextureReadWrite
5552:__ZN15TextureSettings8TransferI14SafeBinaryReadEEvRT_
5553:__Z17GetGraphicsFormat19RenderTextureFormat17TextureColorSpace
5554:__ZN13RenderTexture8TransferI24GenerateTypeTreeTransferEEvRT_
5555:__ZN7Texture8TransferI24GenerateTypeTreeTransferEEvRT_
5556:__ZN15TextureSettings8TransferI24GenerateTypeTreeTransferEEvRT_
5557:__ZN13RenderTexture8TransferI18StreamedBinaryReadEEvRT_
5558:__ZN7Texture8TransferI18StreamedBinaryReadEEvRT_
5559:__ZN15TextureSettings8TransferI18StreamedBinaryReadEEvRT_
5560:__ZN13RenderTexture8TransferI19StreamedBinaryWriteEEvRT_
5561:__ZN7Texture8TransferI19StreamedBinaryWriteEEvRT_
5562:__ZN15TextureSettings8TransferI19StreamedBinaryWriteEEvRT_
5563:__ZN15TextureSettings16CheckConsistencyEv
5564:__ZN6Camera24OnRenderTextureDestroyedEP13RenderTexture
5565:__ZN25CameraStackRenderingState16GetTargetTextureEv
5566:__ZN7Texture17MainThreadCleanupEv
5567:__ZN19ShaderPropertySheet26SetMatchingTextureIDToNoneE9TextureID
5568:__ZN25CameraStackRenderingState32GetCameraStackTempEyeTextureDescEv
5569:__ZN25CameraStackRenderingState29GetCameraStackTempTextureDescEv
5570:__ZN19StereoRenderTexture12AllocateTempER17RenderTextureDesc
5571:__Z22GetColorGraphicsFormatbbb
5572:__ZNK13RenderTexture14GetColorFormatEv
5573:__ZN6Camera23SetTargetTextureBuffersEP13RenderTextureiPK12ObjectHandleI17RenderSurface_TagP17RenderSurfaceBaseES6_PS1_
5574:__ZN7TextureD2Ev
5575:__ZNK7Texture22GetTypeVirtualInternalEv
5576:__ZN7Texture23VirtualRedirectTransferER24GenerateTypeTreeTransfer
5577:__ZN7Texture23VirtualRedirectTransferER14SafeBinaryRead
5578:__ZN7Texture13ApplySettingsEv
5579:__ZNK15TextureSettings5ApplyE9TextureID16TextureDimensionb17TextureColorSpace18ShadowSamplingModeb
5580:__ZN11NamedObjectC2E10MemLabelId18ObjectCreationMode
5581:__ZN6ObjectC2E10MemLabelId18ObjectCreationMode
5582:__ZN14ConstantString12create_emptyEv
5583:__ZN20BaseBehaviourManagerD2Ev
5584:__ZNSt3__26__treeINS_12__value_typeIiNS_4pairIP4ListI8ListNodeI9BehaviourEES8_EEEENS_19__map_value_compareIiSA_NS_4lessIiEELb1EEENS_9allocatorISA_EEE7destroyEPNS_11__tree_nodeISA_PvEE
5585:__ZN18DelayedCallManagerD2Ev
5586:__ZN18DelayedCallManagerD0Ev
5587:__ZN18DelayedCallManager17MainThreadCleanupEv
5588:__ZNK18DelayedCallManager22GetTypeVirtualInternalEv
5589:__ZN18DelayedCallManager6UpdateEi
5590:__ZN18DelayedCallManager15RemoveNoCleanupERKNS_8CallbackENSt3__221__tree_const_iteratorIS0_PNS3_11__tree_nodeIS0_PvEElEE
5591:__ZN18DelayedCallManager6RemoveERKNS_8CallbackENSt3__221__tree_const_iteratorIS0_PNS3_11__tree_nodeIS0_PvEElEE
5592:__ZN19ManagedTempMemScopeC2Eb
5593:__ZN14StackAllocatorC2EPvmPKc
5594:__ZN13BaseAllocatorC2EPKcb
5595:__ZN18DelayedCallManager8ClearAllEv
5596:__ZNSt3__26__treeIN18DelayedCallManager8CallbackENS_4lessIS2_EENS_9allocatorIS2_EEE7destroyEPNS_11__tree_nodeIS2_PvEE
5597:__ZN14Texture2DArrayD2Ev
5598:__ZN14Texture2DArrayD0Ev
5599:__ZN14Texture2DArray17MainThreadCleanupEv
5600:__ZN14Texture2DArray13AwakeFromLoadE17AwakeFromLoadMode
5601:__ZN14Texture2DArray21AwakeFromLoadThreadedEv
5602:__ZN14Texture2DArray5ResetEv
5603:__ZNK14Texture2DArray22GetTypeVirtualInternalEv
5604:__ZNK14Texture2DArray20GetRuntimeMemorySizeEv
5605:__ZN14Texture2DArray23VirtualRedirectTransferER19StreamedBinaryWrite
5606:__ZN14Texture2DArray23VirtualRedirectTransferER18StreamedBinaryRead
5607:__ZN14Texture2DArray23VirtualRedirectTransferER17RemapPPtrTransfer
5608:__ZN14Texture2DArray23VirtualRedirectTransferER24GenerateTypeTreeTransfer
5609:__ZN14Texture2DArray23VirtualRedirectTransferER14SafeBinaryRead
5610:__ZN14Texture2DArray13ApplySettingsEv
5611:__ZNK14Texture2DArray26CanReuploadDataToGfxDeviceEv
5612:__ZNK14Texture2DArray20GetTextureLayerCountEv
5613:__ZNK14Texture2DArray12GetDimensionEv
5614:__ZN14Texture2DArray34UpdateFileTextureUploadInstructionEP24TextureUploadInstructionj
5615:__ZNK14Texture2DArray13GetIsReadableEv
5616:__ZN14Texture2DArray19UnloadFromGfxDeviceEb
5617:__ZN14Texture2DArray17UploadToGfxDeviceEv
5618:__ZNK14Texture2DArray16ExtractImageImplEP14ImageReference13ImageBlitModebi
5619:__ZN7Texture25ReloadFromStorageIfNeededEPvb
5620:__ZN14Texture2DArray13UploadTextureEv
5621:__ZN17PersistentManager14ReloadFromDiskER6Object
5622:__Z21CalculateMipMapOffsetii13TextureFormati
5623:__Z18CalculateImageSizeii13TextureFormat
5624:__ZNK7Texture41QueryPersistentManagerForDataAvailabilityEv
5625:__ZN15TextureSettings38ClearUnsupportedSettingsForColorFormatE13TextureFormat
5626:__ZN14Texture2DArray8TransferI14SafeBinaryReadEEvRT_
5627:__ZN7Texture14TransferFormatI14SafeBinaryReadEEvRT_iR14GraphicsFormat
5628:__ZN14SafeBinaryRead16TransferTypelessEPjPKc17TransferMetaFlags
5629:__ZN14Texture2DArray26CreatePixelDataWhenReadingEjjb
5630:__ZN14SafeBinaryRead20TransferTypelessDataEjPvi
5631:__ZN14SafeBinaryRead21TransferResourceImageE19ActiveResourceImagePKcR13StreamingInfoPvjiPKN5Unity4TypeE
5632:__ZN13StreamingInfo8TransferI14SafeBinaryReadEEvRT_
5633:__ZN14Texture2DArray8TransferI24GenerateTypeTreeTransferEEvRT_
5634:__ZN24GenerateTypeTreeTransfer16TransferTypelessEPjPKc17TransferMetaFlags
5635:__ZN24GenerateTypeTreeTransfer21TransferResourceImageE19ActiveResourceImagePKcR13StreamingInfoPvjiPKN5Unity4TypeE
5636:__ZN14Texture2DArray8TransferI18StreamedBinaryReadEEvRT_
5637:__ZN7Texture14TransferFormatI18StreamedBinaryReadEEvRT_iR14GraphicsFormat
5638:__ZN18StreamedBinaryRead16TransferTypelessEPjPKc17TransferMetaFlags
5639:__ZN18StreamedBinaryRead20TransferTypelessDataEjPvi
5640:__ZN18StreamedBinaryRead21TransferResourceImageE19ActiveResourceImagePKcR13StreamingInfoPvjiPKN5Unity4TypeE
5641:__ZN12CachedReader4SkipEm
5642:__ZN14Texture2DArray8TransferI19StreamedBinaryWriteEEvRT_
5643:__ZN19StreamedBinaryWrite16TransferTypelessEPjPKc17TransferMetaFlags
5644:__ZN19StreamedBinaryWrite20TransferTypelessDataEjPvi
5645:__ZN19StreamedBinaryWrite21TransferResourceImageE19ActiveResourceImagePKcR13StreamingInfoPvjiPKN5Unity4TypeE
5646:__ZN12CachedWriter5WriteEPKvm
5647:__ZN7Texture16BeginAsyncUploadEjb
5648:__Z18AsyncUploadTextureR7Texturejb
5649:__ZN7Texture38InitializeFileTextureUploadInstructionER24TextureUploadInstructionjb
5650:__ZL26CalculateAsyncTextureSizesPK24TextureUploadInstructionRjS2_S2_
5651:__ZL32AsyncTextureReadCompleteCallbackbRK23AsyncUploadCallbackInfo
5652:__ZL38AsyncTextureProcessingCompleteCallbackR9GfxDeviceRK23AsyncUploadCallbackInfo
5653:__ZN18AsyncUploadManager16QueueUploadAssetEPKcjjjRK18AsyncUploadHandler
5654:__ZN18AsyncUploadManager12QueueCommandEP12AsyncCommand
5655:__ZL20DoCopyTextureDataJobP24TextureUploadInstruction
5656:__ZL38AsyncTextureProcessingFinaliseCallbackR9GfxDeviceRK23AsyncUploadCallbackInfo
5657:__ZL22GetTextureUploadParamsP24TextureUploadInstructionP23UploadTextureDataParams
5658:__Z19UploadTexture2DDataR9GfxDeviceRK23UploadTextureDataParams
5659:__Z17UploadCubemapData9TextureIDPhmiiii14GraphicsFormat18TextureUploadFlagsR9GfxDevice
5660:__Z16DecompressCrunchPKhRmR13TextureFormatiiii10MemLabelIdi
5661:__ZN4crnd17crnd_unpack_beginEPKvj
5662:__ZN4crnd21crnd_get_texture_infoEPKvjPNS_16crn_texture_infoE
5663:__Z24CalculateImageMipMapSizeii13TextureFormat
5664:__ZN4crnd12crn_unpacker12unpack_levelEPKvjPPvjjj
5665:__ZN4crnd12crn_unpackerD2Ev
5666:__ZN4crndL20crnd_default_reallocEPvmPmbS0_
5667:__ZN4crnd11crnd_deleteINS_13prefix_coding14decoder_tablesEEEvPT_
5668:__ZN4crnd12crn_unpacker11unpack_dxt1EPPhjjj
5669:__ZN4crnd12crn_unpacker11unpack_dxt5EPPhjjj
5670:__ZN4crnd12crn_unpacker12unpack_dxt5aEPPhjjj
5671:__ZN4crnd12crn_unpacker10unpack_dxnEPPhjjj
5672:__ZN4crnd12crn_unpacker11unpack_etc1EPPhjjj
5673:__ZN4crnd12crn_unpacker12unpack_etc2aEPPhjjj
5674:__ZN4crnd16elemental_vector17increase_capacityEjbjPFvPvS1_jE
5675:__ZN4crnd12symbol_codec6decodeERKNS_25static_huffman_data_modelE
5676:__ZN4crnd11crnd_mallocEmPm
5677:__ZN4crnd12crn_unpacker11init_tablesEv
5678:__ZN4crnd12crn_unpacker15decode_palettesEv
5679:__ZN4crnd12crn_unpacker22decode_color_endpointsEv
5680:__ZN4crnd12crn_unpacker22decode_color_selectorsEv
5681:__ZN4crnd12crn_unpacker22decode_alpha_endpointsEv
5682:__ZN4crnd12crn_unpacker26decode_alpha_selectors_etcEv
5683:__ZN4crnd12crn_unpacker22decode_alpha_selectorsEv
5684:__ZN4crnd12symbol_codec32decode_receive_static_data_modelERNS_25static_huffman_data_modelE
5685:__ZN4crnd12symbol_codec11decode_bitsEj
5686:__ZN4crnd25static_huffman_data_model22prepare_decoder_tablesEv
5687:__ZN4crnd13prefix_coding14decoder_tables4initEjPKhj
5688:__Z28CalculateTexture2DUploadDataR9GfxDeviceRK23UploadTextureDataParamsR19Texture2DUploadData
5689:__Z29SkipMipLevelsForTextureUploadi13TextureFormatiPPKhPiS3_S3_b
5690:__Z19GetBytesForOnePixel13TextureFormat
5691:__ZL17DoScaledPaddedJobP24TextureUploadInstruction
5692:__ZN9TextureOpI11TextureDataE15ExtractMipLevelEPS0_S2_iibb
5693:__ZL18DoCubemapMipmapJobP24TextureUploadInstruction
5694:__ZL15DoDeCruncherJobP24TextureUploadInstruction
5695:__ZL19PrecreateTextureJobP24TextureUploadInstruction
5696:__Z26ScheduleMultiDependencyJobR8JobFencePKS_j10MemLabelId
5697:__Z23CreateTexture2DThreadedRK23UploadTextureDataParamsRP19Texture2DUploadData
5698:__Z25ClampMipLevelToSafeLimitsiiiib
5699:__Z21SourceMipLevelForBlitiiii
5700:__Z23BlitCopyCompressedImage14GraphicsFormatPKhiiPhiib
5701:__ZN9TextureOpI11TextureDataE12ExtractImageEPS0_P14ImageReference13ImageBlitModebi
5702:__ZN17SharedTextureData32GetCrunchDecompressedTextureDataI11TextureDataEEbRKT_
5703:__ZN9TextureOpI17SharedTextureDataE12ExtractImageEPS0_P14ImageReference13ImageBlitModebi
5704:__Z26GetDecompressTextureFormat13TextureFormat
5705:__ZN5Image9CopyImageERK14ImageReferenceb
5706:__Z41DecompressNativeTextureFormatWithMipLevel13TextureFormatS_iiiPKjiiPj
5707:__ZNK14ImageReference9ClipImageEiiii
5708:__Z14PadImageBorderR14ImageReferenceii
5709:__ZN5Image8SetImageEii14GraphicsFormatb
5710:__ZN17SharedTextureData32GetCrunchDecompressedTextureDataIS_EEbRKT_
5711:__ZN17SharedTextureDataC2E10MemLabelId
5712:__ZN9Texture3DD2Ev
5713:__ZN9Texture3DD0Ev
5714:__ZN9Texture3D13AwakeFromLoadE17AwakeFromLoadMode
5715:__ZNK9Texture3D22GetTypeVirtualInternalEv
5716:__ZN9Texture3D23VirtualRedirectTransferER19StreamedBinaryWrite
5717:__ZN9Texture3D23VirtualRedirectTransferER18StreamedBinaryRead
5718:__ZN9Texture3D23VirtualRedirectTransferER24GenerateTypeTreeTransfer
5719:__ZN9Texture3D23VirtualRedirectTransferER14SafeBinaryRead
5720:__ZNK9Texture3D12GetDimensionEv
5721:__ZN9Texture3D34UpdateFileTextureUploadInstructionEP24TextureUploadInstructionj
5722:__ZNK9Texture3D13GetIsReadableEv
5723:__ZN9Texture3D19UnloadFromGfxDeviceEb
5724:__ZN9Texture3D17UploadToGfxDeviceEv
5725:__ZNK9Texture3D16ExtractImageImplEP14ImageReference13ImageBlitModebi
5726:__ZN9Texture3D13UploadTextureEi
5727:__ZN9Texture3D8TransferI14SafeBinaryReadEEvRT_
5728:__ZN9Texture3D26CreatePixelDataWhenReadingEjb
5729:__ZN9Texture3D8TransferI24GenerateTypeTreeTransferEEvRT_
5730:__ZN9Texture3D8TransferI18StreamedBinaryReadEEvRT_
5731:__ZN9Texture3D8TransferI19StreamedBinaryWriteEEvRT_
5732:__ZN13RenderTexture14SetDepthFormatE17DepthBufferFormat
5733:__ZN8Material9GetShaderEv
5734:__ZN8Material14SetVectorArrayEN9ShaderLab16FastPropertyNameEPK8Vector4fm
5735:__ZN8Material13SetFloatArrayEN9ShaderLab16FastPropertyNameEPKfm
5736:__ZN19CustomRenderTexture22ClearChildDependenciesEv
5737:__ZNSt3__26__treeI4PPtrI19CustomRenderTextureENS_4lessIS3_EENS_9allocatorIS3_EEE7destroyEPNS_11__tree_nodeIS3_PvEE
5738:__ZN9Texture2DD2Ev
5739:__ZN9Texture2DD0Ev
5740:__ZN9Texture2D17MainThreadCleanupEv
5741:__ZN9Texture2D13AwakeFromLoadE17AwakeFromLoadMode
5742:__ZN9Texture2D21AwakeFromLoadThreadedEv
5743:__ZN9Texture2D5ResetEv
5744:__ZNK9Texture2D22GetTypeVirtualInternalEv
5745:__ZNK9Texture2D20GetRuntimeMemorySizeEv
5746:__ZN9Texture2D23VirtualRedirectTransferER19StreamedBinaryWrite
5747:__ZN9Texture2D23VirtualRedirectTransferER18StreamedBinaryRead
5748:__ZN9Texture2D23VirtualRedirectTransferER17RemapPPtrTransfer
5749:__ZN9Texture2D23VirtualRedirectTransferER24GenerateTypeTreeTransfer
5750:__ZN9Texture2D23VirtualRedirectTransferER14SafeBinaryRead
5751:__ZN9Texture2D13ApplySettingsEv
5752:__ZNK9Texture2D20GetUnscaledTextureIDEv
5753:__ZNK9Texture2D11GetGPUWidthEv
5754:__ZNK9Texture2D12GetGPUHeightEv
5755:__ZNK9Texture2D16GetNpotTexelSizeEv
5756:__ZNK9Texture2D13IsNPOTAllowedEv
5757:__ZNK9Texture2D26CanReuploadDataToGfxDeviceEv
5758:__ZN9Texture2D34UpdateFileTextureUploadInstructionEP24TextureUploadInstructionj
5759:__ZN9Texture2D33VerifyFileTextureUploadCompletionEv
5760:__ZNK9Texture2D13GetIsReadableEv
5761:__ZNK9Texture2D24IgnoreMasterTextureLimitEv
5762:__ZN9Texture2D27SetIgnoreMasterTextureLimitEb
5763:__ZN9Texture2D19UnloadFromGfxDeviceEb
5764:__ZN9Texture2D17UploadToGfxDeviceEv
5765:__ZNK9Texture2D16ExtractImageImplEP14ImageReference13ImageBlitModebi
5766:__ZN9Texture2D13UploadTextureEi
5767:__ZNK9Texture2D13GetDataFormatEv
5768:__ZN9Texture2D11InitTextureEii13TextureFormat20TextureCreationFlagsiil16TextureDimension
5769:__ZN9Texture2D22UploadImageToGfxDeviceERK14ImageReference18TextureUploadFlags
5770:__ZN9Texture2D15UpdateImageDataEv
5771:__ZN9Texture2D30UpdateImageDataDontTouchMipmapEv
5772:__ZN9Texture2D13RebuildMipMapEv
5773:__Z12CreateMipMapPhiiii14GraphicsFormat
5774:__Z20IsValidTextureFormat13TextureFormat
5775:__Z29GetTextureSizeAllowedMultiple13TextureFormat
5776:__Z30CalculateImageSizeWithMipCountii13TextureFormatj
5777:__ZN9Texture2D19InitTextureInternalEii13TextureFormati20TextureCreationFlagsii
5778:__ZN23TextureStreamingManager13RemoveTextureER9Texture2D
5779:__ZN9Texture2D16DeleteGfxTextureEv
5780:__Z22GetTextureFormatString13TextureFormat
5781:__ZN23TextureStreamingManager10AddTextureER9Texture2D
5782:__ZN23TextureStreamingManager14AddTextureDataER9Texture2D
5783:__ZN20TextureStreamingData10AddTextureEii13TextureFormatiii
5784:__ZN17SharedTextureDataC2E10MemLabelIdii13TextureFormatmiibb
5785:__ZN23TextureStreamingManager21RemoveTextureInternalER9Texture2D
5786:__ZN20TextureStreamingData13RemoveTextureEi
5787:__ZN9Texture2D25CreateScaledAndPaddedDataEPP17SharedTextureDataS2_
5788:__ZN9Texture2D26AllocateScaledOrPaddedDataE13TextureFormat
5789:__ZN17SharedTextureData17GetImageReferenceEii
5790:__ZN9TextureOpI17SharedTextureDataE15ExtractMipLevelEPS0_S2_iibb
5791:__ZN9TextureOpI17SharedTextureDataE22ExtractCompressedImageEPS0_Phiii
5792:__ZN17SharedTextureData17GetImageReferenceEP14ImageReferenceii
5793:__ZN23TextureStreamingManager20GetLoadedMipmapLevelERK9Texture2D
5794:__ZN9TextureOpI11TextureDataE7SetSizeEPS0_13TextureFormatbii
5795:__ZN9Texture2D8TransferI14SafeBinaryReadEEvRT_
5796:__ZN9Texture2D26CreatePixelDataWhenReadingEjb
5797:__ZN9Texture2D8TransferI24GenerateTypeTreeTransferEEvRT_
5798:__ZN9Texture2D8TransferI18StreamedBinaryReadEEvRT_
5799:__ZN9Texture2D8TransferI19StreamedBinaryWriteEEvRT_
5800:__ZN23TextureStreamingManager21GetDesiredMipmapLevelERK9Texture2D
5801:__ZN23TextureStreamingManager23GetRequestedMipmapLevelERK9Texture2D
5802:__Z18AsyncDeleteTexture9TextureIDS_10AsyncFence
5803:__Z29AsyncTextureDeleteGfxCallbackR9GfxDeviceRK23AsyncUploadCallbackInfo
5804:__ZN15QualitySettingsD2Ev
5805:__ZN15QualitySettingsD0Ev
5806:__ZN15QualitySettings13AwakeFromLoadE17AwakeFromLoadMode
5807:__ZN15QualitySettings16CheckConsistencyEv
5808:__ZN15QualitySettings5ResetEv
5809:__ZNK15QualitySettings22GetTypeVirtualInternalEv
5810:__ZN15QualitySettings23VirtualRedirectTransferER19StreamedBinaryWrite
5811:__ZN15QualitySettings23VirtualRedirectTransferER18StreamedBinaryRead
5812:__ZN15QualitySettings23VirtualRedirectTransferER17RemapPPtrTransfer
5813:__ZN15QualitySettings23VirtualRedirectTransferER24GenerateTypeTreeTransfer
5814:__ZN15QualitySettings23VirtualRedirectTransferER14SafeBinaryRead
5815:__ZN15QualitySettings8TransferI14SafeBinaryReadEEvRT_
5816:__ZN14SafeBinaryRead21TransferSTLStyleArrayINSt3__26vectorIN15QualitySettings14QualitySettingENS1_9allocatorIS4_EEEEEEvRT_17TransferMetaFlags
5817:__ZL32InitializeDefaultQualitySettingsPN15QualitySettings14QualitySettingE
5818:__ZN15QualitySettings14QualitySetting8TransferI14SafeBinaryReadEEvRT_
5819:__ZNSt3__26vectorIN15QualitySettings14QualitySettingENS_9allocatorIS2_EEE6assignIPS2_EENS_9enable_ifIXaasr21__is_forward_iteratorIT_EE5valuesr16is_constructibleIS2_NS_15iterator_traitsIS9_E9referenceEEE5valueEvE4typeES9_S9_
5820:__Z14resize_trimmedINSt3__26vectorIN15QualitySettings14QualitySettingENS0_9allocatorIS3_EEEEEvRT_j
5821:__ZNSt3__26vectorIN15QualitySettings14QualitySettingENS_9allocatorIS2_EEE7reserveEm
5822:__ZNSt3__26vectorIN15QualitySettings14QualitySettingENS_9allocatorIS2_EEE6assignINS_11__wrap_iterIPS2_EEEENS_9enable_ifIXaasr21__is_forward_iteratorIT_EE5valuesr16is_constructibleIS2_NS_15iterator_traitsISB_E9referenceEEE5valueEvE4typeESB_SB_
5823:__ZNSt3__26vectorIN15QualitySettings14QualitySettingENS_9allocatorIS2_EEE8__appendEm
5824:__ZN15QualitySettings8TransferI24GenerateTypeTreeTransferEEvRT_
5825:__ZN15QualitySettings14QualitySetting8TransferI24GenerateTypeTreeTransferEEvRT_
5826:__ZN15QualitySettings8TransferI18StreamedBinaryReadEEvRT_
5827:__ZN15QualitySettings14QualitySetting8TransferI18StreamedBinaryReadEEvRT_
5828:__ZN15QualitySettings8TransferI19StreamedBinaryWriteEEvRT_
5829:__ZN15QualitySettings14QualitySetting8TransferI19StreamedBinaryWriteEEvRT_
5830:__ZNSt3__26vectorIN15QualitySettings14QualitySettingENS_9allocatorIS2_EEE21__push_back_slow_pathIRKS2_EEvOT_
5831:__ZN11PlayerPrefs6GetIntERKN4core12basic_stringIcNS0_20StringStorageDefaultIcEEEEi
5832:__ZN15QualitySettings13ApplySettingsEib
5833:__ZN7Texture21SetMasterTextureLimitEib
5834:__ZN23TextureStreamingManager17SetFeatureEnabledEb
5835:__ZN23TextureStreamingManager15SetMemoryBudgetEf
5836:__ZN23TextureStreamingManager30ResetDesiredMipLevelsToLargestEv
5837:__ZN13dynamic_arrayI28StreamingTextureLastMipLevelLm0EE21resize_buffer_nocheckEm12ResizePolicy
5838:__ZN23TextureStreamingManager17RescanTextureDataEv
5839:__ZN23TextureStreamingManager15AddRendererDataER8Renderer
5840:__ZN23TextureStreamingResults6ResizeEii
5841:__ZN23TextureStreamingResults15ReserveTexturesEm
5842:__ZN20TextureStreamingData7CompactEPS_
5843:__ZN20TextureStreamingData11AddRendererEv
5844:__ZN20TextureStreamingDataD2Ev
5845:__ZN20TextureStreamingData19AllocateTextureInfoEP17StreamingRendererm
5846:__ZL21SetAnisoLimitEnumImplN7Texture20AnisotropicFilteringEb
5847:__ZN15TextureSettings14SetAnisoLimitsEii
5848:__ZL18InitializeIfNeededv
5849:__ZNSt3__26__treeINS_12__value_typeIN4core12basic_stringIcNS2_20StringStorageDefaultIcEEEE9PrefValueEENS_19__map_value_compareIS6_S8_NS_4lessIS6_EELb1EEENS_9allocatorIS8_EEE25__emplace_unique_key_argsIS6_JRKNS_21piecewise_construct_tENS_5tupleIJRKS6_EEENSK_IJEEEEEENS_4pairINS_15__tree_iteratorIS8_PNS_11__tree_nodeIS8_PvEElEEbEERKT_DpOT0_
5850:__Z18ReadStringFromFilePN4core17string_with_labelILi1EEERKNS_12basic_stringIcNS_20StringStorageDefaultIcEEEE
5851:__ZL11DecodeValuePPKcS0_
5852:__ZN13ScreenManager17RequestResolutionEii14FullscreenModei
5853:__ZN13ScreenManager22SetRequestedResolutionEv
5854:__ZN13ScreenManager14GetResolutionsER13dynamic_arrayI10ResolutionLm0EE
5855:__ZNK13ScreenManager19GetSystemResolutionEv
5856:__ZNK13ScreenManager20GetCurrentResolutionEv
5857:__ZNK13ScreenManager13GetBrightnessEv
5858:__ZN13ScreenManager13SetBrightnessEf
5859:__ZNK13ScreenManager16GetScreenTimeoutEv
5860:__ZNK13ScreenManager21GetCursorInsideWindowEv
5861:__ZN13ScreenManager21SetCursorInsideWindowEb
5862:__ZNK13ScreenManager11GetSafeAreaEv
5863:__ZN13ScreenManager26ReapplyRequestedResolutionEv
5864:__ZNK13ScreenManager6GetDPIEv
5865:__ZNK13ScreenManager12IsFullscreenEv
5866:__ZNK13ScreenManager17GetFullscreenModeEv
5867:__ZN13ScreenManager18RequestOrientationE17ScreenOrientation
5868:__ZNK13ScreenManager20GetScreenOrientationEv
5869:__ZN13ScreenManager20SetScreenOrientationE17ScreenOrientation
5870:__ZN13ScreenManager23SetIsOrientationEnabledE18EnabledOrientationb
5871:__ZN12CubemapArrayD2Ev
5872:__ZN12CubemapArrayD0Ev
5873:__ZN12CubemapArray13AwakeFromLoadE17AwakeFromLoadMode
5874:__ZNK12CubemapArray22GetTypeVirtualInternalEv
5875:__ZNK12CubemapArray20GetRuntimeMemorySizeEv
5876:__ZN12CubemapArray23VirtualRedirectTransferER19StreamedBinaryWrite
5877:__ZN12CubemapArray23VirtualRedirectTransferER18StreamedBinaryRead
5878:__ZN12CubemapArray23VirtualRedirectTransferER24GenerateTypeTreeTransfer
5879:__ZN12CubemapArray23VirtualRedirectTransferER14SafeBinaryRead
5880:__ZNK12CubemapArray26CanReuploadDataToGfxDeviceEv
5881:__ZNK12CubemapArray20GetTextureLayerCountEv
5882:__ZNK12CubemapArray12GetDimensionEv
5883:__ZN12CubemapArray34UpdateFileTextureUploadInstructionEP24TextureUploadInstructionj
5884:__ZN12CubemapArray17UploadToGfxDeviceEv
5885:__ZNK12CubemapArray16ExtractImageImplEP14ImageReference13ImageBlitModebi
5886:__ZN12CubemapArray13UploadTextureEv
5887:__ZN12CubemapArray8TransferI14SafeBinaryReadEEvRT_
5888:__ZN12CubemapArray26CreatePixelDataWhenReadingEjjb
5889:__ZN12CubemapArray8TransferI24GenerateTypeTreeTransferEEvRT_
5890:__ZN12CubemapArray8TransferI18StreamedBinaryReadEEvRT_
5891:__ZN12CubemapArray8TransferI19StreamedBinaryWriteEEvRT_
5892:__ZN8RendererD2Ev
5893:__ZN8RendererD0Ev
5894:__ZN8Renderer17MainThreadCleanupEv
5895:__ZN8Renderer13AwakeFromLoadE17AwakeFromLoadMode
5896:__ZN8Renderer16CheckConsistencyEv
5897:__ZN8Renderer10SmartResetEv
5898:__ZNK8Renderer22GetTypeVirtualInternalEv
5899:__ZN8Renderer23VirtualRedirectTransferER19StreamedBinaryWrite
5900:__ZN8Renderer23VirtualRedirectTransferER18StreamedBinaryRead
5901:__ZN8Renderer23VirtualRedirectTransferER17RemapPPtrTransfer
5902:__ZN8Renderer23VirtualRedirectTransferER24GenerateTypeTreeTransfer
5903:__ZN8Renderer23VirtualRedirectTransferER14SafeBinaryRead
5904:__ZN8Renderer26SupportedMessagesDidChangeEj
5905:__ZN8Renderer10DeactivateE19DeactivateOperation
5906:__ZNK8Renderer10GetEnabledEv
5907:__ZN8Renderer10SetEnabledEb
5908:__ZN8Renderer21RendererBecameVisibleEv
5909:__ZN8Renderer23RendererBecameInvisibleEv
5910:__ZN8Renderer20RendererAddedToSceneEv
5911:__ZN8Renderer24RendererRemovedFromSceneEv
5912:__ZN8Renderer15AddAsRenderNodeER15RenderNodeQueueRK20DeprecatedSourceData
5913:__ZNK8Renderer8GetLayerEv
5914:__ZNK8Renderer16GetMaterialCountEv
5915:__ZNK8Renderer11GetMaterialEi
5916:__ZN8Renderer11SetMaterialE4PPtrI8MaterialEi
5917:__ZN8Renderer20GetForceRenderingOffEv
5918:__ZN8Renderer20SetupSortingOverrideEb
5919:__ZThn32_N8RendererD1Ev
5920:__ZThn32_N8RendererD0Ev
5921:__ZThn32_N8Renderer15AddAsRenderNodeER15RenderNodeQueueRK20DeprecatedSourceData
5922:__ZThn32_NK8Renderer8GetLayerEv
5923:__ZThn32_NK8Renderer16GetMaterialCountEv
5924:__ZThn32_NK8Renderer11GetMaterialEi
5925:__ZThn32_N8Renderer20GetForceRenderingOffEv
5926:__ZN8Renderer15ThreadedCleanupEv
5927:__Z35UpdateSortingGroupStatusForRendererP8Renderer
5928:__ZN8LODGroup23GetLODGroupIndexAndMaskEPK8RendererPjPh
5929:__ZNK8Renderer29FlattenPerMaterialCustomPropsER22PerThreadPageAllocatorR10RenderNode
5930:__Z30GetLightProbeProxyVolumeHandleRK28LightProbeProxyVolumeContextRK8Renderer
5931:__ZN28ReflectionProbeAnchorManager18RemoveCachedAnchorERK4PPtrI9TransformE
5932:__ZN28ReflectionProbeAnchorManager15AddCachedAnchorERK4PPtrI9TransformE
5933:__ZN4core8hash_mapIiN28ReflectionProbeAnchorManager16CachedAnchorDataENS_4hashIiEENSt3__28equal_toIiEEEixERKi
5934:__ZN4core8hash_setINS_4pairIKiN28ReflectionProbeAnchorManager16CachedAnchorDataELb0EEENS_9hash_pairINS_4hashIiEES2_S4_EENS_10equal_pairINSt3__28equal_toIiEES2_S4_EEE4growEi
5935:__ZN6Object11InvokeEventEi
5936:__ZN8Renderer10AddToSceneEv
5937:__ZN8Renderer15RemoveFromSceneEv
5938:__ZN23TextureStreamingManager14RemoveRendererER8Renderer
5939:__ZN21RendererUpdateManager14RemoveRendererER8Renderer
5940:__ZN20TextureStreamingData14RemoveRendererEi
5941:__ZN13RendererScene11AddRendererEP8Renderer
5942:__ZN21RendererUpdateManager11AddRendererER8Renderer
5943:__ZN13RendererScene19AddRendererInternalEP8Rendereri
5944:__ZN13dynamic_arrayIhLm0EE4growEv
5945:__ZN13RendererScene30RemoveRendererFromPendingNodesEP8Renderer
5946:__Z34ClearSortingGroupStatusForRendererP8Renderer
5947:__ZN8Renderer8TransferI14SafeBinaryReadEEvRT_
5948:__ZN14SafeBinaryRead21TransferSTLStyleArrayI13dynamic_arrayI4PPtrI8MaterialELm0EEEEvRT_17TransferMetaFlags
5949:__ZN15StaticBatchInfo8TransferI14SafeBinaryReadEEvRT_
5950:__ZN8Renderer8TransferI24GenerateTypeTreeTransferEEvRT_
5951:__ZN8Renderer8TransferI17RemapPPtrTransferEEvRT_
5952:__ZN8Renderer8TransferI18StreamedBinaryReadEEvRT_
5953:__ZN18StreamedBinaryRead21TransferSTLStyleArrayI13dynamic_arrayI4PPtrI8MaterialELm0EEEEvRT_17TransferMetaFlags
5954:__ZN8Renderer8TransferI19StreamedBinaryWriteEEvRT_
5955:__ZN8Renderer16SetMaterialCountEi
5956:__ZN21RendererUpdateManager19DirtyDispatchUpdateER8Renderer
5957:__ZN8Renderer24SetupNewRendererForSceneEb
5958:__ZN8LODGroup25RemoveFromCachedRenderersEP8Renderer
5959:__ZN16LightmapSettingsD2Ev
5960:__ZN16LightmapSettingsD0Ev
5961:__ZN16LightmapSettings13AwakeFromLoadE17AwakeFromLoadMode
5962:__ZN16LightmapSettings5ResetEv
5963:__ZNK16LightmapSettings22GetTypeVirtualInternalEv
5964:__ZN16LightmapSettings23VirtualRedirectTransferER19StreamedBinaryWrite
5965:__ZN16LightmapSettings23VirtualRedirectTransferER18StreamedBinaryRead
5966:__ZN16LightmapSettings23VirtualRedirectTransferER17RemapPPtrTransfer
5967:__ZN16LightmapSettings23VirtualRedirectTransferER24GenerateTypeTreeTransfer
5968:__ZN16LightmapSettings23VirtualRedirectTransferER14SafeBinaryRead
5969:__ZN16LightmapSettings8TransferI14SafeBinaryReadEEvRT_
5970:__ZN21EnlightenSceneMapping8TransferI14SafeBinaryReadEEvRT_
5971:__ZN14SafeBinaryRead21TransferSTLStyleArrayI13dynamic_arrayI12LightmapDataLm0EEEEvRT_17TransferMetaFlags
5972:__ZN10GISettings8TransferI14SafeBinaryReadEEvRT_
5973:__ZN16LightmapSettings18TransferDeprecatedI14SafeBinaryReadEEvRT_
5974:__ZN12LightmapData8TransferI14SafeBinaryReadEEvRT_
5975:__ZN14SafeBinaryRead21TransferSTLStyleArrayI13dynamic_arrayI28EnlightenRendererInformationLm0EEEEvRT_17TransferMetaFlags
5976:__ZN14SafeBinaryRead21TransferSTLStyleArrayI13dynamic_arrayI26EnlightenSystemInformationLm0EEEEvRT_17TransferMetaFlags
5977:__ZN14SafeBinaryRead21TransferSTLStyleArrayI13dynamic_arrayI7Hash128Lm0EEEEvRT_17TransferMetaFlags
5978:__ZN14SafeBinaryRead21TransferSTLStyleArrayI13dynamic_arrayI31EnlightenSystemAtlasInformationLm0EEEEvRT_17TransferMetaFlags
5979:__ZN14SafeBinaryRead21TransferSTLStyleArrayI13dynamic_arrayI33EnlightenTerrainChunksInformationLm0EEEEvRT_17TransferMetaFlags
5980:__ZN21EnlightenSceneMapping16BuildRemapTablesEv
5981:__ZN15SerializeTraitsI33EnlightenTerrainChunksInformationE8TransferI14SafeBinaryReadEEvRS0_RT_
5982:__ZN15SerializeTraitsI31EnlightenSystemAtlasInformationE8TransferI14SafeBinaryReadEEvRS0_RT_
5983:__ZN26EnlightenSystemInformation8TransferI14SafeBinaryReadEEvRT_
5984:__ZN28EnlightenRendererInformation8TransferI14SafeBinaryReadEEvRT_
5985:__ZN16LightmapSettings8TransferI24GenerateTypeTreeTransferEEvRT_
5986:__ZN21EnlightenSceneMapping8TransferI24GenerateTypeTreeTransferEEvRT_
5987:__ZN15SerializeTraitsI12LightmapDataE8TransferI24GenerateTypeTreeTransferEEvRS0_RT_
5988:__ZN10GISettings8TransferI24GenerateTypeTreeTransferEEvRT_
5989:__ZN28EnlightenRendererInformation8TransferI24GenerateTypeTreeTransferEEvRT_
5990:__ZN26EnlightenSystemInformation8TransferI24GenerateTypeTreeTransferEEvRT_
5991:__ZN24GenerateTypeTreeTransfer8TransferI13dynamic_arrayI33EnlightenTerrainChunksInformationLm0EEEEvRT_PKc17TransferMetaFlags
5992:__ZN16LightmapSettings8TransferI17RemapPPtrTransferEEvRT_
5993:__ZN16LightmapSettings8TransferI18StreamedBinaryReadEEvRT_
5994:__ZN21EnlightenSceneMapping8TransferI18StreamedBinaryReadEEvRT_
5995:__ZN18StreamedBinaryRead21TransferSTLStyleArrayI13dynamic_arrayI12LightmapDataLm0EEEEvRT_17TransferMetaFlags
5996:__ZN10GISettings8TransferI18StreamedBinaryReadEEvRT_
5997:__ZN18StreamedBinaryRead21TransferSTLStyleArrayI13dynamic_arrayI28EnlightenRendererInformationLm0EEEEvRT_17TransferMetaFlags
5998:__ZN18StreamedBinaryRead21TransferSTLStyleArrayI13dynamic_arrayI26EnlightenSystemInformationLm0EEEEvRT_17TransferMetaFlags
5999:__ZN18StreamedBinaryRead21TransferSTLStyleArrayI13dynamic_arrayI7Hash128Lm0EEEEvRT_17TransferMetaFlags
6000:__ZN18StreamedBinaryRead21TransferSTLStyleArrayI13dynamic_arrayI31EnlightenSystemAtlasInformationLm0EEEEvRT_17TransferMetaFlags
6001:__ZN18StreamedBinaryRead21TransferSTLStyleArrayI13dynamic_arrayI33EnlightenTerrainChunksInformationLm0EEEEvRT_17TransferMetaFlags
6002:__ZN26EnlightenSystemInformation8TransferI18StreamedBinaryReadEEvRT_
6003:__ZN16LightmapSettings8TransferI19StreamedBinaryWriteEEvRT_
6004:__ZN21EnlightenSceneMapping8TransferI19StreamedBinaryWriteEEvRT_
6005:__ZN10GISettings8TransferI19StreamedBinaryWriteEEvRT_
6006:__ZN19StreamedBinaryWrite21TransferSTLStyleArrayI13dynamic_arrayI28EnlightenRendererInformationLm0EEEEvRT_17TransferMetaFlags
6007:__ZN26EnlightenSystemInformation8TransferI19StreamedBinaryWriteEEvRT_
6008:__ZN15SerializeTraitsI13dynamic_arrayI31EnlightenSystemAtlasInformationLm0EEE8TransferI19StreamedBinaryWriteEEvRS2_RT_
6009:__ZN10GISettings5ResetEv
6010:__ZN6SpriteD2Ev
6011:__ZN6SpriteD0Ev
6012:__ZN6Sprite17MainThreadCleanupEv
6013:__ZN6Sprite13AwakeFromLoadE17AwakeFromLoadMode
6014:__ZNK6Sprite22GetTypeVirtualInternalEv
6015:__ZN6Sprite23VirtualRedirectTransferER19StreamedBinaryWrite
6016:__ZN6Sprite23VirtualRedirectTransferER18StreamedBinaryRead
6017:__ZN6Sprite23VirtualRedirectTransferER17RemapPPtrTransfer
6018:__ZN6Sprite23VirtualRedirectTransferER24GenerateTypeTreeTransfer
6019:__ZN6Sprite23VirtualRedirectTransferER14SafeBinaryRead
6020:__ZN6Sprite8TransferI14SafeBinaryReadEEvRT_
6021:__ZN16SpriteRenderData8TransferI14SafeBinaryReadEEvRT_
6022:__ZN14SafeBinaryRead21TransferSTLStyleArrayI13dynamic_arrayIS1_I8Vector2fLm0EELm0EEEEvRT_17TransferMetaFlags
6023:__ZN14SafeBinaryRead21TransferSTLStyleArrayI13dynamic_arrayI10SpriteBoneLm0EEEEvRT_17TransferMetaFlags
6024:__ZN10SpriteBone8TransferI14SafeBinaryReadEEvRT_
6025:__ZN14SafeBinaryRead21TransferSTLStyleArrayI13dynamic_arrayI8Vector2fLm0EEEEvRT_17TransferMetaFlags
6026:__ZN14SafeBinaryRead21TransferSTLStyleArrayI13dynamic_arrayI22SecondarySpriteTextureLm0EEEEvRT_17TransferMetaFlags
6027:__ZN14SafeBinaryRead21TransferSTLStyleArrayI13dynamic_arrayI7SubMeshLm0EEEEvRT_17TransferMetaFlags
6028:__ZN14SafeBinaryRead21TransferSTLStyleArrayI13dynamic_arrayI12SpriteVertexLm0EEEEvRT_17TransferMetaFlags
6029:__ZN14SafeBinaryRead21TransferSTLStyleArrayI13dynamic_arrayItLm0EEEEvRT_17TransferMetaFlags
6030:__Z23SetSpriteMeshIndexCountP14SharedMeshDatam
6031:__Z24SetSpriteMeshVertexCountP14SharedMeshDatam
6032:__ZN10VertexData8TransferI14SafeBinaryReadEEvRT_
6033:__ZN14SafeBinaryRead21TransferSTLStyleArrayI13dynamic_arrayI10Matrix4x4fLm16EEEEvRT_17TransferMetaFlags
6034:__ZN14SafeBinaryRead21TransferSTLStyleArrayI13dynamic_arrayI12BoneWeights4Lm0EEEEvRT_17TransferMetaFlags
6035:__ZN12BoneWeights48TransferI14SafeBinaryReadEEvRT_
6036:__ZN14SafeBinaryRead21TransferSTLStyleArrayI13dynamic_arrayI17VertexChannelInfoLm0EEEEvRT_17TransferMetaFlags
6037:__Z33BuildLegacyShaderChannelsFromMaskR13dynamic_arrayI17VertexChannelInfoLm0EEj
6038:__ZN10VertexData27ConvertLegacyShaderChannelsERK13dynamic_arrayI17VertexChannelInfoLm0EE
6039:__ZN10VertexDataC2E10MemLabelIdRKS_17ShaderChannelMaskRK19VertexStreamsLayoutRK22VertexAttributeFormats
6040:__ZN15SerializeTraitsI17VertexChannelInfoE8TransferI14SafeBinaryReadEEvRS0_RT_
6041:__ZN14SafeBinaryRead8TransferItEEvRT_PKc17TransferMetaFlags
6042:__ZN12SpriteVertex8TransferI14SafeBinaryReadEEvRT_
6043:__ZN7SubMesh8TransferI14SafeBinaryReadEEvRT_
6044:__ZN22SecondarySpriteTexture8TransferI14SafeBinaryReadEEvRT_
6045:__ZN6Sprite8TransferI24GenerateTypeTreeTransferEEvRT_
6046:__ZN16SpriteRenderData8TransferI24GenerateTypeTreeTransferEEvRT_
6047:__ZN10SpriteBone8TransferI24GenerateTypeTreeTransferEEvRT_
6048:__ZN22SecondarySpriteTexture8TransferI24GenerateTypeTreeTransferEEvRT_
6049:__ZN7SubMesh8TransferI24GenerateTypeTreeTransferEEvRT_
6050:__ZN10VertexData8TransferI24GenerateTypeTreeTransferEEvRT_
6051:__ZN17VertexChannelInfo8TransferI24GenerateTypeTreeTransferEEvRT_
6052:__ZN16SpriteRenderData8TransferI17RemapPPtrTransferEEvRT_
6053:__ZN10VertexData8TransferI17RemapPPtrTransferEEvRT_
6054:__ZN6Sprite8TransferI18StreamedBinaryReadEEvRT_
6055:__ZN16SpriteRenderData8TransferI18StreamedBinaryReadEEvRT_
6056:__ZN18StreamedBinaryRead21TransferSTLStyleArrayI13dynamic_arrayIS1_I8Vector2fLm0EELm0EEEEvRT_17TransferMetaFlags
6057:__ZN18StreamedBinaryRead21TransferSTLStyleArrayI13dynamic_arrayI10SpriteBoneLm0EEEEvRT_17TransferMetaFlags
6058:__ZN10SpriteBone8TransferI18StreamedBinaryReadEEvRT_
6059:__ZN18StreamedBinaryRead21TransferSTLStyleArrayI13dynamic_arrayI22SecondarySpriteTextureLm0EEEEvRT_17TransferMetaFlags
6060:__ZN18StreamedBinaryRead21TransferSTLStyleArrayI13dynamic_arrayI7SubMeshLm0EEEEvRT_17TransferMetaFlags
6061:__ZN10VertexData8TransferI18StreamedBinaryReadEEvRT_
6062:__ZN18StreamedBinaryRead21TransferSTLStyleArrayI13dynamic_arrayI17VertexChannelInfoLm0EEEEvRT_17TransferMetaFlags
6063:__ZN17VertexChannelInfo8TransferI18StreamedBinaryReadEEvRT_
6064:__ZN7SubMesh8TransferI18StreamedBinaryReadEEvRT_
6065:__ZN6Sprite8TransferI19StreamedBinaryWriteEEvRT_
6066:__ZN16SpriteRenderData8TransferI19StreamedBinaryWriteEEvRT_
6067:__ZN19StreamedBinaryWrite8TransferI13dynamic_arrayI8Vector2fLm0EEEEvRT_PKc17TransferMetaFlags
6068:__ZN10SpriteBone8TransferI19StreamedBinaryWriteEEvRT_
6069:__ZN7SubMesh8TransferI19StreamedBinaryWriteEEvRT_
6070:__ZN10VertexData8TransferI19StreamedBinaryWriteEEvRT_
6071:__ZN17VertexChannelInfo8TransferI19StreamedBinaryWriteEEvRT_
6072:__ZN6Sprite19LoadAtlasRenderDataEb
6073:__ZN18SpriteAtlasManager8GetAtlasERK4PPtrI6SpriteE
6074:__ZNK11SpriteAtlas20GetRuntimeRenderDataEPK6Sprite
6075:__ZNK4core8hash_setINS_4pairIKNSt3__24pairI9UnityGUIDxEE15SpriteAtlasDataLb0EEENS_9hash_pairI23SpriteRenderDataKeyHashS6_S7_EENS_10equal_pairINS2_8equal_toIS5_EES6_S7_EEE6lookupIS5_EEPNSG_4nodeERKT_
6076:__ZN13sorted_vectorI4PPtrI11SpriteAtlasENSt3__24lessIS2_EE13stl_allocatorIS2_L18MemLabelIdentifier1ELi16EEE21sort_clear_duplicatesEv
6077:__ZNK4core8hash_setINS_4pairIKNS_12basic_stringIcNS_20StringStorageDefaultIcEEEE10vector_setI4PPtrI11SpriteAtlasENSt3__24lessISA_EE13stl_allocatorISA_L18MemLabelIdentifier85ELi16EEELb1EEENS_9hash_pairINS_4hashIS5_EES6_SH_EENS_10equal_pairINSB_8equal_toIS5_EES6_SH_EEE6lookupIS5_EEPNSR_4nodeERKT_
6078:__ZNSt3__26vectorI4PPtrI11SpriteAtlasE13stl_allocatorIS3_L18MemLabelIdentifier1ELi16EEE21__push_back_slow_pathIRKS3_EEvOT_
6079:__ZN18SpriteAtlasManager19AddRequestingSpriteE4PPtrI6SpriteE
6080:__ZNSt3__26vectorI4PPtrI6SpriteE13stl_allocatorIS3_L18MemLabelIdentifier85ELi16EEE21__push_back_slow_pathIRKS3_EEvOT_
6081:__ZN4core8hash_mapINS_12basic_stringIcNS_20StringStorageDefaultIcEEEE10vector_setI4PPtrI6SpriteENSt3__24lessIS8_EE13stl_allocatorIS8_L18MemLabelIdentifier85ELi16EEENS_4hashIS4_EENS9_8equal_toIS4_EEEixERKS4_
6082:__ZNSt3__26vectorI4PPtrI6SpriteE13stl_allocatorIS3_L18MemLabelIdentifier85ELi16EEE6assignIPS3_EENS_9enable_ifIXaasr21__is_forward_iteratorIT_EE5valuesr16is_constructibleIS3_NS_15iterator_traitsISB_E9referenceEEE5valueEvE4typeESB_SB_
6083:__ZN13sorted_vectorIN4core12basic_stringIcNS0_20StringStorageDefaultIcEEEENSt3__24lessIS4_EE13stl_allocatorIS4_L18MemLabelIdentifier85ELi16EEE4findIS4_EENS5_11__wrap_iterIPS4_EERKT_
6084:__ZNSt3__26vectorIN4core12basic_stringIcNS1_20StringStorageDefaultIcEEEE13stl_allocatorIS5_L18MemLabelIdentifier85ELi16EEE21__push_back_slow_pathIRKS5_EEvOT_
6085:__ZN4core8hash_setINS_4pairIKNS_12basic_stringIcNS_20StringStorageDefaultIcEEEE10vector_setI4PPtrI6SpriteENSt3__24lessISA_EE13stl_allocatorISA_L18MemLabelIdentifier85ELi16EEELb1EEENS_9hash_pairINS_4hashIS5_EES6_SH_EENS_10equal_pairINSB_8equal_toIS5_EES6_SH_EEE4growEi
6086:__ZNSt3__213__stable_sortIRNS_4lessI4PPtrI11SpriteAtlasEEENS_11__wrap_iterIPS4_EEEEvT0_SA_T_NS_15iterator_traitsISA_E15difference_typeEPNSD_10value_typeEl
6087:__ZNSt3__218__stable_sort_moveIRNS_4lessI4PPtrI11SpriteAtlasEEENS_11__wrap_iterIPS4_EEEEvT0_SA_T_NS_15iterator_traitsISA_E15difference_typeEPNSD_10value_typeE
6088:__ZNSt3__215__inplace_mergeIRNS_4lessI4PPtrI11SpriteAtlasEEENS_11__wrap_iterIPS4_EEEEvT0_SA_SA_T_NS_15iterator_traitsISA_E15difference_typeESE_PNSD_10value_typeEl
6089:__ZN16SpriteRenderData17MainThreadCleanupEv
6090:__ZN15GeometryBuffers4FreeEv
6091:__ZN13dynamic_arrayI10SpriteBoneLm0EED2Ev
6092:__ZN16SpriteRenderDataD2Ev
6093:__ZN13dynamic_arrayI22SecondarySpriteTextureLm0EED2Ev
6094:__ZN7CubemapD2Ev
6095:__ZN7CubemapD0Ev
6096:__ZNK7Cubemap22GetTypeVirtualInternalEv
6097:__ZN7Cubemap23VirtualRedirectTransferER19StreamedBinaryWrite
6098:__ZN7Cubemap23VirtualRedirectTransferER18StreamedBinaryRead
6099:__ZN7Cubemap23VirtualRedirectTransferER17RemapPPtrTransfer
6100:__ZN7Cubemap23VirtualRedirectTransferER24GenerateTypeTreeTransfer
6101:__ZN7Cubemap23VirtualRedirectTransferER14SafeBinaryRead
6102:__ZNK7Cubemap12GetDimensionEv
6103:__ZN7Cubemap34UpdateFileTextureUploadInstructionEP24TextureUploadInstructionj
6104:__ZN7Cubemap13UploadTextureEi
6105:__ZN7Cubemap13RebuildMipMapEv
6106:__ZN9Texture2D24AcquireSharedTextureDataEv
6107:__ZN14SafeBinaryRead22TransferWithTypeStringI7CubemapEEvRT_PKcS5_17TransferMetaFlags
6108:__ZN14SafeBinaryRead21TransferSTLStyleArrayINSt3__26vectorI4PPtrI9Texture2DENS1_9allocatorIS5_EEEEEEvRT_17TransferMetaFlags
6109:__Z14resize_trimmedINSt3__26vectorI4PPtrI9Texture2DENS0_9allocatorIS4_EEEEEvRT_j
6110:__ZNSt3__26vectorI4PPtrI9Texture2DENS_9allocatorIS3_EEE6assignINS_11__wrap_iterIPS3_EEEENS_9enable_ifIXaasr21__is_forward_iteratorIT_EE5valuesr16is_constructibleIS3_NS_15iterator_traitsISC_E9referenceEEE5valueEvE4typeESC_SC_
6111:__ZNSt3__26vectorI4PPtrI9Texture2DENS_9allocatorIS3_EEE8__appendEm
6112:__ZN7Cubemap8TransferI18StreamedBinaryReadEEvRT_
6113:__ZN7Cubemap8TransferI19StreamedBinaryWriteEEvRT_
6114:__ZN9Texture2D15ThreadedCleanupEv
6115:__ZN14SafeBinaryRead21TransferSTLStyleArrayI13dynamic_arrayI8Vector4fLm0EEEEvRT_17TransferMetaFlags
6116:__ZN18StreamedBinaryRead8TransferI13dynamic_arrayItLm0EEEEvRT_PKc17TransferMetaFlags
6117:__ZN8Renderer13BoundsChangedEv
6118:__ZN13RenderTexture9GetActiveEi
6119:__Z25LoadFullScreenOrthoMatrixffR9GfxDevice
6120:__ZN22DeviceMVPMatricesStateD2Ev
6121:__ZN29ExtractProjectionPlanesHelperILb0EE5ApplyERK10Matrix4x4fP5Plane
6122:__ZN8Material8SetFloatEN9ShaderLab16FastPropertyNameEf
6123:__ZN12ImageFilters4BlitER17ShaderPassContextP7TextureP13RenderTextureiP8MaterialiNS_9BlitFlagsE11CubemapFaceRK8Vector2fSC_
6124:__ZN8Material11HasPropertyEN9ShaderLab16FastPropertyNameE
6125:__ZN12ImageFilters4BlitER17ShaderPassContextP7TextureP13RenderTextureiPK18SharedMaterialDataPKcP6ShaderiNS_9BlitFlagsE11CubemapFaceRK8Vector2fSH_
6126:__ZN16BlitStereoHelperC2ER9GfxDeviceR17ShaderPassContextP7TextureP13RenderTexture
6127:__ZL22SetCurrentRenderTargetP13RenderTextureiNS_14SetActiveFlagsE11CubemapFace
6128:__ZN12ImageFilters18ShouldYFlipTextureEP7TextureP13RenderTexture
6129:__ZN13ApplyKeywordsC2EPK6ShaderRK18SharedMaterialDataR17ShaderPassContext
6130:__ZN19ShaderPropertySheet18ReserveValueBufferEm
6131:__ZN14GraphicsHelper15CreateQuadChunkER9GfxDevicebRK5RectTIfE
6132:__ZN16BlitStereoHelper16PrepareEyeRenderEiRK19ShaderPropertySheetRS0_bRK8Vector2fS6_14VRTextureUsage
6133:__ZN9ShaderLab4Pass9ApplyPassEjPK19ShaderPropertySheetR17ShaderPassContextP6ShaderiiPKNS_10GrabPassesEPNS_11SubProgramsEPK22DeviceRenderStateBlock
6134:__ZN14GraphicsHelper15RenderQuadChunkER9GfxDevice16VertexInputMasks
6135:__ZNK6Shader28FixupSubshaderAndPassIndicesERiS0_
6136:__ZNK6Shader20GetLocalKeywordRemapEii
6137:__ZN30ShaderEnabledKeywordEnumerator8MoveNextEv
6138:__ZNK9ShaderLab11ShaderState16ApplyShaderStateEjPK19ShaderPropertySheetRK17ShaderPassContextP6ShaderPNS_4PassEPNS_11SubProgramsEPK22DeviceRenderStateBlock
6139:__ZN9ShaderLab10GrabPasses13ApplyGrabPassERKNS_16FastPropertyNameER17ShaderPassContextRKS0_
6140:__ZN9ShaderLab10GrabPasses23ApplyGrabPassMainThreadERKNS_16FastPropertyNameER17ShaderPassContext
6141:__ZN9ShaderLabL15GetSizedTextureEPK6CameraRKNS_16FastPropertyNameEbbRb
6142:__ZN13RenderTexture17SetGlobalPropertyERKN9ShaderLab16FastPropertyNameER17ShaderPassContext
6143:__ZN9ShaderLabL27GetDesiredRenderTextureDescEPK6Camera
6144:__ZN13RenderTexture10GrabPixelsEiiii
6145:__ZN7Texture13SetFilterModeE17TextureFilterMode
6146:__ZN13RenderTexture10GrabPixelsE12ObjectHandleI17RenderSurface_TagP17RenderSurfaceBaseES4_iiii
6147:__ZN19ShaderPropertySheet38CopyTextureWithAuxiliaryPropertiesFromERKN9ShaderLab16FastPropertyNameERKS_
6148:__ZNK9ShaderLab11ShaderState20FindSubProgramsToUseEPK6ShaderPKNS_4PassERNS_11SubProgramsERK17ShaderPassContextb
6149:__ZNK9ShaderLab10SubProgram14EnsureCompiledEv
6150:__ZN14GraphicsHelper28PrepareShaderParameterBufferER13dynamic_arrayIhLm4EERA7_P10GpuProgramRA7_PK20GpuProgramParametersRA7_PKhRKN9ShaderLab11SubProgramsEPK19ShaderPropertySheetSM_
6151:__ZNK22DeviceRenderStateBlock8OverrideERN9ShaderLab11ShaderState12DeviceStatesERi
6152:__ZNK20GpuProgramParameters13PrepareValuesEPK19ShaderPropertySheetS2_R13dynamic_arrayIhLm4EEmP12GfxPatchInfoPb
6153:__ZL22PrepareValueParametersI21FullParameterPreparerEvRK13dynamic_arrayIN20GpuProgramParameters14ValueParameterELm0EEjjjRS1_IhLm4EERKT_
6154:__ZNK21FullParameterPreparer16OnPrepareTextureERPKN9ShaderLab6TexEnvERKN20GpuProgramParameters16TextureParameterEm
6155:__ZN9ShaderLab11shaderprops17GetConstantBufferEPK19ShaderPropertySheetS3_NS_16FastPropertyNameE
6156:__ZN9ShaderLab11shaderprops16GetComputeBufferEPK19ShaderPropertySheetS3_NS_16FastPropertyNameE
6157:__ZN9ShaderLab11shaderprops9GetTexEnvEPK19ShaderPropertySheetS3_NS_16FastPropertyNameE16TextureDimensionb
6158:__ZNK21FullParameterPreparer14OnPrepareFloatER12PartialArrayIfERKN20GpuProgramParameters14ValueParameterEm
6159:__ZNK21FullParameterPreparer15OnPrepareVectorER12PartialArrayI8Vector4fERKN20GpuProgramParameters14ValueParameterEm
6160:__ZNK21FullParameterPreparer15OnPrepareMatrixER12PartialArrayI10Matrix4x4fERKN20GpuProgramParameters14ValueParameterEm
6161:__ZN9ShaderLab11shaderprops9GetMatrixEPK19ShaderPropertySheetS3_NS_16FastPropertyNameE
6162:__ZN9ShaderLab11shaderprops9GetVectorEPK19ShaderPropertySheetS3_NS_16FastPropertyNameE
6163:__ZNK9ShaderLab11ShaderState34ShouldRemoveAnyUnsupportedProgramsEv
6164:__ZN9ShaderLab11ShaderState25RemoveUnsupportedProgramsEPK6Shader
6165:__ZN6Shader27MarkShaderStateNotSupportedEPKS_
6166:__ZN9ShaderLab7Program14RemoveVariantsERK13dynamic_arrayI16ShaderKeywordSetLm0EE
6167:__ZNK9ShaderLab7Program19HasMatchingVariantsERK13dynamic_arrayI16ShaderKeywordSetLm0EE
6168:__ZN30ShaderEnabledKeywordEnumeratorC2ERK16ShaderKeywordSet
6169:__ZN19ShaderPropertySheet24SetTextureScaleAndOffsetERK23FastTexturePropertyName8Vector2fS3_
6170:__ZN13RenderTexture9SetActiveEiP12ObjectHandleI17RenderSurface_TagP17RenderSurfaceBaseES4_PPS_i11CubemapFaceiNS_14SetActiveFlagsE
6171:__ZN22DeviceMVPMatricesStateC2ER9GfxDevice
6172:__ZN12ImageFilters4BlitER17ShaderPassContextP7TextureP13RenderTextureiiRK8Vector2fS8_NS_9BlitFlagsE
6173:__ZNK6Camera18GetRenderRectangleEv
6174:__ZN12ImageFilters19GetBlitCopyMaterialENS_12BlitCopyModeE
6175:__ZN12ScriptMapper10FindShaderERKN4core12basic_stringIcNS0_20StringStorageDefaultIcEEEE
6176:__ZN8Material14CreateMaterialER6ShaderN6Object9HideFlagsEb
6177:__ZN8Material21BuildShaderKeywordSetEv
6178:__Z14CreateCallbackN4core16basic_string_refIcEEPv
6179:__ZN4core5SplitENS_16basic_string_refIcEEcPFvS1_PvES2_
6180:__ZN8MaterialD2Ev
6181:__ZN8MaterialD0Ev
6182:__ZN8Material17MainThreadCleanupEv
6183:__ZN8Material13AwakeFromLoadE17AwakeFromLoadMode
6184:__ZN8Material5ResetEv
6185:__ZNK8Material22GetTypeVirtualInternalEv
6186:__ZNK8Material20GetRuntimeMemorySizeEv
6187:__ZN8Material23VirtualRedirectTransferER19StreamedBinaryWrite
6188:__ZN8Material23VirtualRedirectTransferER18StreamedBinaryRead
6189:__ZN8Material23VirtualRedirectTransferER17RemapPPtrTransfer
6190:__ZN8Material23VirtualRedirectTransferER24GenerateTypeTreeTransfer
6191:__ZN8Material23VirtualRedirectTransferER14SafeBinaryRead
6192:__ZN8Material8TransferI14SafeBinaryReadEEvRT_
6193:__ZN14SafeBinaryRead19TransferSTLStyleMapINSt3__23mapIN4core12basic_stringIcNS3_20StringStorageDefaultIcEEEES7_NS1_4lessIS7_EE13stl_allocatorINS1_4pairIKS7_S7_EEL18MemLabelIdentifier1ELi16EEEEEEvRT_17TransferMetaFlags
6194:__ZN14SafeBinaryRead21TransferSTLStyleArrayINSt3__26vectorIN4core12basic_stringIcNS3_20StringStorageDefaultIcEEEE13stl_allocatorIS7_L18MemLabelIdentifier1ELi16EEEEEEvRT_17TransferMetaFlags
6195:__ZN18UnityPropertySheet8TransferI14SafeBinaryReadEEvRT_
6196:__ZNSt3__26__treeINS_12__value_typeIN4core12basic_stringIcNS2_20StringStorageDefaultIcEEEES6_EENS_19__map_value_compareIS6_S7_NS_4lessIS6_EELb1EEE13stl_allocatorIS7_L18MemLabelIdentifier1ELi16EEE7destroyEPNS_11__tree_nodeIS7_PvEE
6197:__ZN14SafeBinaryRead19TransferSTLStyleMapINSt3__23mapI39DeprecatedFastPropertyNameSerializationN18UnityPropertySheet11UnityTexEnvENS1_4lessIS3_EENS1_9allocatorINS1_4pairIKS3_S5_EEEEEEEEvRT_17TransferMetaFlags
6198:__ZN14SafeBinaryRead19TransferSTLStyleMapINSt3__23mapI39DeprecatedFastPropertyNameSerializationfNS1_4lessIS3_EENS1_9allocatorINS1_4pairIKS3_fEEEEEEEEvRT_17TransferMetaFlags
6199:__ZN14SafeBinaryRead19TransferSTLStyleMapINSt3__23mapI39DeprecatedFastPropertyNameSerialization10ColorRGBAfNS1_4lessIS3_EENS1_9allocatorINS1_4pairIKS3_S4_EEEEEEEEvRT_17TransferMetaFlags
6200:__ZN14SafeBinaryRead19TransferSTLStyleMapINSt3__23mapIN9ShaderLab16FastPropertyNameEN18UnityPropertySheet11UnityTexEnvENS1_4lessIS4_EENS1_9allocatorINS1_4pairIKS4_S6_EEEEEEEEvRT_17TransferMetaFlags
6201:__ZN14SafeBinaryRead19TransferSTLStyleMapINSt3__23mapIN9ShaderLab16FastPropertyNameEfNS1_4lessIS4_EENS1_9allocatorINS1_4pairIKS4_fEEEEEEEEvRT_17TransferMetaFlags
6202:__ZN14SafeBinaryRead19TransferSTLStyleMapINSt3__23mapIN9ShaderLab16FastPropertyNameE10ColorRGBAfNS1_4lessIS4_EENS1_9allocatorINS1_4pairIKS4_S5_EEEEEEEEvRT_17TransferMetaFlags
6203:__ZNSt3__26__treeINS_12__value_typeIN9ShaderLab16FastPropertyNameE10ColorRGBAfEENS_19__map_value_compareIS3_S5_NS_4lessIS3_EELb1EEENS_9allocatorIS5_EEE7destroyEPNS_11__tree_nodeIS5_PvEE
6204:__ZN15SerializeTraitsINSt3__24pairIN9ShaderLab16FastPropertyNameE10ColorRGBAfEEE8TransferI14SafeBinaryReadEEvRS5_RT_
6205:__ZNSt3__26__treeINS_12__value_typeIN9ShaderLab16FastPropertyNameEfEENS_19__map_value_compareIS3_S4_NS_4lessIS3_EELb1EEENS_9allocatorIS4_EEE7destroyEPNS_11__tree_nodeIS4_PvEE
6206:__ZN15SerializeTraitsINSt3__24pairIN9ShaderLab16FastPropertyNameEfEEE8TransferI14SafeBinaryReadEEvRS4_RT_
6207:__ZNSt3__26__treeINS_12__value_typeIN9ShaderLab16FastPropertyNameEN18UnityPropertySheet11UnityTexEnvEEENS_19__map_value_compareIS3_S6_NS_4lessIS3_EELb1EEENS_9allocatorIS6_EEE7destroyEPNS_11__tree_nodeIS6_PvEE
6208:__ZN15SerializeTraitsINSt3__24pairIN9ShaderLab16FastPropertyNameEN18UnityPropertySheet11UnityTexEnvEEEE8TransferI14SafeBinaryReadEEvRS6_RT_
6209:__ZN18UnityPropertySheet11UnityTexEnv8TransferI14SafeBinaryReadEEvRT_
6210:__ZNSt3__26__treeINS_12__value_typeI39DeprecatedFastPropertyNameSerialization10ColorRGBAfEENS_19__map_value_compareIS2_S4_NS_4lessIS2_EELb1EEENS_9allocatorIS4_EEE7destroyEPNS_11__tree_nodeIS4_PvEE
6211:__ZN15SerializeTraitsINSt3__24pairI39DeprecatedFastPropertyNameSerialization10ColorRGBAfEEE8TransferI14SafeBinaryReadEEvRS4_RT_
6212:__ZN39DeprecatedFastPropertyNameSerialization8TransferI14SafeBinaryReadEEvRT_
6213:__ZNSt3__26__treeINS_12__value_typeI39DeprecatedFastPropertyNameSerializationfEENS_19__map_value_compareIS2_S3_NS_4lessIS2_EELb1EEENS_9allocatorIS3_EEE7destroyEPNS_11__tree_nodeIS3_PvEE
6214:__ZNSt3__26__treeINS_12__value_typeI39DeprecatedFastPropertyNameSerializationN18UnityPropertySheet11UnityTexEnvEEENS_19__map_value_compareIS2_S5_NS_4lessIS2_EELb1EEENS_9allocatorIS5_EEE7destroyEPNS_11__tree_nodeIS5_PvEE
6215:__ZN15SerializeTraitsINSt3__24pairI39DeprecatedFastPropertyNameSerializationN18UnityPropertySheet11UnityTexEnvEEEE8TransferI14SafeBinaryReadEEvRS5_RT_
6216:__Z14resize_trimmedINSt3__26vectorIN4core12basic_stringIcNS2_20StringStorageDefaultIcEEEE13stl_allocatorIS6_L18MemLabelIdentifier1ELi16EEEEEvRT_j
6217:__ZNSt3__26vectorIN4core12basic_stringIcNS1_20StringStorageDefaultIcEEEE13stl_allocatorIS5_L18MemLabelIdentifier1ELi16EEE7reserveEm
6218:__ZNSt3__26vectorIN4core12basic_stringIcNS1_20StringStorageDefaultIcEEEE13stl_allocatorIS5_L18MemLabelIdentifier1ELi16EEE6assignINS_11__wrap_iterIPS5_EEEENS_9enable_ifIXaasr21__is_forward_iteratorIT_EE5valuesr16is_constructibleIS5_NS_15iterator_traitsISF_E9referenceEEE5valueEvE4typeESF_SF_
6219:__ZNSt3__26vectorIN4core12basic_stringIcNS1_20StringStorageDefaultIcEEEE13stl_allocatorIS5_L18MemLabelIdentifier1ELi16EEE8__appendEm
6220:__ZN15SerializeTraitsINSt3__24pairIN4core12basic_stringIcNS2_20StringStorageDefaultIcEEEES6_EEE8TransferI14SafeBinaryReadEEvRS7_RT_
6221:__ZNSt3__26__treeINS_12__value_typeIN4core12basic_stringIcNS2_20StringStorageDefaultIcEEEES6_EENS_19__map_value_compareIS6_S7_NS_4lessIS6_EELb1EEE13stl_allocatorIS7_L18MemLabelIdentifier1ELi16EEE25__emplace_unique_key_argsIS6_JRNS_4pairIS6_S6_EEEEENSH_INS_15__tree_iteratorIS7_PNS_11__tree_nodeIS7_PvEElEEbEERKT_DpOT0_
6222:__ZN8Material8TransferI24GenerateTypeTreeTransferEEvRT_
6223:__ZN15SerializeTraitsINSt3__24pairIN4core12basic_stringIcNS2_20StringStorageDefaultIcEEEES6_EEE8TransferI24GenerateTypeTreeTransferEEvRS7_RT_
6224:__ZN18UnityPropertySheet8TransferI24GenerateTypeTreeTransferEEvRT_
6225:__ZN15SerializeTraitsINSt3__24pairIN9ShaderLab16FastPropertyNameEN18UnityPropertySheet11UnityTexEnvEEEE8TransferI24GenerateTypeTreeTransferEEvRS6_RT_
6226:__ZN15SerializeTraitsINSt3__24pairIN9ShaderLab16FastPropertyNameEfEEE8TransferI24GenerateTypeTreeTransferEEvRS4_RT_
6227:__ZN15SerializeTraitsINSt3__24pairIN9ShaderLab16FastPropertyNameE10ColorRGBAfEEE8TransferI24GenerateTypeTreeTransferEEvRS5_RT_
6228:__ZN15SerializeTraitsIN18UnityPropertySheet11UnityTexEnvEE8TransferI24GenerateTypeTreeTransferEEvRS1_RT_
6229:__ZN18UnityPropertySheet8TransferI17RemapPPtrTransferEEvRT_
6230:__ZN8Material8TransferI18StreamedBinaryReadEEvRT_
6231:__ZN18StreamedBinaryRead19TransferSTLStyleMapINSt3__23mapIN4core12basic_stringIcNS3_20StringStorageDefaultIcEEEES7_NS1_4lessIS7_EE13stl_allocatorINS1_4pairIKS7_S7_EEL18MemLabelIdentifier1ELi16EEEEEEvRT_17TransferMetaFlags
6232:__ZN18UnityPropertySheet8TransferI18StreamedBinaryReadEEvRT_
6233:__ZN18StreamedBinaryRead19TransferSTLStyleMapINSt3__23mapIN9ShaderLab16FastPropertyNameEN18UnityPropertySheet11UnityTexEnvENS1_4lessIS4_EENS1_9allocatorINS1_4pairIKS4_S6_EEEEEEEEvRT_17TransferMetaFlags
6234:__ZN18StreamedBinaryRead19TransferSTLStyleMapINSt3__23mapIN9ShaderLab16FastPropertyNameEfNS1_4lessIS4_EENS1_9allocatorINS1_4pairIKS4_fEEEEEEEEvRT_17TransferMetaFlags
6235:__ZN18StreamedBinaryRead19TransferSTLStyleMapINSt3__23mapIN9ShaderLab16FastPropertyNameE10ColorRGBAfNS1_4lessIS4_EENS1_9allocatorINS1_4pairIKS4_S5_EEEEEEEEvRT_17TransferMetaFlags
6236:__ZN18UnityPropertySheet11UnityTexEnv8TransferI18StreamedBinaryReadEEvRT_
6237:__ZN8Material8TransferI19StreamedBinaryWriteEEvRT_
6238:__ZN9shadertag16GetShaderTagNameE11ShaderTagID
6239:__ZNSt3__26__treeINS_12__value_typeIN4core12basic_stringIcNS2_20StringStorageDefaultIcEEEES6_EENS_19__map_value_compareIS6_S7_NS_4lessIS6_EELb1EEE13stl_allocatorIS7_L18MemLabelIdentifier1ELi16EEE25__emplace_unique_key_argsIS6_JRKNS_21piecewise_construct_tENS_5tupleIJOS6_EEENSK_IJEEEEEENS_4pairINS_15__tree_iteratorIS7_PNS_11__tree_nodeIS7_PvEElEEbEERKT_DpOT0_
6240:__ZN18UnityPropertySheet8TransferI19StreamedBinaryWriteEEvRT_
6241:__Z36UnityPropertySheet_MakeSortedTexEnvsRKNSt3__23mapIN9ShaderLab16FastPropertyNameEN18UnityPropertySheet11UnityTexEnvENS_4lessIS2_EENS_9allocatorINS_4pairIKS2_S4_EEEEEER10vector_mapIS2_S4_S6_NS7_INS8_IS2_S4_EEEEE
6242:__ZN15SerializeTraitsIN9ShaderLab16FastPropertyNameEE8TransferI19StreamedBinaryWriteEEvRS1_RT_
6243:__ZN18UnityPropertySheet11UnityTexEnv8TransferI19StreamedBinaryWriteEEvRT_
6244:__Z35UnityPropertySheet_MakeSortedFloatsRKNSt3__23mapIN9ShaderLab16FastPropertyNameEfNS_4lessIS2_EENS_9allocatorINS_4pairIKS2_fEEEEEER10vector_mapIS2_fS4_NS5_INS6_IS2_fEEEEE
6245:__Z35UnityPropertySheet_MakeSortedColorsRKNSt3__23mapIN9ShaderLab16FastPropertyNameE10ColorRGBAfNS_4lessIS2_EENS_9allocatorINS_4pairIKS2_S3_EEEEEER10vector_mapIS2_S3_S5_NS6_INS7_IS2_S3_EEEEE
6246:__ZL15SortColorByNameRKNSt3__24pairIN9ShaderLab16FastPropertyNameE10ColorRGBAfEES6_
6247:__ZNSt3__26__sortIRPFbRKNS_4pairIN9ShaderLab16FastPropertyNameE10ColorRGBAfEES7_EPS5_EEvT0_SC_T_
6248:__ZNSt3__26vectorINS_4pairIN9ShaderLab16FastPropertyNameE10ColorRGBAfEENS_9allocatorIS5_EEE21__push_back_slow_pathIS5_EEvOT_
6249:__ZNSt3__27__sort3IRPFbRKNS_4pairIN9ShaderLab16FastPropertyNameE10ColorRGBAfEES7_EPS5_EEjT0_SC_SC_T_
6250:__ZNSt3__27__sort4IRPFbRKNS_4pairIN9ShaderLab16FastPropertyNameE10ColorRGBAfEES7_EPS5_EEjT0_SC_SC_SC_T_
6251:__ZNSt3__27__sort5IRPFbRKNS_4pairIN9ShaderLab16FastPropertyNameE10ColorRGBAfEES7_EPS5_EEjT0_SC_SC_SC_SC_T_
6252:__ZNSt3__227__insertion_sort_incompleteIRPFbRKNS_4pairIN9ShaderLab16FastPropertyNameE10ColorRGBAfEES7_EPS5_EEbT0_SC_T_
6253:__ZNSt3__26__sortIRPFbRKNS_4pairIN9ShaderLab16FastPropertyNameEfEES6_EPS4_EEvT0_SB_T_
6254:__ZNSt3__27__sort3IRPFbRKNS_4pairIN9ShaderLab16FastPropertyNameEfEES6_EPS4_EEjT0_SB_SB_T_
6255:__ZNSt3__27__sort5IRPFbRKNS_4pairIN9ShaderLab16FastPropertyNameEfEES6_EPS4_EEjT0_SB_SB_SB_SB_T_
6256:__ZNSt3__227__insertion_sort_incompleteIRPFbRKNS_4pairIN9ShaderLab16FastPropertyNameEfEES6_EPS4_EEbT0_SB_T_
6257:__ZNSt3__26__sortIRPFbRKNS_4pairIN9ShaderLab16FastPropertyNameEN18UnityPropertySheet11UnityTexEnvEEES8_EPS6_EEvT0_SD_T_
6258:__ZNSt3__26vectorINS_4pairIN9ShaderLab16FastPropertyNameEN18UnityPropertySheet11UnityTexEnvEEENS_9allocatorIS6_EEE21__push_back_slow_pathIS6_EEvOT_
6259:__ZNSt3__27__sort3IRPFbRKNS_4pairIN9ShaderLab16FastPropertyNameEN18UnityPropertySheet11UnityTexEnvEEES8_EPS6_EEjT0_SD_SD_T_
6260:__ZNSt3__27__sort4IRPFbRKNS_4pairIN9ShaderLab16FastPropertyNameEN18UnityPropertySheet11UnityTexEnvEEES8_EPS6_EEjT0_SD_SD_SD_T_
6261:__ZNSt3__27__sort5IRPFbRKNS_4pairIN9ShaderLab16FastPropertyNameEN18UnityPropertySheet11UnityTexEnvEEES8_EPS6_EEjT0_SD_SD_SD_SD_T_
6262:__ZNSt3__227__insertion_sort_incompleteIRPFbRKNS_4pairIN9ShaderLab16FastPropertyNameEN18UnityPropertySheet11UnityTexEnvEEES8_EPS6_EEbT0_SD_T_
6263:__ZN8Material15ResetWithShaderEP6Shader
6264:__ZN19ShaderPropertySheet5ClearEb
6265:__ZN8Material14SetOverrideTagE11ShaderTagIDS0_
6266:__ZNSt3__26__treeINS_12__value_typeIN4core12basic_stringIcNS2_20StringStorageDefaultIcEEEE4PPtrI6ShaderEEENS_19__map_value_compareIS6_SA_NS_4lessIS6_EELb1EEENS_9allocatorISA_EEE19__equal_range_multiIS6_EENS_4pairINS_15__tree_iteratorISA_PNS_11__tree_nodeISA_PvEElEESP_EERKT_
6267:__Z29PluginsIssueRenderingExtQuery26UnityRenderingExtQueryType32GfxDeviceRenderingExtQueryMethod
6268:__ZNK9Transform14TransformPointERK8Vector3f
6269:__ZNK9Transform18GetWorldScaleLossyEv
6270:__ZN15LODGroupManager24UpdateLODGroupParametersEjR8LODGroupRK8Vector3ff
6271:__Z25CalculateGlobalScaleLossy23TransformAccessReadOnly
6272:__Z14TransformPoint23TransformAccessReadOnlyRKN4math7_float3E
6273:__ZN12MeshRenderer17MainThreadCleanupEv
6274:__ZN12MeshRenderer13AwakeFromLoadE17AwakeFromLoadMode
6275:__ZNK12MeshRenderer22GetTypeVirtualInternalEv
6276:__ZN12MeshRenderer23VirtualRedirectTransferER19StreamedBinaryWrite
6277:__ZN12MeshRenderer23VirtualRedirectTransferER18StreamedBinaryRead
6278:__ZN12MeshRenderer23VirtualRedirectTransferER17RemapPPtrTransfer
6279:__ZN12MeshRenderer23VirtualRedirectTransferER24GenerateTypeTreeTransfer
6280:__ZN12MeshRenderer23VirtualRedirectTransferER14SafeBinaryRead
6281:__ZN12MeshRenderer10DeactivateE19DeactivateOperation
6282:__ZN12MeshRenderer20RendererAddedToSceneEv
6283:__ZN12MeshRenderer24RendererRemovedFromSceneEv
6284:__ZN12MeshRenderer15AddAsRenderNodeER15RenderNodeQueueRK20DeprecatedSourceData
6285:__ZNK12MeshRenderer19GetStaticBatchIndexEv
6286:__ZThn32_N12MeshRenderer15AddAsRenderNodeER15RenderNodeQueueRK20DeprecatedSourceData
6287:__ZThn32_NK12MeshRenderer19GetStaticBatchIndexEv
6288:__ZN14SafeBinaryRead8TransferI12MeshRendererEEvRT_PKc17TransferMetaFlags
6289:__ZN12MeshRenderer16UpdateCachedMeshEv
6290:__ZN12MeshRenderer18CalculateLocalAABBER4AABBRKS_RK4Mesh
6291:__ZN4MeshD2Ev
6292:__ZN4MeshD0Ev
6293:__ZN4Mesh17MainThreadCleanupEv
6294:__ZN4Mesh13AwakeFromLoadE17AwakeFromLoadMode
6295:__ZN4Mesh21AwakeFromLoadThreadedEv
6296:__ZNK4Mesh22GetTypeVirtualInternalEv
6297:__ZNK4Mesh20GetRuntimeMemorySizeEv
6298:__ZN4Mesh23VirtualRedirectTransferER19StreamedBinaryWrite
6299:__ZN4Mesh23VirtualRedirectTransferER18StreamedBinaryRead
6300:__ZN4Mesh23VirtualRedirectTransferER17RemapPPtrTransfer
6301:__ZN4Mesh23VirtualRedirectTransferER24GenerateTypeTreeTransfer
6302:__ZN4Mesh23VirtualRedirectTransferER14SafeBinaryRead
6303:__ZN4Mesh8TransferI14SafeBinaryReadEEvRT_
6304:__ZN14BlendShapeData8TransferI14SafeBinaryReadEEvRT_
6305:__ZN14SafeBinaryRead21TransferSTLStyleArrayI13dynamic_arrayI10MinMaxAABBLm0EEEEvRT_17TransferMetaFlags
6306:__ZN14SharedMeshData14SetBlendShapesERK14BlendShapeData
6307:__ZN14SafeBinaryRead21TransferSTLStyleArrayI13dynamic_arrayI11ColorRGBA32Lm0EEEEvRT_17TransferMetaFlags
6308:__ZN4Mesh27CreateDefaultFormatChannelsE17ShaderChannelMask
6309:__ZN14CompressedMesh8TransferI14SafeBinaryReadEEvRT_
6310:__ZN14CompressedMesh10DecompressER4Mesh
6311:__ZN17CollisionMeshData8TransferI14SafeBinaryReadEEvRT_R4Mesh
6312:__ZN17PackedFloatVector12UnpackFloatsEPfiiii
6313:__ZN13dynamic_arrayI10ColorRGBAfLm0EEC2Em10MemLabelId
6314:__ZN4Mesh23SetBoneWeights4InternalEPK12BoneWeights4i
6315:__ZN14CompressedMeshC2Ev
6316:__ZN13VertexUtility13SwapEndianessERK14VertexDataInfoPh
6317:__ZN14BlendShapeDataC2ERKS_10MemLabelId
6318:__ZN10MinMaxAABB8TransferI14SafeBinaryReadEEvRT_
6319:__ZN14SafeBinaryRead21TransferSTLStyleArrayI13dynamic_arrayI16BlendShapeVertexLm0EEEEvRT_17TransferMetaFlags
6320:__ZN14SafeBinaryRead21TransferSTLStyleArrayI13dynamic_arrayI10BlendShapeLm0EEEEvRT_17TransferMetaFlags
6321:__ZN14SafeBinaryRead21TransferSTLStyleArrayI13dynamic_arrayI17BlendShapeChannelLm0EEEEvRT_17TransferMetaFlags
6322:__ZN14SafeBinaryRead21TransferSTLStyleArrayI13dynamic_arrayIfLm0EEEEvRT_17TransferMetaFlags
6323:__ZN15SerializeTraitsI17BlendShapeChannelE8TransferI14SafeBinaryReadEEvRS0_RT_
6324:__ZN15SerializeTraitsI10BlendShapeE8TransferI14SafeBinaryReadEEvRS0_RT_
6325:__ZN16BlendShapeVertex8TransferI14SafeBinaryReadEEvRT_
6326:__ZN4Mesh8TransferI24GenerateTypeTreeTransferEEvRT_
6327:__ZN14BlendShapeData8TransferI24GenerateTypeTreeTransferEEvRT_
6328:__ZN14CompressedMesh8TransferI24GenerateTypeTreeTransferEEvRT_
6329:__ZN17CollisionMeshData8TransferI24GenerateTypeTreeTransferEEvRT_R4Mesh
6330:__ZN10BlendShape8TransferI24GenerateTypeTreeTransferEEvRT_
6331:__ZN17BlendShapeChannel8TransferI24GenerateTypeTreeTransferEEvRT_
6332:__ZN4Mesh8TransferI17RemapPPtrTransferEEvRT_
6333:__ZN4Mesh8TransferI18StreamedBinaryReadEEvRT_
6334:__ZN18StreamedBinaryRead21TransferSTLStyleArrayI13dynamic_arrayI16BlendShapeVertexLm0EEEEvRT_17TransferMetaFlags
6335:__ZN18StreamedBinaryRead21TransferSTLStyleArrayI13dynamic_arrayI10BlendShapeLm0EEEEvRT_17TransferMetaFlags
6336:__ZN18StreamedBinaryRead21TransferSTLStyleArrayI13dynamic_arrayI17BlendShapeChannelLm0EEEEvRT_17TransferMetaFlags
6337:__ZN18StreamedBinaryRead21TransferSTLStyleArrayI13dynamic_arrayI10MinMaxAABBLm0EEEEvRT_17TransferMetaFlags
6338:__ZN14CompressedMesh8TransferI18StreamedBinaryReadEEvRT_
6339:__ZN17CollisionMeshData8TransferI18StreamedBinaryReadEEvRT_R4Mesh
6340:__ZN17BlendShapeChannel8TransferI18StreamedBinaryReadEEvRT_
6341:__ZN10BlendShape8TransferI18StreamedBinaryReadEEvRT_
6342:__ZN16BlendShapeVertex8TransferI18StreamedBinaryReadEEvRT_
6343:__ZN4Mesh8TransferI19StreamedBinaryWriteEEvRT_
6344:__ZN4Mesh23UpdateCachedBonesBoundsEv
6345:__ZN14BlendShapeData8TransferI19StreamedBinaryWriteEEvRT_
6346:__ZN14CompressedMesh8CompressERK4MeshRK21CompressedMeshQuality
6347:__ZN14CompressedMesh8TransferI19StreamedBinaryWriteEEvRT_
6348:__ZN17CollisionMeshData8TransferI19StreamedBinaryWriteEEvRT_R4Mesh
6349:__ZN17PackedFloatVector10PackFloatsEPKfiiiib
6350:__ZN15PackedIntVector8PackIntsItEEvPT_i
6351:__ZN15PackedIntVector8PackIntsIjEEvPT_i
6352:__ZNK4Mesh14ExtractUvArrayEiPfi
6353:__ZNK4Mesh17ExtractColorArrayEP10ColorRGBAf
6354:__ZN14SharedMeshData14GetBoneWeightsE14BonesPerVertex
6355:__ZN14SharedMeshData14GetBoneWeightsE14BonesPerVertexRj
6356:__ZNK24VariableBoneCountWeights21ConvertToBoneIndices1EPij
6357:__ZNK24VariableBoneCountWeights21ConvertToBoneWeights2EP12BoneWeights2j
6358:__ZNK24VariableBoneCountWeights21ConvertToBoneWeights4EP12BoneWeights4j
6359:__ZN14VertexDataInfo18SetAsSingleChannelEm13ShaderChannelRK24VertexFormatAndDimension
6360:__ZN13VertexUtility12CopyChannelsEm17ShaderChannelMaskRK14VertexDataInfoPKhRS1_Ph
6361:__ZN16BlendShapeVertex8TransferI19StreamedBinaryWriteEEvRT_
6362:__ZN10BlendShape8TransferI19StreamedBinaryWriteEEvRT_
6363:__ZN17BlendShapeChannel8TransferI19StreamedBinaryWriteEEvRT_
6364:__ZN4Mesh15GetMaxBoneIndexEv
6365:__ZNK4Mesh18GetBoneVertexListsER13dynamic_arrayIS0_IjLm0EELm0EE
6366:__ZN4Mesh27CalculateBoneBindPoseBoundsERK13dynamic_arrayIS0_IjLm0EELm0EE
6367:__ZNK24VariableBoneCountWeights18GetBoneVertexListsER13dynamic_arrayIS0_IjLm0EELm0EEj
6368:__ZNK24VariableBoneCountWeights21CalculateMaxBoneIndexEj
6369:__ZNK15GeometryBuffers20GetRuntimeMemorySizeEv
6370:__ZN17CollisionMeshData21AwakeFromLoadThreadedER4Mesh
6371:__ZN4Mesh23InitializeUploadCommandEPN15MeshAsyncUpload17UploadInstructionE
6372:__ZN14VertexDataInfo4CopyERKS_RS_
6373:__ZN13VertexUtility24CalcChannelLayoutForCapsERK12GraphicsCapsRK14VertexDataInfoR22VertexAttributeFormatsR17ShaderChannelMask
6374:__ZN4Mesh14UploadMeshDataEb
6375:__ZN4Mesh21CompleteUploadCommandEv
6376:__ZN4Mesh18UpdateVertexFormatEv
6377:__ZN17CollisionMeshData7CleanupEv
6378:__ZN14SpriteRendererD2Ev
6379:__ZN14SpriteRendererD0Ev
6380:__ZN14SpriteRenderer17MainThreadCleanupEv
6381:__ZN14SpriteRenderer13AwakeFromLoadE17AwakeFromLoadMode
6382:__ZN14SpriteRenderer16CheckConsistencyEv
6383:__ZN14SpriteRenderer5ResetEv
6384:__ZN14SpriteRenderer10SmartResetEv
6385:__ZNK14SpriteRenderer22GetTypeVirtualInternalEv
6386:__ZN14SpriteRenderer23VirtualRedirectTransferER19StreamedBinaryWrite
6387:__ZN14SpriteRenderer23VirtualRedirectTransferER18StreamedBinaryRead
6388:__ZN14SpriteRenderer23VirtualRedirectTransferER17RemapPPtrTransfer
6389:__ZN14SpriteRenderer23VirtualRedirectTransferER24GenerateTypeTreeTransfer
6390:__ZN14SpriteRenderer23VirtualRedirectTransferER14SafeBinaryRead
6391:__ZN14SpriteRenderer15AddAsRenderNodeER15RenderNodeQueueRK20DeprecatedSourceData
6392:__ZN14SpriteRenderer14OnDeleteSpriteEv
6393:__ZN14SpriteRenderer14OnChangeSpriteEv
6394:__ZN14SpriteRenderer18UpdateCachedSpriteEb
6395:__ZThn32_N14SpriteRendererD1Ev
6396:__ZThn32_N14SpriteRendererD0Ev
6397:__ZThn32_N14SpriteRenderer15AddAsRenderNodeER15RenderNodeQueueRK20DeprecatedSourceData
6398:__ZThn364_N14SpriteRenderer14OnDeleteSpriteEv
6399:__ZThn364_N14SpriteRenderer14OnChangeSpriteEv
6400:__ZThn364_N14SpriteRendererD1Ev
6401:__ZThn364_N14SpriteRendererD0Ev
6402:__ZThn364_N14SpriteRenderer18UpdateCachedSpriteEb
6403:__ZNK14SpriteRenderer15GetSpriteBoundsE14SpriteDrawMode
6404:__ZN10SpriteUser17AddSpriteUserNodeEv
6405:__ZNK6Sprite9GetBoundsEbbb
6406:__ZN14SpriteRenderer15SetupPropertiesEb
6407:__ZN14SpriteRenderer26InvalidateSpriteTilingDataEv
6408:__ZN14SpriteRenderer15UpdateCollidersEv
6409:__ZN14SpriteRenderer19Add9SliceRenderDataEP16SpriteRenderData
6410:__ZN16SpriteRenderDataC2Ev
6411:__ZN14SharedMeshDataC2E10MemLabelId
6412:__ZN8Renderer39GetCustomPropertiesRememberToUpdateHashEv
6413:__ZN19ShaderPropertySheet11ComputeHashEv
6414:__ZN16SpriteRenderData28PrepareRenderingDataIfNeededEv
6415:__ZN6Sprite28PrepareRenderingDataIfNeededEb
6416:__ZN14SpriteRenderer13GetRenderDataEv
6417:__Z33CleanupDrawSpriteRawFromNodeQueueR15RenderNodeQueuej
6418:__Z30DrawSpriteBatchedFromNodeQueueRK15RenderNodeQueueRK18RenderMultipleData16VertexInputMasks
6419:__ZL19SpriteMeshExtractorPv16VertexInputMasksiRP17VertexDeclarationR11MeshBuffersR16DrawBuffersRangeRi
6420:__Z24RenderDynamicBatchSpriteRK15RenderNodeQueuePK17BatchInstanceDatammm16VertexInputMasks17ShaderChannelMaskRK22VertexAttributeFormats
6421:__Z36ProcessDynamicSpriteBatchGeometryJobP21SharedGeometryJobDataj
6422:__Z36AddDefaultStreamsToMeshBuffersSpriteR9GfxDeviceR11MeshBuffersj17ShaderChannelMaskS3_b
6423:__ZNK16MeshVertexFormat26GetVertexDeclarationSpriteER9GfxDevice16VertexInputMasksjb
6424:__Z30AddDefaultStreamsToChannelInfoRK18VertexChannelsInfo17ShaderChannelMaskS2_jbRS_
6425:__ZN16SpriteRenderData20CalculateUVsIfNeededEbRK8Vector2fRK5RectTIfE
6426:__Z14RecalculateUVs14StrideIteratorI8Vector2fES1_S_I8Vector3fER9Texture2DRKS0_RK5RectTIfERK8Vector4fSB_S7_21SpritePackingRotationf
6427:__Z23PrepareSpriteRenderDataPK14SharedMeshDataP15GeometryBuffersRP16MeshVertexFormat
6428:__ZN14SpriteRenderer8TransferI14SafeBinaryReadEEvRT_
6429:__ZN14SpriteRenderer8TransferI24GenerateTypeTreeTransferEEvRT_
6430:__ZN14SpriteRenderer8TransferI18StreamedBinaryReadEEvRT_
6431:__ZN14SpriteRenderer8TransferI19StreamedBinaryWriteEEvRT_
6432:__ZN16GraphicsSettings18GetBuiltinMaterialENS_19BuiltinMaterialTypeE
6433:__ZN14SpriteRenderer27AdjustSizeForDrawModeChangeEv
6434:__ZNK9Transform13GetLocalScaleEv
6435:__ZN9Transform13SetLocalScaleERK8Vector3f
6436:__ZN24ScriptableRenderPipeline18GetDefaultMaterialENS_22DefaultSRPMaterialTypeE
6437:__ZN24ScriptableRenderPipeline22FindUnityObjectFromSRPI8MaterialEEPT_PKc
6438:__ZN22SerializableManagedRef10FindMethodEP6ObjectPKc
6439:__ZN9Scripting26GetMethodWithSearchOptionsE17ScriptingClassPtrPKcN24ScriptingMethodFiltering18MethodSearchFilterE
6440:__ZN10SpriteUserD2Ev
6441:__ZN10MeshFilterD0Ev
6442:__ZN10MeshFilter13AwakeFromLoadE17AwakeFromLoadMode
6443:__ZNK10MeshFilter22GetTypeVirtualInternalEv
6444:__ZN10MeshFilter23VirtualRedirectTransferER19StreamedBinaryWrite
6445:__ZN10MeshFilter23VirtualRedirectTransferER18StreamedBinaryRead
6446:__ZN10MeshFilter23VirtualRedirectTransferER17RemapPPtrTransfer
6447:__ZN10MeshFilter23VirtualRedirectTransferER24GenerateTypeTreeTransfer
6448:__ZN10MeshFilter23VirtualRedirectTransferER14SafeBinaryRead
6449:__ZN10MeshFilter20WillDestroyComponentEv
6450:__ZN12MeshRenderer13SetSharedMeshE4PPtrI4MeshE
6451:__ZN14SafeBinaryRead8TransferI10MeshFilterEEvRT_PKc17TransferMetaFlags
6452:__ZN8Renderer12GetTransformEv
6453:__Z21CalculateGlobalMatrix23TransformAccessReadOnly
6454:__ZN5crc3213process_blockEPKvS1_
6455:__ZN14PlayerSettingsD2Ev
6456:__ZN14PlayerSettingsD0Ev
6457:__ZN14PlayerSettings13AwakeFromLoadE17AwakeFromLoadMode
6458:__ZN14PlayerSettings16CheckConsistencyEv
6459:__ZN14PlayerSettings5ResetEv
6460:__ZNK14PlayerSettings22GetTypeVirtualInternalEv
6461:__ZN14PlayerSettings23VirtualRedirectTransferER19StreamedBinaryWrite
6462:__ZN14PlayerSettings23VirtualRedirectTransferER18StreamedBinaryRead
6463:__ZN14PlayerSettings23VirtualRedirectTransferER17RemapPPtrTransfer
6464:__ZN14PlayerSettings23VirtualRedirectTransferER24GenerateTypeTreeTransfer
6465:__ZN14PlayerSettings23VirtualRedirectTransferER14SafeBinaryRead
6466:__ZN14PlayerSettings8TransferI14SafeBinaryReadEEvRT_
6467:__ZN26PlayerSettingsSplashScreen8TransferI14SafeBinaryReadEEvRT_
6468:__ZN15SerializeTraitsI12AspectRatiosE8TransferI14SafeBinaryReadEEvRS0_RT_
6469:__ZN10VRSettings8TransferI14SafeBinaryReadEEvRT_
6470:__ZN10VRSettings9Cardboard8TransferI14SafeBinaryReadEEvRT_
6471:__ZN10VRSettings8Daydream8TransferI14SafeBinaryReadEEvRT_
6472:__ZN10VRSettings8HoloLens8TransferI14SafeBinaryReadEEvRT_
6473:__ZN10VRSettings5Lumin8TransferI14SafeBinaryReadEEvRT_
6474:__ZN10VRSettings6Oculus8TransferI14SafeBinaryReadEEvRT_
6475:__ZN14SafeBinaryRead21TransferSTLStyleArrayI13dynamic_arrayI16SplashScreenLogoLm0EEEEvRT_17TransferMetaFlags
6476:__ZN15SerializeTraitsI16SplashScreenLogoE8TransferI14SafeBinaryReadEEvRS0_RT_
6477:__ZN14PlayerSettings8TransferI24GenerateTypeTreeTransferEEvRT_
6478:__ZN26PlayerSettingsSplashScreen8TransferI24GenerateTypeTreeTransferEEvRT_
6479:__ZN12AspectRatios8TransferI24GenerateTypeTreeTransferEEvRT_
6480:__ZN10VRSettings8TransferI24GenerateTypeTreeTransferEEvRT_
6481:__ZN10VRSettings8Daydream8TransferI24GenerateTypeTreeTransferEEvRT_
6482:__ZN10VRSettings5Lumin8TransferI24GenerateTypeTreeTransferEEvRT_
6483:__ZN10VRSettings6Oculus8TransferI24GenerateTypeTreeTransferEEvRT_
6484:__ZN14PlayerSettings8TransferI17RemapPPtrTransferEEvRT_
6485:__ZN26PlayerSettingsSplashScreen8TransferI17RemapPPtrTransferEEvRT_
6486:__ZN14PlayerSettings8TransferI18StreamedBinaryReadEEvRT_
6487:__ZN26PlayerSettingsSplashScreen8TransferI18StreamedBinaryReadEEvRT_
6488:__ZN12AspectRatios8TransferI18StreamedBinaryReadEEvRT_
6489:__ZN10VRSettings8TransferI18StreamedBinaryReadEEvRT_
6490:__ZN10VRSettings8Daydream8TransferI18StreamedBinaryReadEEvRT_
6491:__ZN10VRSettings5Lumin8TransferI18StreamedBinaryReadEEvRT_
6492:__ZN10VRSettings6Oculus8TransferI18StreamedBinaryReadEEvRT_
6493:__ZN18StreamedBinaryRead21TransferSTLStyleArrayI13dynamic_arrayI16SplashScreenLogoLm0EEEEvRT_17TransferMetaFlags
6494:__ZN14PlayerSettings8TransferI19StreamedBinaryWriteEEvRT_
6495:__ZN26PlayerSettingsSplashScreen8TransferI19StreamedBinaryWriteEEvRT_
6496:__ZN12AspectRatios8TransferI19StreamedBinaryWriteEEvRT_
6497:__ZN10VRSettings8TransferI19StreamedBinaryWriteEEvRT_
6498:__ZN10VRSettings8Daydream8TransferI19StreamedBinaryWriteEEvRT_
6499:__ZN10VRSettings5Lumin8TransferI19StreamedBinaryWriteEEvRT_
6500:__ZN10VRSettings6Oculus8TransferI19StreamedBinaryWriteEEvRT_
6501:__ZN26PlayerSettingsSplashScreen5ResetEv
6502:__ZN26PlayerSettingsSplashScreen16CheckConsistencyEv
6503:__ZN7Cursors17InitializeCursorsEP9Texture2D8Vector2f
6504:__ZN7Cursors9SetCursorEP9Texture2D8Vector2f10CursorMode
6505:__Z13ConvertPixelsPKh14GraphicsFormatPhS1_m
6506:__ZN14AsyncOperationD2Ev
6507:__ZN14AsyncOperation15InvokeCoroutineEv
6508:__ZN13BuildSettingsD2Ev
6509:__ZN13BuildSettingsD0Ev
6510:__ZN13BuildSettings13AwakeFromLoadE17AwakeFromLoadMode
6511:__ZNK13BuildSettings22GetTypeVirtualInternalEv
6512:__ZN13BuildSettings23VirtualRedirectTransferER19StreamedBinaryWrite
6513:__ZN13BuildSettings23VirtualRedirectTransferER18StreamedBinaryRead
6514:__ZN13BuildSettings23VirtualRedirectTransferER24GenerateTypeTreeTransfer
6515:__ZN13BuildSettings23VirtualRedirectTransferER14SafeBinaryRead
6516:__ZN13BuildSettings8TransferI14SafeBinaryReadEEvRT_
6517:__ZN14SafeBinaryRead21TransferSTLStyleArrayI10vector_mapIPKN5Unity4TypeE7Hash128NSt3__24lessIS5_EENS7_9allocatorINS7_4pairIS5_S6_EEEEEEEvRT_17TransferMetaFlags
6518:__ZNSt3__26__sortIRNS_6__lessINS_4pairIPKN5Unity4TypeE7Hash128EES8_EEPS8_EEvT0_SC_T_
6519:__ZN14SafeBinaryRead21TransferSTLStyleArrayI10vector_mapI7Hash128S2_NSt3__24lessIS2_EENS3_9allocatorINS3_4pairIS2_S2_EEEEEEEvRT_17TransferMetaFlags
6520:__ZNSt3__26vectorINS_4pairI7Hash128S2_EENS_9allocatorIS3_EEE8__appendEm
6521:__ZN15SerializeTraitsINSt3__24pairI7Hash128S2_EEE8TransferI14SafeBinaryReadEEvRS3_RT_
6522:__ZNSt3__27__sort3IRNS_6__lessINS_4pairIPKN5Unity4TypeE7Hash128EES8_EEPS8_EEjT0_SC_SC_T_
6523:__ZNSt3__27__sort4IRNS_6__lessINS_4pairIPKN5Unity4TypeE7Hash128EES8_EEPS8_EEjT0_SC_SC_SC_T_
6524:__ZNSt3__27__sort5IRNS_6__lessINS_4pairIPKN5Unity4TypeE7Hash128EES8_EEPS8_EEjT0_SC_SC_SC_SC_T_
6525:__ZNSt3__218__insertion_sort_3IRNS_6__lessINS_4pairIPKN5Unity4TypeE7Hash128EES8_EEPS8_EEvT0_SC_T_
6526:__ZNSt3__227__insertion_sort_incompleteIRNS_6__lessINS_4pairIPKN5Unity4TypeE7Hash128EES8_EEPS8_EEbT0_SC_T_
6527:__ZNSt3__26vectorINS_4pairIPKN5Unity4TypeE7Hash128EENS_9allocatorIS7_EEE8__appendEm
6528:__ZN15SerializeTraitsINSt3__24pairIPKN5Unity4TypeE7Hash128EEE8TransferI14SafeBinaryReadEEvRS7_RT_
6529:__ZN13BuildSettings8TransferI24GenerateTypeTreeTransferEEvRT_
6530:__ZN24GenerateTypeTreeTransfer8TransferINSt3__26vectorIN4core12basic_stringIcNS3_20StringStorageDefaultIcEEEENS1_9allocatorIS7_EEEEEEvRT_PKc17TransferMetaFlags
6531:__ZN13BuildSettings8TransferI18StreamedBinaryReadEEvRT_
6532:__ZN18StreamedBinaryRead21TransferSTLStyleArrayI10vector_mapIPKN5Unity4TypeE7Hash128NSt3__24lessIS5_EENS7_9allocatorINS7_4pairIS5_S6_EEEEEEEvRT_17TransferMetaFlags
6533:__ZN18StreamedBinaryRead21TransferSTLStyleArrayI10vector_mapI7Hash128S2_NSt3__24lessIS2_EENS3_9allocatorINS3_4pairIS2_S2_EEEEEEEvRT_17TransferMetaFlags
6534:__ZN13BuildSettings8TransferI19StreamedBinaryWriteEEvRT_
6535:__ZN30RuntimeInitializeOnLoadManagerD2Ev
6536:__ZN30RuntimeInitializeOnLoadManagerD0Ev
6537:__ZNK30RuntimeInitializeOnLoadManager22GetTypeVirtualInternalEv
6538:__ZN30RuntimeInitializeOnLoadManager23VirtualRedirectTransferER19StreamedBinaryWrite
6539:__ZN30RuntimeInitializeOnLoadManager23VirtualRedirectTransferER18StreamedBinaryRead
6540:__ZN30RuntimeInitializeOnLoadManager23VirtualRedirectTransferER24GenerateTypeTreeTransfer
6541:__ZN30RuntimeInitializeOnLoadManager23VirtualRedirectTransferER14SafeBinaryRead
6542:__ZN30RuntimeInitializeOnLoadManager8TransferI14SafeBinaryReadEEvRT_
6543:__ZN14SafeBinaryRead21TransferSTLStyleArrayINSt3__26vectorIN4core12basic_stringIcNS3_20StringStorageDefaultIcEEEE13stl_allocatorIS7_L18MemLabelIdentifier16ELi16EEEEEEvRT_17TransferMetaFlags
6544:__ZN14SafeBinaryRead21TransferSTLStyleArrayINSt3__26vectorIN30RuntimeInitializeOnLoadManager9ClassInfoE13stl_allocatorIS4_L18MemLabelIdentifier16ELi16EEEEEEvRT_17TransferMetaFlags
6545:__ZN14SafeBinaryRead21TransferSTLStyleArrayINSt3__26vectorIN30RuntimeInitializeOnLoadManager15ClassMethodInfoE13stl_allocatorIS4_L18MemLabelIdentifier16ELi16EEEEEEvRT_17TransferMetaFlags
6546:__ZN14SafeBinaryRead21TransferSTLStyleArrayINSt3__26vectorIi13stl_allocatorIiL18MemLabelIdentifier16ELi16EEEEEEvRT_17TransferMetaFlags
6547:__Z14resize_trimmedINSt3__26vectorIi13stl_allocatorIiL18MemLabelIdentifier16ELi16EEEEEvRT_j
6548:__ZNSt3__26vectorIi13stl_allocatorIiL18MemLabelIdentifier16ELi16EEE6assignINS_11__wrap_iterIPiEEEENS_9enable_ifIXaasr21__is_forward_iteratorIT_EE5valuesr16is_constructibleIiNS_15iterator_traitsISA_E9referenceEEE5valueEvE4typeESA_SA_
6549:__ZNSt3__26vectorIi13stl_allocatorIiL18MemLabelIdentifier16ELi16EEE8__appendEm
6550:__Z14resize_trimmedINSt3__26vectorIN30RuntimeInitializeOnLoadManager15ClassMethodInfoE13stl_allocatorIS3_L18MemLabelIdentifier16ELi16EEEEEvRT_j
6551:__ZN30RuntimeInitializeOnLoadManager15ClassMethodInfo8TransferI14SafeBinaryReadEEvRT_
6552:__ZNSt3__26vectorIN30RuntimeInitializeOnLoadManager15ClassMethodInfoE13stl_allocatorIS2_L18MemLabelIdentifier16ELi16EEE7reserveEm
6553:__ZNSt3__26vectorIN30RuntimeInitializeOnLoadManager15ClassMethodInfoE13stl_allocatorIS2_L18MemLabelIdentifier16ELi16EEE6assignINS_11__wrap_iterIPS2_EEEENS_9enable_ifIXaasr21__is_forward_iteratorIT_EE5valuesr16is_constructibleIS2_NS_15iterator_traitsISC_E9referenceEEE5valueEvE4typeESC_SC_
6554:__ZNSt3__26vectorIN30RuntimeInitializeOnLoadManager15ClassMethodInfoE13stl_allocatorIS2_L18MemLabelIdentifier16ELi16EEE8__appendEm
6555:__Z14resize_trimmedINSt3__26vectorIN30RuntimeInitializeOnLoadManager9ClassInfoE13stl_allocatorIS3_L18MemLabelIdentifier16ELi16EEEEEvRT_j
6556:__ZN30RuntimeInitializeOnLoadManager9ClassInfo8TransferI14SafeBinaryReadEEvRT_
6557:__ZNSt3__26vectorIN30RuntimeInitializeOnLoadManager9ClassInfoE13stl_allocatorIS2_L18MemLabelIdentifier16ELi16EEE7reserveEm
6558:__ZNSt3__26vectorIN30RuntimeInitializeOnLoadManager9ClassInfoE13stl_allocatorIS2_L18MemLabelIdentifier16ELi16EEE6assignINS_11__wrap_iterIPS2_EEEENS_9enable_ifIXaasr21__is_forward_iteratorIT_EE5valuesr16is_constructibleIS2_NS_15iterator_traitsISC_E9referenceEEE5valueEvE4typeESC_SC_
6559:__ZNSt3__26vectorIN30RuntimeInitializeOnLoadManager9ClassInfoE13stl_allocatorIS2_L18MemLabelIdentifier16ELi16EEE8__appendEm
6560:__Z14resize_trimmedINSt3__26vectorIN4core12basic_stringIcNS2_20StringStorageDefaultIcEEEE13stl_allocatorIS6_L18MemLabelIdentifier16ELi16EEEEEvRT_j
6561:__ZNSt3__26vectorIN4core12basic_stringIcNS1_20StringStorageDefaultIcEEEE13stl_allocatorIS5_L18MemLabelIdentifier16ELi16EEE7reserveEm
6562:__ZNSt3__26vectorIN4core12basic_stringIcNS1_20StringStorageDefaultIcEEEE13stl_allocatorIS5_L18MemLabelIdentifier16ELi16EEE6assignINS_11__wrap_iterIPS5_EEEENS_9enable_ifIXaasr21__is_forward_iteratorIT_EE5valuesr16is_constructibleIS5_NS_15iterator_traitsISF_E9referenceEEE5valueEvE4typeESF_SF_
6563:__ZNSt3__26vectorIN4core12basic_stringIcNS1_20StringStorageDefaultIcEEEE13stl_allocatorIS5_L18MemLabelIdentifier16ELi16EEE8__appendEm
6564:__ZN30RuntimeInitializeOnLoadManager8TransferI24GenerateTypeTreeTransferEEvRT_
6565:__ZN30RuntimeInitializeOnLoadManager9ClassInfo8TransferI24GenerateTypeTreeTransferEEvRT_
6566:__ZN30RuntimeInitializeOnLoadManager15ClassMethodInfo8TransferI24GenerateTypeTreeTransferEEvRT_
6567:__ZN30RuntimeInitializeOnLoadManager8TransferI18StreamedBinaryReadEEvRT_
6568:__ZN30RuntimeInitializeOnLoadManager9ClassInfo8TransferI18StreamedBinaryReadEEvRT_
6569:__ZN30RuntimeInitializeOnLoadManager15ClassMethodInfo8TransferI18StreamedBinaryReadEEvRT_
6570:__ZN30RuntimeInitializeOnLoadManager8TransferI19StreamedBinaryWriteEEvRT_
6571:__ZN30RuntimeInitializeOnLoadManager9ClassInfo8TransferI19StreamedBinaryWriteEEvRT_
6572:__ZN30RuntimeInitializeOnLoadManager15ClassMethodInfo8TransferI19StreamedBinaryWriteEEvRT_
6573:__ZN27GenericSlowGarbageCollector18GenerateInstanceIDEi17TransferMetaFlags
6574:__ZN27GenericSlowGarbageCollector16ProcessReferenceEi
6575:__ZN15ResourceManagerD2Ev
6576:__ZN15ResourceManagerD0Ev
6577:__ZNK15ResourceManager22GetTypeVirtualInternalEv
6578:__ZN15ResourceManager23VirtualRedirectTransferER19StreamedBinaryWrite
6579:__ZN15ResourceManager23VirtualRedirectTransferER18StreamedBinaryRead
6580:__ZN15ResourceManager23VirtualRedirectTransferER17RemapPPtrTransfer
6581:__ZN15ResourceManager23VirtualRedirectTransferER24GenerateTypeTreeTransfer
6582:__ZN15ResourceManager23VirtualRedirectTransferER14SafeBinaryRead
6583:__ZN15ResourceManager8TransferI14SafeBinaryReadEEvRT_
6584:__ZN14SafeBinaryRead19TransferSTLStyleMapINSt3__28multimapIN4core12basic_stringIcNS3_20StringStorageDefaultIcEEEE4PPtrI6ObjectENS1_4lessIS7_EE13stl_allocatorINS1_4pairIKS7_SA_EEL18MemLabelIdentifier56ELi16EEEEEEvRT_17TransferMetaFlags
6585:__ZN14SafeBinaryRead21TransferSTLStyleArrayI13dynamic_arrayIN15ResourceManager10DependencyELm0EEEEvRT_17TransferMetaFlags
6586:__ZNSt3__26__sortIRN15ResourceManager10Dependency6SorterEPS2_EEvT0_S6_T_
6587:__ZNSt3__27__sort3IRN15ResourceManager10Dependency6SorterEPS2_EEjT0_S6_S6_T_
6588:__ZNSt3__27__sort4IRN15ResourceManager10Dependency6SorterEPS2_EEjT0_S6_S6_S6_T_
6589:__ZNSt3__27__sort5IRN15ResourceManager10Dependency6SorterEPS2_EEjT0_S6_S6_S6_S6_T_
6590:__ZNSt3__218__insertion_sort_3IRN15ResourceManager10Dependency6SorterEPS2_EEvT0_S6_T_
6591:__ZNSt3__227__insertion_sort_incompleteIRN15ResourceManager10Dependency6SorterEPS2_EEbT0_S6_T_
6592:__ZN15ResourceManager10Dependency8TransferI14SafeBinaryReadEEvRT_
6593:__ZNSt3__26__treeINS_12__value_typeIN4core12basic_stringIcNS2_20StringStorageDefaultIcEEEE4PPtrI6ObjectEEENS_19__map_value_compareIS6_SA_NS_4lessIS6_EELb1EEE13stl_allocatorISA_L18MemLabelIdentifier56ELi16EEE7destroyEPNS_11__tree_nodeISA_PvEE
6594:__ZNSt3__26__treeINS_12__value_typeIN4core12basic_stringIcNS2_20StringStorageDefaultIcEEEE4PPtrI6ObjectEEENS_19__map_value_compareIS6_SA_NS_4lessIS6_EELb1EEE13stl_allocatorISA_L18MemLabelIdentifier56ELi16EEE15__emplace_multiIJRNS_4pairIS6_S9_EEEEENS_15__tree_iteratorISA_PNS_11__tree_nodeISA_PvEElEEDpOT_
6595:__ZN15ResourceManager8TransferI24GenerateTypeTreeTransferEEvRT_
6596:__ZN15SerializeTraitsINSt3__24pairIN4core12basic_stringIcNS2_20StringStorageDefaultIcEEEE4PPtrI6ObjectEEEE8TransferI24GenerateTypeTreeTransferEEvRSA_RT_
6597:__ZN15ResourceManager10Dependency8TransferI24GenerateTypeTreeTransferEEvRT_
6598:__ZN15ResourceManager8TransferI17RemapPPtrTransferEEvRT_
6599:__ZN18StreamedBinaryRead19TransferSTLStyleMapINSt3__28multimapIN4core12basic_stringIcNS3_20StringStorageDefaultIcEEEE4PPtrI6ObjectENS1_4lessIS7_EE13stl_allocatorINS1_4pairIKS7_SA_EEL18MemLabelIdentifier56ELi16EEEEEEvRT_17TransferMetaFlags
6600:__ZN18StreamedBinaryRead21TransferSTLStyleArrayI13dynamic_arrayIN15ResourceManager10DependencyELm0EEEEvRT_17TransferMetaFlags
6601:__ZN15ResourceManager8TransferI19StreamedBinaryWriteEEvRT_
6602:__ZN13dynamic_arrayIN15ResourceManager10DependencyELm0EED2Ev
6603:__ZN13LoadOperationD2Ev
6604:__ZN13LoadOperationD0Ev
6605:__ZN23PreloadManagerOperation6IsDoneEv
6606:__ZN23PreloadManagerOperation11GetProgressEv
6607:__ZN13LoadOperation7PerformEv
6608:__ZN13LoadOperation19IntegrateTimeSlicedEi
6609:__ZN13LoadOperation19IntegrateMainThreadEv
6610:__ZN27TimeSliceAwakeFromLoadQueue5ClearEv
6611:__ZN27TimeSliceAwakeFromLoadQueue19IntegrateTimeSlicedEi
6612:__ZN23dynamic_ringbuffer_baseIN27TimeSliceAwakeFromLoadQueue13AsyncInstanceEE8read_ptrERm
6613:__ZN17PersistentManager48IntegrateObjectAndUnlockIntegrationMutexInternalEi
6614:__ZN23dynamic_ringbuffer_baseIN27TimeSliceAwakeFromLoadQueue11SyncCommandEE8read_ptrERm
6615:__Z48AddToTimeSliceAwakeFromLoadQueueProgressCallbackR6ObjectPv
6616:__ZN17PersistentManager19LoadObjectsThreadedEPKiiR12LoadProgressbNS_9LockFlagsE
6617:__ZN17PersistentManager34ExtractTimeSliceAwakeFromLoadQueueER27TimeSliceAwakeFromLoadQueueNS_9LockFlagsE
6618:__ZN23dynamic_ringbuffer_baseIN27TimeSliceAwakeFromLoadQueue11SyncCommandEE9write_ptrERm
6619:__ZN17PersistentManager22CheckInstanceIDsLoadedEPiiNS_9LockFlagsE
6620:__ZN6Object22CheckInstanceIDsLoadedEPii
6621:__ZN18AsyncUploadManager13GetAsyncFenceEP6Object
6622:__ZN23dynamic_ringbuffer_baseIN27TimeSliceAwakeFromLoadQueue13AsyncInstanceEE9write_ptrERm
6623:__ZN13dynamic_arrayIN27TimeSliceAwakeFromLoadQueue13AsyncInstanceELm0EEC2Em10MemLabelId
6624:__ZN18LoadSceneOperationD2Ev
6625:__ZN18LoadSceneOperationD0Ev
6626:__ZN18LoadSceneOperation23GetAllowSceneActivationEv
6627:__ZN18LoadSceneOperation23SetAllowSceneActivationEb
6628:__ZN18LoadSceneOperation14SetFinalTimingEffff
6629:__ZN18LoadSceneOperation7PerformEv
6630:__ZN18LoadSceneOperation19IntegrateTimeSlicedEi
6631:__ZN18LoadSceneOperation19IntegrateMainThreadEv
6632:__ZN18LoadSceneOperation21MustCompleteNextFrameEv
6633:__ZN19RuntimeSceneManager24BeginIntegrateMainThreadEP10UnityScene
6634:__ZN18LoadSceneOperation21PostLoadSceneAdditiveEv
6635:__ZN18LoadSceneOperation25PlayerLoadSceneFromThreadEv
6636:__ZN18LoadSceneOperation22CompleteLoadFirstSceneEv
6637:__ZN19RuntimeSceneManager22EndIntegrateMainThreadEP10UnityScene16SceneLoadingMode
6638:__ZN30RuntimeInitializeOnLoadManager23ExecuteInitializeOnLoadE25RuntimeInitializeLoadType
6639:__ZN18AwakeFromLoadQueue5ClearEv
6640:__ZN30RuntimeInitializeOnLoadManager23ExecuteInitializeOnLoadENSt3__26vectorIi13stl_allocatorIiL18MemLabelIdentifier16ELi16EEEE
6641:__ZN19RuntimeSceneManager31CollectDontDestroyOnLoadObjectsERN4core8hash_setIiNS0_4hashIiEENSt3__28equal_toIiEEEE
6642:__Z15UnloadGameScenev
6643:__ZN18LoadSceneOperation21CompleteAwakeSequenceEv
6644:__Z16CleanupAfterLoadv
6645:__Z21SendMessageToEveryoneRK17MessageIdentifier11MessageData
6646:__ZN6Object21FindInstanceIDsOfTypeEPKN5Unity4TypeER13dynamic_arrayIiLm0EEb
6647:__ZL35FindInstanceIDsOfTypeImplementationPN4core8hash_setIP6ObjectNS_4hashIS2_EENSt3__28equal_toIS2_EEEEPKN5Unity4TypeER13dynamic_arrayIiLm0EE
6648:__ZN19RenderBufferManager14GarbageCollectEi
6649:__Z29ClearRepeatingLogMessageStatev
6650:__ZN13RenderManager18UpdateAllRenderersEv
6651:__ZN21RendererUpdateManager18OncePerFrameUpdateER13RendererScene
6652:__ZN21RendererUpdateManager9UpdateAllER13RendererScene
6653:__ZN28LightProbeProxyVolumeManager6UpdateEv
6654:__ZN28LightProbeProxyVolumeContext5ResetEv
6655:__ZN28LightProbeProxyVolumeManager17UpdateProxyVolumeER21LightProbeProxyVolumem
6656:__ZN21LightProbeProxyVolume13GetRenderDataER27LightProbeProxyVolumeSample
6657:__ZN21LightProbeProxyVolume21GetWorldToLocalMatrixEv
6658:__ZN27LightProbeProxyVolumeSample10InvalidateEv
6659:__ZN10Matrix4x4f12SetTranslateERK8Vector3f
6660:__ZN28LightProbeProxyVolumeManager17UpdateBoundingBoxER21LightProbeProxyVolume
6661:__ZN28LightProbeProxyVolumeManager16UpdateResolutionER21LightProbeProxyVolume
6662:__ZN28LightProbeProxyVolumeManager27ManageVolumeTextureLifetimeER21LightProbeProxyVolume
6663:__ZN28LightProbeProxyVolumeManager16BlendLightProbesER21LightProbeProxyVolume
6664:__ZN9Texture3D15UpdateImageDataEb
6665:__ZN17LightProbeContext4InitERK16LightmapSettingsRK14RenderSettings
6666:__ZN26LightProbeProxyVolumeUtilsL20FindTetrahedronIndexER9TransformRi
6667:__ZN13dynamic_arrayI19BlendProbesJobInputLm0EE4growEv
6668:__ZN17LightProbeContextaSERKS_
6669:__ZNK9Transform21GetLocalToWorldMatrixEv
6670:__ZL19BlendLightProbesJobP19BlendProbesJobInputj
6671:__ZN13dynamic_arrayI19BlendProbesJobInputLm0EED2Ev
6672:__Z27CalculateLightOcclusionMaskRK17LightProbeContextRK29LightProbeSamplingCoordinates
6673:__Z31CalculateLightProbeCoefficientsRK17LightProbeContextRK29LightProbeSamplingCoordinates25LightProbeCoefficientTypeR20SphericalHarmonicsL2
6674:__ZN17LightProbeContext24InitSharedLightProbeDataEv
6675:__ZNK18LightProbesManager17AcquireSharedDataEv
6676:__ZN20SphericalHarmonicsL234GetShaderConstantsFromNormalizedSHERKS_R11fixed_arrayI8Vector4fLm7EE
6677:__ZN28LightProbeProxyVolumeManager30ShouldReallocateVolumeTexturesER21LightProbeProxyVolumeP4PPtrI9Texture3DE
6678:__ZN28LightProbeProxyVolumeManager24AllocateVolumeTextureSetER21LightProbeProxyVolumeP4PPtrI9Texture3DEPKc
6679:__ZN9Texture3D11InitTextureEiii14GraphicsFormat20TextureCreationFlagsi
6680:__ZN9Texture3DC2E10MemLabelId18ObjectCreationMode
6681:__ZN26LightProbeProxyVolumeUtilsL28ComputeGlobalAABBOnHierarchyER9TransformR10MinMaxAABB
6682:__Z17TransformAABBSlowRK4AABBRK10Matrix4x4fRS_
6683:__ZN21LightProbeProxyVolume18HasHardwareSupportEv
6684:__ZN19RenderBufferManager8Textures14GarbageCollectEi
6685:__ZN19RenderBufferManager7Buffers14GarbageCollectEi
6686:__ZN10UnityScene24ExtractLevelGameManagersER18AwakeFromLoadQueue
6687:__Z23CollectSceneGameObjectsR13dynamic_arrayIiLm0EE
6688:__ZN19RuntimeSceneManager43UnloadAllScenesWithoutDestroyingGameObjectsEPFvR10UnitySceneE
6689:__Z12CollectPPtrsRK6ObjectRN4core8hash_setIiNS2_4hashIiEENSt3__28equal_toIiEEEE
6690:__ZN18IDCollectorFunctor18GenerateInstanceIDEi17TransferMetaFlags
6691:__ZN17RemapPPtrTransferC2E24TransferInstructionFlagsb
6692:__ZN17PersistentManager30GetInstanceIDFromPathAndFileIDERKN4core12basic_stringIcNS0_20StringStorageDefaultIcEEEEx
6693:__ZN17PersistentManager29GetAllFileIDsAndTypesFromPathERKN4core12basic_stringIcNS0_20StringStorageDefaultIcEEEER13dynamic_arrayIxLm0EERS7_IPKN5Unity4TypeELm0EE
6694:__ZN17PersistentManager17GetSerializedFileERKN4core12basic_stringIcNS0_20StringStorageDefaultIcEEEENS_9LockFlagsE
6695:__ZN17PersistentManager26LoadFileCompletelyThreadedERKN4core12basic_stringIcNS0_20StringStorageDefaultIcEEEEPxPiiNS_9LoadFlagsER12LoadProgressNS_9LockFlagsE
6696:__ZN17PersistentManager25ExtractAwakeFromLoadQueueEPKimR18AwakeFromLoadQueueNS_9LockFlagsE
6697:__ZN17PersistentManager31HasMemoryOrCachedSerializedFileERKN4core12basic_stringIcNS0_20StringStorageDefaultIcEEEE
6698:__ZN17PersistentManager12UnloadStreamERKN4core12basic_stringIcNS0_20StringStorageDefaultIcEEEEb
6699:__ZN17PersistentManager13GetAllFileIDsERKN4core12basic_stringIcNS0_20StringStorageDefaultIcEEEER13dynamic_arrayIxLm0EE
6700:__ZN8Remapper14PreallocateIDsExiRiS0_
6701:__ZNK14SerializedFile13GetAllFileIDsER13dynamic_arrayIxLm0EE
6702:__ZN11PreloadDataD2Ev
6703:__ZN11PreloadDataD0Ev
6704:__ZNK11PreloadData22GetTypeVirtualInternalEv
6705:__ZN11PreloadData23VirtualRedirectTransferER19StreamedBinaryWrite
6706:__ZN11PreloadData23VirtualRedirectTransferER18StreamedBinaryRead
6707:__ZN11PreloadData23VirtualRedirectTransferER17RemapPPtrTransfer
6708:__ZN11PreloadData23VirtualRedirectTransferER24GenerateTypeTreeTransfer
6709:__ZN11PreloadData23VirtualRedirectTransferER14SafeBinaryRead
6710:__ZN11PreloadData8TransferI14SafeBinaryReadEEvRT_
6711:__ZN11PreloadData8TransferI24GenerateTypeTreeTransferEEvRT_
6712:__ZN11PreloadData8TransferI19StreamedBinaryWriteEEvRT_
6713:__ZN27UnloadUnusedAssetsOperationD0Ev
6714:__ZN27UnloadUnusedAssetsOperation7PerformEv
6715:__ZN27UnloadUnusedAssetsOperation19IntegrateMainThreadEv
6716:__Z26GarbageCollectSharedAssetsbb
6717:__Z20MarkInstanceIDAsRootiR21GarbageCollectorState
6718:__ZL30RegisterFilteredObjectCallbackPP12Il2CppObjectiPv
6719:__ZL14OnWorldStartedv
6720:__Z16MarkDependenciesR27GarbageCollectorThreadStatej
6721:__Z25BatchDeleteObjectInternalPKii
6722:__ZNK10GameObject38MarkGameObjectAndComponentDependenciesER27GarbageCollectorThreadState
6723:__ZNK5Unity9Component38MarkGameObjectAndComponentDependenciesER27GarbageCollectorThreadState
6724:__ZNK8Material16MarkDependenciesER27GarbageCollectorThreadState
6725:__Z40scripting_liveness_calculation_from_root18ScriptingObjectPtrPv
6726:__ZN9Scripting16GetInstanceIDForE18ScriptingObjectPtr
6727:__ZN17PersistentManager21UnloadNonDirtyStreamsEv
6728:__ZN13ComputeShaderD2Ev
6729:__ZN13ComputeShaderD0Ev
6730:__ZN13ComputeShader17MainThreadCleanupEv
6731:__ZN13ComputeShader13AwakeFromLoadE17AwakeFromLoadMode
6732:__ZNK13ComputeShader22GetTypeVirtualInternalEv
6733:__ZN13ComputeShader23VirtualRedirectTransferER19StreamedBinaryWrite
6734:__ZN13ComputeShader23VirtualRedirectTransferER18StreamedBinaryRead
6735:__ZN13ComputeShader23VirtualRedirectTransferER24GenerateTypeTreeTransfer
6736:__ZN13ComputeShader23VirtualRedirectTransferER14SafeBinaryRead
6737:__ZN14SafeBinaryRead22TransferWithTypeStringI13ComputeShaderEEvRT_PKcS5_17TransferMetaFlags
6738:__ZN14SafeBinaryRead21TransferSTLStyleArrayI13dynamic_arrayI20ComputeShaderVariantLm0EEEEvRT_17TransferMetaFlags
6739:__ZN13dynamic_arrayI20ComputeShaderVariantLm0EE18resize_initializedEm12ResizePolicy
6740:__ZN20ComputeShaderVariant8TransferI14SafeBinaryReadEEvRT_
6741:__ZN14SafeBinaryRead21TransferSTLStyleArrayI13dynamic_arrayI19ComputeShaderKernelLm0EEEEvRT_17TransferMetaFlags
6742:__ZN14SafeBinaryRead21TransferSTLStyleArrayI13dynamic_arrayI15ComputeShaderCBLm0EEEEvRT_17TransferMetaFlags
6743:__ZN15ComputeShaderCB8TransferI14SafeBinaryReadEEvRT_
6744:__ZN14SafeBinaryRead21TransferSTLStyleArrayI13dynamic_arrayI18ComputeShaderParamLm0EEEEvRT_17TransferMetaFlags
6745:__ZN18ComputeShaderParam8TransferI14SafeBinaryReadEEvRT_
6746:__ZN15SerializeTraitsI13dynamic_arrayI19ComputeShaderKernelLm0EEE19ResizeSTLStyleArrayERS2_i
6747:__ZN19ComputeShaderKernel8TransferI14SafeBinaryReadEEvRT_
6748:__ZN14SafeBinaryRead21TransferSTLStyleArrayI13dynamic_arrayI21ComputeShaderResourceLm0EEEEvRT_17TransferMetaFlags
6749:__ZN14SafeBinaryRead21TransferSTLStyleArrayI13dynamic_arrayI27ComputeShaderBuiltinSamplerLm0EEEEvRT_17TransferMetaFlags
6750:__ZN14SafeBinaryRead21TransferSTLStyleArrayI19StaticArrayTransferIjLi3EEEEvRT_17TransferMetaFlags
6751:__ZN27ComputeShaderBuiltinSampler8TransferI14SafeBinaryReadEEvRT_
6752:__ZN15SerializeTraitsI21ComputeShaderResourceE8TransferI14SafeBinaryReadEEvRS0_RT_
6753:__ZN20ComputeShaderVariant8TransferI24GenerateTypeTreeTransferEEvRT_
6754:__ZN24GenerateTypeTreeTransfer21TransferSTLStyleArrayI13dynamic_arrayI19ComputeShaderKernelLm0EEEEvRT_17TransferMetaFlags
6755:__ZN15ComputeShaderCB8TransferI24GenerateTypeTreeTransferEEvRT_
6756:__ZN18ComputeShaderParam8TransferI24GenerateTypeTreeTransferEEvRT_
6757:__ZN19ComputeShaderKernel8TransferI24GenerateTypeTreeTransferEEvRT_
6758:__ZN21ComputeShaderResource8TransferI24GenerateTypeTreeTransferEEvRT_
6759:__ZN20ComputeShaderVariant8TransferI18StreamedBinaryReadEEvRT_
6760:__ZN19ComputeShaderKernel8TransferI18StreamedBinaryReadEEvRT_
6761:__ZN18StreamedBinaryRead21TransferSTLStyleArrayI13dynamic_arrayI15ComputeShaderCBLm0EEEEvRT_17TransferMetaFlags
6762:__ZN15ComputeShaderCB8TransferI18StreamedBinaryReadEEvRT_
6763:__ZN18StreamedBinaryRead21TransferSTLStyleArrayI13dynamic_arrayI18ComputeShaderParamLm0EEEEvRT_17TransferMetaFlags
6764:__ZN18ComputeShaderParam8TransferI18StreamedBinaryReadEEvRT_
6765:__ZN18StreamedBinaryRead21TransferSTLStyleArrayI13dynamic_arrayI21ComputeShaderResourceLm0EEEEvRT_17TransferMetaFlags
6766:__ZN18StreamedBinaryRead21TransferSTLStyleArrayI13dynamic_arrayI27ComputeShaderBuiltinSamplerLm0EEEEvRT_17TransferMetaFlags
6767:__ZN21ComputeShaderResource8TransferI18StreamedBinaryReadEEvRT_
6768:__ZN20ComputeShaderVariant8TransferI19StreamedBinaryWriteEEvRT_
6769:__ZN19ComputeShaderKernel8TransferI19StreamedBinaryWriteEEvRT_
6770:__ZN15ComputeShaderCB8TransferI19StreamedBinaryWriteEEvRT_
6771:__ZN18ComputeShaderParam8TransferI19StreamedBinaryWriteEEvRT_
6772:__ZN21ComputeShaderResource8TransferI19StreamedBinaryWriteEEvRT_
6773:__Z13TransferArrayILi3Ej19StreamedBinaryWriteEmRAT__T0_PKcRT1_
6774:__ZN13ComputeShader28DestroyRuntimeDataMainThreadEv
6775:__ZN13ComputeShader30DestroyRuntimeDataWorkerThreadEv
6776:__ZN13ComputeShader17CreateRuntimeDataEv
6777:__ZN13stl_allocatorINSt3__23mapIN9ShaderLab16FastPropertyNameEN13ComputeShader11ParamStructENS0_4lessIS3_EES_INS0_4pairIKS3_S5_EEL18MemLabelIdentifier25ELi16EEEELSB_25ELi16EE9constructEPSD_RKSD_
6778:__ZNSt3__26vectorINS_3mapIN9ShaderLab16FastPropertyNameEN13ComputeShader11ParamStructENS_4lessIS3_EE13stl_allocatorINS_4pairIKS3_S5_EEL18MemLabelIdentifier25ELi16EEEES8_ISE_LSC_25ELi16EEE21__push_back_slow_pathIRKSE_EEvOT_
6779:__ZNSt3__26__treeINS_12__value_typeIN9ShaderLab16FastPropertyNameEN13ComputeShader11ParamStructEEENS_19__map_value_compareIS3_S6_NS_4lessIS3_EELb1EEE13stl_allocatorIS6_L18MemLabelIdentifier25ELi16EEE7destroyEPNS_11__tree_nodeIS6_PvEE
6780:__ZNSt3__26__treeINS_12__value_typeIN9ShaderLab16FastPropertyNameEN13ComputeShader11ParamStructEEENS_19__map_value_compareIS3_S6_NS_4lessIS3_EELb1EEE13stl_allocatorIS6_L18MemLabelIdentifier25ELi16EEE12__find_equalIS3_EERPNS_16__tree_node_baseIPvEENS_21__tree_const_iteratorIS6_PNS_11__tree_nodeIS6_SH_EElEERPNS_15__tree_end_nodeISJ_EESK_RKT_
6781:__ZN13dynamic_arrayI20ComputeShaderVariantLm0EED2Ev
6782:__ZN13dynamic_arrayI28RayTracingShaderFunctionDescLm0EED2Ev
6783:__ZN13dynamic_arrayI24RayTracingShaderResourceLm0EE21resize_buffer_nocheckEm12ResizePolicy
6784:__ZN16RayTracingShader20GetCompatibleVariantE17GfxDeviceRenderer
6785:__ZN13dynamic_arrayI28RayTracingShaderFunctionDescLm0EE6assignEPKS0_S3_
6786:__ZN25RayTracingShaderResourcesC2ERKS_
6787:__ZN13dynamic_arrayI30RayTracingShaderConstantBufferLm0EE6assignEPKS0_S3_
6788:__ZN12ScriptMapperD2Ev
6789:__ZN12ScriptMapperD0Ev
6790:__ZNK12ScriptMapper22GetTypeVirtualInternalEv
6791:__ZN12ScriptMapper23VirtualRedirectTransferER19StreamedBinaryWrite
6792:__ZN12ScriptMapper23VirtualRedirectTransferER18StreamedBinaryRead
6793:__ZN12ScriptMapper23VirtualRedirectTransferER17RemapPPtrTransfer
6794:__ZN12ScriptMapper23VirtualRedirectTransferER24GenerateTypeTreeTransfer
6795:__ZN12ScriptMapper23VirtualRedirectTransferER14SafeBinaryRead
6796:__ZN14SafeBinaryRead22TransferWithTypeStringI12ScriptMapperEEvRT_PKcS5_17TransferMetaFlags
6797:__ZN14SafeBinaryRead8TransferI15NameToObjectMapI6ShaderNSt3__23mapI4PPtrIS2_EN4core12basic_stringIcNS7_20StringStorageDefaultIcEEEENS3_4lessIS6_EENS3_9allocatorINS3_4pairIKS6_SB_EEEEEENS3_8multimapISB_S6_NSC_ISB_EENSE_INSF_IKSB_S6_EEEEEEEEEvRT_PKc17TransferMetaFlags
6798:__ZN14SafeBinaryRead19TransferSTLStyleMapINSt3__23mapI4PPtrI6ShaderEN4core12basic_stringIcNS6_20StringStorageDefaultIcEEEENS1_4lessIS5_EENS1_9allocatorINS1_4pairIKS5_SA_EEEEEEEEvRT_17TransferMetaFlags
6799:__ZN15NameToObjectMapI6ShaderNSt3__23mapI4PPtrIS0_EN4core12basic_stringIcNS5_20StringStorageDefaultIcEEEENS1_4lessIS4_EENS1_9allocatorINS1_4pairIKS4_S9_EEEEEENS1_8multimapIS9_S4_NSA_IS9_EENSC_INSD_IKS9_S4_EEEEEEE7RebuildEv
6800:__ZNSt3__26__treeINS_12__value_typeIN4core12basic_stringIcNS2_20StringStorageDefaultIcEEEE4PPtrI6ShaderEEENS_19__map_value_compareIS6_SA_NS_4lessIS6_EELb1EEENS_9allocatorISA_EEE7destroyEPNS_11__tree_nodeISA_PvEE
6801:__ZNSt3__26__treeINS_12__value_typeIN4core12basic_stringIcNS2_20StringStorageDefaultIcEEEE4PPtrI6ShaderEEENS_19__map_value_compareIS6_SA_NS_4lessIS6_EELb1EEENS_9allocatorISA_EEE15__emplace_multiIJNS_4pairIS6_S9_EEEEENS_15__tree_iteratorISA_PNS_11__tree_nodeISA_PvEElEEDpOT_
6802:__ZNSt3__26__treeINS_12__value_typeI4PPtrI6ShaderEN4core12basic_stringIcNS5_20StringStorageDefaultIcEEEEEENS_19__map_value_compareIS4_SA_NS_4lessIS4_EELb1EEENS_9allocatorISA_EEE7destroyEPNS_11__tree_nodeISA_PvEE
6803:__ZN15SerializeTraitsINSt3__24pairI4PPtrI6ShaderEN4core12basic_stringIcNS5_20StringStorageDefaultIcEEEEEEE8TransferI14SafeBinaryReadEEvRSA_RT_
6804:__ZNSt3__26__treeINS_12__value_typeI4PPtrI6ShaderEN4core12basic_stringIcNS5_20StringStorageDefaultIcEEEEEENS_19__map_value_compareIS4_SA_NS_4lessIS4_EELb1EEENS_9allocatorISA_EEE25__emplace_unique_key_argsIS4_JRNS_4pairIS4_S9_EEEEENSJ_INS_15__tree_iteratorISA_PNS_11__tree_nodeISA_PvEElEEbEERKT_DpOT0_
6805:__ZN24GenerateTypeTreeTransfer8TransferI12ScriptMapperEEvRT_PKc17TransferMetaFlags
6806:__ZN15SerializeTraitsINSt3__24pairI4PPtrI6ShaderEN4core12basic_stringIcNS5_20StringStorageDefaultIcEEEEEEE8TransferI24GenerateTypeTreeTransferEEvRSA_RT_
